
intrinsic.elf:     file format elf64-littleriscv


Disassembly of section .text:

00000000000100e8 <exit>:
   100e8:	1141                	add	sp,sp,-16
   100ea:	4581                	li	a1,0
   100ec:	e022                	sd	s0,0(sp)
   100ee:	e406                	sd	ra,8(sp)
   100f0:	842a                	mv	s0,a0
   100f2:	20d000ef          	jal	10afe <__call_exitprocs>
   100f6:	2381b783          	ld	a5,568(gp) # 1b578 <__stdio_exit_handler>
   100fa:	c391                	beqz	a5,100fe <exit+0x16>
   100fc:	9782                	jalr	a5
   100fe:	8522                	mv	a0,s0
   10100:	50f070ef          	jal	17e0e <_exit>

0000000000010104 <register_fini>:
   10104:	00000793          	li	a5,0
   10108:	c791                	beqz	a5,10114 <register_fini+0x10>
   1010a:	6555                	lui	a0,0x15
   1010c:	b3050513          	add	a0,a0,-1232 # 14b30 <__libc_fini_array>
   10110:	2c10006f          	j	10bd0 <atexit>
   10114:	8082                	ret

0000000000010116 <_start>:
   10116:	0000b197          	auipc	gp,0xb
   1011a:	22a18193          	add	gp,gp,554 # 1b340 <__global_locale>
   1011e:	23818513          	add	a0,gp,568 # 1b578 <__stdio_exit_handler>
   10122:	0000c617          	auipc	a2,0xc
   10126:	a1e60613          	add	a2,a2,-1506 # 1bb40 <__BSS_END__>
   1012a:	8e09                	sub	a2,a2,a0
   1012c:	4581                	li	a1,0
   1012e:	127000ef          	jal	10a54 <memset>
   10132:	00001517          	auipc	a0,0x1
   10136:	a9e50513          	add	a0,a0,-1378 # 10bd0 <atexit>
   1013a:	c519                	beqz	a0,10148 <_start+0x32>
   1013c:	00005517          	auipc	a0,0x5
   10140:	9f450513          	add	a0,a0,-1548 # 14b30 <__libc_fini_array>
   10144:	28d000ef          	jal	10bd0 <atexit>
   10148:	0a3000ef          	jal	109ea <__libc_init_array>
   1014c:	4502                	lw	a0,0(sp)
   1014e:	002c                	add	a1,sp,8
   10150:	4601                	li	a2,0
   10152:	11c000ef          	jal	1026e <main>
   10156:	bf49                	j	100e8 <exit>

0000000000010158 <__do_global_dtors_aux>:
   10158:	1141                	add	sp,sp,-16
   1015a:	e022                	sd	s0,0(sp)
   1015c:	2781c783          	lbu	a5,632(gp) # 1b5b8 <completed.1>
   10160:	e406                	sd	ra,8(sp)
   10162:	ef91                	bnez	a5,1017e <__do_global_dtors_aux+0x26>
   10164:	00000793          	li	a5,0
   10168:	cb81                	beqz	a5,10178 <__do_global_dtors_aux+0x20>
   1016a:	656d                	lui	a0,0x1b
   1016c:	9a050513          	add	a0,a0,-1632 # 1a9a0 <__EH_FRAME_BEGIN__>
   10170:	00000097          	auipc	ra,0x0
   10174:	000000e7          	jalr	zero # 0 <exit-0x100e8>
   10178:	4785                	li	a5,1
   1017a:	26f18c23          	sb	a5,632(gp) # 1b5b8 <completed.1>
   1017e:	60a2                	ld	ra,8(sp)
   10180:	6402                	ld	s0,0(sp)
   10182:	0141                	add	sp,sp,16
   10184:	8082                	ret

0000000000010186 <frame_dummy>:
   10186:	00000793          	li	a5,0
   1018a:	cb91                	beqz	a5,1019e <frame_dummy+0x18>
   1018c:	656d                	lui	a0,0x1b
   1018e:	28018593          	add	a1,gp,640 # 1b5c0 <object.0>
   10192:	9a050513          	add	a0,a0,-1632 # 1a9a0 <__EH_FRAME_BEGIN__>
   10196:	00000317          	auipc	t1,0x0
   1019a:	00000067          	jr	zero # 0 <exit-0x100e8>
   1019e:	8082                	ret

00000000000101a0 <print_vreg_content>:
   101a0:	7139                	add	sp,sp,-64
   101a2:	fc06                	sd	ra,56(sp)
   101a4:	f822                	sd	s0,48(sp)
   101a6:	0080                	add	s0,sp,64
   101a8:	fca43423          	sd	a0,-56(s0)
   101ac:	fcb43023          	sd	a1,-64(s0)
   101b0:	02000793          	li	a5,32
   101b4:	fef43023          	sd	a5,-32(s0)
   101b8:	fc043583          	ld	a1,-64(s0)
   101bc:	67e5                	lui	a5,0x19
   101be:	1e078513          	add	a0,a5,480 # 191e0 <__clzdi2+0x3e>
   101c2:	5a4000ef          	jal	10766 <printf>
   101c6:	fe042623          	sw	zero,-20(s0)
   101ca:	a059                	j	10250 <print_vreg_content+0xb0>
   101cc:	fe042423          	sw	zero,-24(s0)
   101d0:	a8b9                	j	1022e <print_vreg_content+0x8e>
   101d2:	fec42783          	lw	a5,-20(s0)
   101d6:	fc843703          	ld	a4,-56(s0)
   101da:	97ba                	add	a5,a5,a4
   101dc:	0007c783          	lbu	a5,0(a5)
   101e0:	2781                	sext.w	a5,a5
   101e2:	8b85                	and	a5,a5,1
   101e4:	2781                	sext.w	a5,a5
   101e6:	00f037b3          	snez	a5,a5
   101ea:	fcf40fa3          	sb	a5,-33(s0)
   101ee:	fec42783          	lw	a5,-20(s0)
   101f2:	fc843703          	ld	a4,-56(s0)
   101f6:	97ba                	add	a5,a5,a4
   101f8:	0007c703          	lbu	a4,0(a5)
   101fc:	fec42783          	lw	a5,-20(s0)
   10200:	fc843683          	ld	a3,-56(s0)
   10204:	97b6                	add	a5,a5,a3
   10206:	0017571b          	srlw	a4,a4,0x1
   1020a:	0ff77713          	zext.b	a4,a4
   1020e:	00e78023          	sb	a4,0(a5)
   10212:	fdf44783          	lbu	a5,-33(s0)
   10216:	2781                	sext.w	a5,a5
   10218:	85be                	mv	a1,a5
   1021a:	67e5                	lui	a5,0x19
   1021c:	1e878513          	add	a0,a5,488 # 191e8 <__clzdi2+0x46>
   10220:	546000ef          	jal	10766 <printf>
   10224:	fe842783          	lw	a5,-24(s0)
   10228:	2785                	addw	a5,a5,1
   1022a:	fef42423          	sw	a5,-24(s0)
   1022e:	fe842783          	lw	a5,-24(s0)
   10232:	0007871b          	sext.w	a4,a5
   10236:	479d                	li	a5,7
   10238:	f8e7dde3          	bge	a5,a4,101d2 <print_vreg_content+0x32>
   1023c:	67e5                	lui	a5,0x19
   1023e:	1f078513          	add	a0,a5,496 # 191f0 <__clzdi2+0x4e>
   10242:	524000ef          	jal	10766 <printf>
   10246:	fec42783          	lw	a5,-20(s0)
   1024a:	2785                	addw	a5,a5,1
   1024c:	fef42623          	sw	a5,-20(s0)
   10250:	fec42703          	lw	a4,-20(s0)
   10254:	fe043783          	ld	a5,-32(s0)
   10258:	838d                	srl	a5,a5,0x3
   1025a:	f6f769e3          	bltu	a4,a5,101cc <print_vreg_content+0x2c>
   1025e:	4529                	li	a0,10
   10260:	538000ef          	jal	10798 <putchar>
   10264:	0001                	nop
   10266:	70e2                	ld	ra,56(sp)
   10268:	7442                	ld	s0,48(sp)
   1026a:	6121                	add	sp,sp,64
   1026c:	8082                	ret

000000000001026e <main>:
   1026e:	1141                	add	sp,sp,-16
   10270:	e406                	sd	ra,8(sp)
   10272:	e022                	sd	s0,0(sp)
   10274:	0800                	add	s0,sp,16
   10276:	c22022f3          	csrr	t0,vlenb
   1027a:	00129313          	sll	t1,t0,0x1
   1027e:	40610133          	sub	sp,sp,t1
   10282:	02000793          	li	a5,32
   10286:	fef43423          	sd	a5,-24(s0)
   1028a:	c22027f3          	csrr	a5,vlenb
   1028e:	838d                	srl	a5,a5,0x3
   10290:	40f007b3          	neg	a5,a5
   10294:	17e1                	add	a5,a5,-8
   10296:	17c1                	add	a5,a5,-16
   10298:	97a2                	add	a5,a5,s0
   1029a:	00007757          	vsetvli	a4,zero,e8,m1,tu,mu
   1029e:	0c077057          	vsetvli	zero,a4,e8,m1,ta,ma
   102a2:	7f8c2c57          	vmset.m	v24
   102a6:	cc00f057          	vsetivli	zero,1,e8,m1,ta,ma
   102aa:	02b78c27          	vsm.v	v24,(a5)
   102ae:	c22027f3          	csrr	a5,vlenb
   102b2:	8389                	srl	a5,a5,0x2
   102b4:	40f007b3          	neg	a5,a5
   102b8:	17e1                	add	a5,a5,-8
   102ba:	17c1                	add	a5,a5,-16
   102bc:	00878733          	add	a4,a5,s0
   102c0:	c22027f3          	csrr	a5,vlenb
   102c4:	838d                	srl	a5,a5,0x3
   102c6:	40f007b3          	neg	a5,a5
   102ca:	17e1                	add	a5,a5,-8
   102cc:	17c1                	add	a5,a5,-16
   102ce:	97a2                	add	a5,a5,s0
   102d0:	000076d7          	vsetvli	a3,zero,e8,m1,tu,mu
   102d4:	0c06f057          	vsetvli	zero,a3,e8,m1,ta,ma
   102d8:	02b78c07          	vlm.v	v24,(a5)
   102dc:	fe843783          	ld	a5,-24(s0)
   102e0:	0c07f057          	vsetvli	zero,a5,e8,m1,ta,ma
   102e4:	778c2c57          	vmnot.m	v24,v24
   102e8:	000077d7          	vsetvli	a5,zero,e8,m1,tu,mu
   102ec:	0c07f057          	vsetvli	zero,a5,e8,m1,ta,ma
   102f0:	02b70c27          	vsm.v	v24,(a4)
   102f4:	c22027f3          	csrr	a5,vlenb
   102f8:	40f007b3          	neg	a5,a5
   102fc:	17e1                	add	a5,a5,-8
   102fe:	17c1                	add	a5,a5,-16
   10300:	00878733          	add	a4,a5,s0
   10304:	c22027f3          	csrr	a5,vlenb
   10308:	8389                	srl	a5,a5,0x2
   1030a:	40f007b3          	neg	a5,a5
   1030e:	17e1                	add	a5,a5,-8
   10310:	17c1                	add	a5,a5,-16
   10312:	97a2                	add	a5,a5,s0
   10314:	000076d7          	vsetvli	a3,zero,e8,m1,tu,mu
   10318:	0c06f057          	vsetvli	zero,a3,e8,m1,ta,ma
   1031c:	02b78c07          	vlm.v	v24,(a5)
   10320:	fe843783          	ld	a5,-24(s0)
   10324:	0c07f057          	vsetvli	zero,a5,e8,m1,ta,ma
   10328:	02b70c27          	vsm.v	v24,(a4)
   1032c:	c22027f3          	csrr	a5,vlenb
   10330:	40f007b3          	neg	a5,a5
   10334:	17e1                	add	a5,a5,-8
   10336:	17c1                	add	a5,a5,-16
   10338:	00878733          	add	a4,a5,s0
   1033c:	67e5                	lui	a5,0x19
   1033e:	1f878593          	add	a1,a5,504 # 191f8 <__clzdi2+0x56>
   10342:	853a                	mv	a0,a4
   10344:	e5dff0ef          	jal	101a0 <print_vreg_content>
   10348:	c22027f3          	csrr	a5,vlenb
   1034c:	838d                	srl	a5,a5,0x3
   1034e:	00279713          	sll	a4,a5,0x2
   10352:	8f99                	sub	a5,a5,a4
   10354:	873e                	mv	a4,a5
   10356:	ff870793          	add	a5,a4,-8
   1035a:	873e                	mv	a4,a5
   1035c:	ff070793          	add	a5,a4,-16
   10360:	97a2                	add	a5,a5,s0
   10362:	fe843703          	ld	a4,-24(s0)
   10366:	000076d7          	vsetvli	a3,zero,e8,m1,tu,mu
   1036a:	0c06f057          	vsetvli	zero,a3,e8,m1,ta,ma
   1036e:	7f8c2c57          	vmset.m	v24
   10372:	0c077057          	vsetvli	zero,a4,e8,m1,ta,ma
   10376:	02b78c27          	vsm.v	v24,(a5)
   1037a:	c22027f3          	csrr	a5,vlenb
   1037e:	8385                	srl	a5,a5,0x1
   10380:	40f007b3          	neg	a5,a5
   10384:	17e1                	add	a5,a5,-8
   10386:	17c1                	add	a5,a5,-16
   10388:	008786b3          	add	a3,a5,s0
   1038c:	c22027f3          	csrr	a5,vlenb
   10390:	838d                	srl	a5,a5,0x3
   10392:	00279713          	sll	a4,a5,0x2
   10396:	8f99                	sub	a5,a5,a4
   10398:	873e                	mv	a4,a5
   1039a:	ff870793          	add	a5,a4,-8
   1039e:	873e                	mv	a4,a5
   103a0:	ff070793          	add	a5,a4,-16
   103a4:	00878733          	add	a4,a5,s0
   103a8:	c22027f3          	csrr	a5,vlenb
   103ac:	8389                	srl	a5,a5,0x2
   103ae:	40f007b3          	neg	a5,a5
   103b2:	17e1                	add	a5,a5,-8
   103b4:	17c1                	add	a5,a5,-16
   103b6:	97a2                	add	a5,a5,s0
   103b8:	00007657          	vsetvli	a2,zero,e8,m1,tu,mu
   103bc:	0c067057          	vsetvli	zero,a2,e8,m1,ta,ma
   103c0:	02b70d07          	vlm.v	v26,(a4)
   103c4:	00007757          	vsetvli	a4,zero,e8,m1,tu,mu
   103c8:	0c077057          	vsetvli	zero,a4,e8,m1,ta,ma
   103cc:	02b78c87          	vlm.v	v25,(a5)
   103d0:	fe843783          	ld	a5,-24(s0)
   103d4:	9fa03057          	vmv1r.v	v0,v26
   103d8:	0c07f057          	vsetvli	zero,a5,e8,m1,ta,ma
   103dc:	5190ac57          	vmsbf.m	v24,v25,v0.t
   103e0:	000077d7          	vsetvli	a5,zero,e8,m1,tu,mu
   103e4:	0c07f057          	vsetvli	zero,a5,e8,m1,ta,ma
   103e8:	02b68c27          	vsm.v	v24,(a3)
   103ec:	c22027f3          	csrr	a5,vlenb
   103f0:	40f007b3          	neg	a5,a5
   103f4:	17e1                	add	a5,a5,-8
   103f6:	17c1                	add	a5,a5,-16
   103f8:	00878733          	add	a4,a5,s0
   103fc:	c22027f3          	csrr	a5,vlenb
   10400:	8385                	srl	a5,a5,0x1
   10402:	40f007b3          	neg	a5,a5
   10406:	17e1                	add	a5,a5,-8
   10408:	17c1                	add	a5,a5,-16
   1040a:	97a2                	add	a5,a5,s0
   1040c:	000076d7          	vsetvli	a3,zero,e8,m1,tu,mu
   10410:	0c06f057          	vsetvli	zero,a3,e8,m1,ta,ma
   10414:	02b78c07          	vlm.v	v24,(a5)
   10418:	fe843783          	ld	a5,-24(s0)
   1041c:	0c07f057          	vsetvli	zero,a5,e8,m1,ta,ma
   10420:	02b70c27          	vsm.v	v24,(a4)
   10424:	c22027f3          	csrr	a5,vlenb
   10428:	40f007b3          	neg	a5,a5
   1042c:	17e1                	add	a5,a5,-8
   1042e:	17c1                	add	a5,a5,-16
   10430:	00878733          	add	a4,a5,s0
   10434:	67e5                	lui	a5,0x19
   10436:	20078593          	add	a1,a5,512 # 19200 <__clzdi2+0x5e>
   1043a:	853a                	mv	a0,a4
   1043c:	d65ff0ef          	jal	101a0 <print_vreg_content>
   10440:	4781                	li	a5,0
   10442:	853e                	mv	a0,a5
   10444:	c22022f3          	csrr	t0,vlenb
   10448:	00129313          	sll	t1,t0,0x1
   1044c:	911a                	add	sp,sp,t1
   1044e:	60a2                	ld	ra,8(sp)
   10450:	6402                	ld	s0,0(sp)
   10452:	0141                	add	sp,sp,16
   10454:	8082                	ret

0000000000010456 <__fp_lock>:
   10456:	4501                	li	a0,0
   10458:	8082                	ret

000000000001045a <stdio_exit_handler>:
   1045a:	666d                	lui	a2,0x1b
   1045c:	65d1                	lui	a1,0x14
   1045e:	656d                	lui	a0,0x1b
   10460:	9c060613          	add	a2,a2,-1600 # 1a9c0 <__sglue>
   10464:	f1258593          	add	a1,a1,-238 # 13f12 <_fclose_r>
   10468:	9d850513          	add	a0,a0,-1576 # 1a9d8 <_impure_data>
   1046c:	ac99                	j	106c2 <_fwalk_sglue>

000000000001046e <cleanup_stdio>:
   1046e:	650c                	ld	a1,8(a0)
   10470:	1141                	add	sp,sp,-16
   10472:	e022                	sd	s0,0(sp)
   10474:	e406                	sd	ra,8(sp)
   10476:	2b018793          	add	a5,gp,688 # 1b5f0 <__sf>
   1047a:	842a                	mv	s0,a0
   1047c:	00f58463          	beq	a1,a5,10484 <cleanup_stdio+0x16>
   10480:	293030ef          	jal	13f12 <_fclose_r>
   10484:	680c                	ld	a1,16(s0)
   10486:	36018793          	add	a5,gp,864 # 1b6a0 <__sf+0xb0>
   1048a:	00f58563          	beq	a1,a5,10494 <cleanup_stdio+0x26>
   1048e:	8522                	mv	a0,s0
   10490:	283030ef          	jal	13f12 <_fclose_r>
   10494:	6c0c                	ld	a1,24(s0)
   10496:	41018793          	add	a5,gp,1040 # 1b750 <__sf+0x160>
   1049a:	00f58863          	beq	a1,a5,104aa <cleanup_stdio+0x3c>
   1049e:	8522                	mv	a0,s0
   104a0:	6402                	ld	s0,0(sp)
   104a2:	60a2                	ld	ra,8(sp)
   104a4:	0141                	add	sp,sp,16
   104a6:	26d0306f          	j	13f12 <_fclose_r>
   104aa:	60a2                	ld	ra,8(sp)
   104ac:	6402                	ld	s0,0(sp)
   104ae:	0141                	add	sp,sp,16
   104b0:	8082                	ret

00000000000104b2 <__fp_unlock>:
   104b2:	4501                	li	a0,0
   104b4:	8082                	ret

00000000000104b6 <global_stdio_init.part.0>:
   104b6:	7179                	add	sp,sp,-48
   104b8:	67c1                	lui	a5,0x10
   104ba:	f022                	sd	s0,32(sp)
   104bc:	45a78793          	add	a5,a5,1114 # 1045a <stdio_exit_handler>
   104c0:	2b018413          	add	s0,gp,688 # 1b5f0 <__sf>
   104c4:	f406                	sd	ra,40(sp)
   104c6:	ec26                	sd	s1,24(sp)
   104c8:	e84a                	sd	s2,16(sp)
   104ca:	e44e                	sd	s3,8(sp)
   104cc:	e052                	sd	s4,0(sp)
   104ce:	22f1bc23          	sd	a5,568(gp) # 1b578 <__stdio_exit_handler>
   104d2:	4621                	li	a2,8
   104d4:	4791                	li	a5,4
   104d6:	4581                	li	a1,0
   104d8:	35418513          	add	a0,gp,852 # 1b694 <__sf+0xa4>
   104dc:	c81c                	sw	a5,16(s0)
   104de:	00043023          	sd	zero,0(s0)
   104e2:	00043423          	sd	zero,8(s0)
   104e6:	0a042623          	sw	zero,172(s0)
   104ea:	00043c23          	sd	zero,24(s0)
   104ee:	02042023          	sw	zero,32(s0)
   104f2:	02042423          	sw	zero,40(s0)
   104f6:	55e000ef          	jal	10a54 <memset>
   104fa:	67c1                	lui	a5,0x10
   104fc:	6a41                	lui	s4,0x10
   104fe:	69c1                	lui	s3,0x10
   10500:	6945                	lui	s2,0x11
   10502:	64c5                	lui	s1,0x11
   10504:	7a6a0a13          	add	s4,s4,1958 # 107a6 <__sread>
   10508:	7e298993          	add	s3,s3,2018 # 107e2 <__swrite>
   1050c:	83490913          	add	s2,s2,-1996 # 10834 <__sseek>
   10510:	88648493          	add	s1,s1,-1914 # 10886 <__sclose>
   10514:	07a5                	add	a5,a5,9 # 10009 <exit-0xdf>
   10516:	4621                	li	a2,8
   10518:	4581                	li	a1,0
   1051a:	40418513          	add	a0,gp,1028 # 1b744 <__sf+0x154>
   1051e:	03443c23          	sd	s4,56(s0)
   10522:	05343023          	sd	s3,64(s0)
   10526:	05243423          	sd	s2,72(s0)
   1052a:	e824                	sd	s1,80(s0)
   1052c:	0cf42023          	sw	a5,192(s0)
   10530:	f800                	sd	s0,48(s0)
   10532:	0a043823          	sd	zero,176(s0)
   10536:	0a043c23          	sd	zero,184(s0)
   1053a:	14042e23          	sw	zero,348(s0)
   1053e:	0c043423          	sd	zero,200(s0)
   10542:	0c042823          	sw	zero,208(s0)
   10546:	0c042c23          	sw	zero,216(s0)
   1054a:	50a000ef          	jal	10a54 <memset>
   1054e:	000207b7          	lui	a5,0x20
   10552:	07c9                	add	a5,a5,18 # 20012 <__BSS_END__+0x44d2>
   10554:	36018713          	add	a4,gp,864 # 1b6a0 <__sf+0xb0>
   10558:	4621                	li	a2,8
   1055a:	4581                	li	a1,0
   1055c:	4b418513          	add	a0,gp,1204 # 1b7f4 <__sf+0x204>
   10560:	0f443423          	sd	s4,232(s0)
   10564:	0f343823          	sd	s3,240(s0)
   10568:	0f243c23          	sd	s2,248(s0)
   1056c:	10943023          	sd	s1,256(s0)
   10570:	16f42823          	sw	a5,368(s0)
   10574:	f078                	sd	a4,224(s0)
   10576:	16043023          	sd	zero,352(s0)
   1057a:	16043423          	sd	zero,360(s0)
   1057e:	20042623          	sw	zero,524(s0)
   10582:	16043c23          	sd	zero,376(s0)
   10586:	18042023          	sw	zero,384(s0)
   1058a:	18042423          	sw	zero,392(s0)
   1058e:	4c6000ef          	jal	10a54 <memset>
   10592:	41018793          	add	a5,gp,1040 # 1b750 <__sf+0x160>
   10596:	19443c23          	sd	s4,408(s0)
   1059a:	1b343023          	sd	s3,416(s0)
   1059e:	1b243423          	sd	s2,424(s0)
   105a2:	1a943823          	sd	s1,432(s0)
   105a6:	70a2                	ld	ra,40(sp)
   105a8:	18f43823          	sd	a5,400(s0)
   105ac:	7402                	ld	s0,32(sp)
   105ae:	64e2                	ld	s1,24(sp)
   105b0:	6942                	ld	s2,16(sp)
   105b2:	69a2                	ld	s3,8(sp)
   105b4:	6a02                	ld	s4,0(sp)
   105b6:	6145                	add	sp,sp,48
   105b8:	8082                	ret

00000000000105ba <__sfp>:
   105ba:	2381b783          	ld	a5,568(gp) # 1b578 <__stdio_exit_handler>
   105be:	7179                	add	sp,sp,-48
   105c0:	e84a                	sd	s2,16(sp)
   105c2:	f406                	sd	ra,40(sp)
   105c4:	f022                	sd	s0,32(sp)
   105c6:	ec26                	sd	s1,24(sp)
   105c8:	e44e                	sd	s3,8(sp)
   105ca:	892a                	mv	s2,a0
   105cc:	c7cd                	beqz	a5,10676 <__sfp+0xbc>
   105ce:	64ed                	lui	s1,0x1b
   105d0:	9c048493          	add	s1,s1,-1600 # 1a9c0 <__sglue>
   105d4:	0b000993          	li	s3,176
   105d8:	4498                	lw	a4,8(s1)
   105da:	6880                	ld	s0,16(s1)
   105dc:	06e05463          	blez	a4,10644 <__sfp+0x8a>
   105e0:	1702                	sll	a4,a4,0x20
   105e2:	9301                	srl	a4,a4,0x20
   105e4:	03370733          	mul	a4,a4,s3
   105e8:	9722                	add	a4,a4,s0
   105ea:	a029                	j	105f4 <__sfp+0x3a>
   105ec:	0b040413          	add	s0,s0,176
   105f0:	04870a63          	beq	a4,s0,10644 <__sfp+0x8a>
   105f4:	01041783          	lh	a5,16(s0)
   105f8:	fbf5                	bnez	a5,105ec <__sfp+0x32>
   105fa:	77c1                	lui	a5,0xffff0
   105fc:	0785                	add	a5,a5,1 # ffffffffffff0001 <__BSS_END__+0xfffffffffffd44c1>
   105fe:	c81c                	sw	a5,16(s0)
   10600:	0a042623          	sw	zero,172(s0)
   10604:	00043023          	sd	zero,0(s0)
   10608:	00043423          	sd	zero,8(s0)
   1060c:	00043c23          	sd	zero,24(s0)
   10610:	02042023          	sw	zero,32(s0)
   10614:	02042423          	sw	zero,40(s0)
   10618:	4621                	li	a2,8
   1061a:	4581                	li	a1,0
   1061c:	0a440513          	add	a0,s0,164
   10620:	434000ef          	jal	10a54 <memset>
   10624:	04043c23          	sd	zero,88(s0)
   10628:	06042023          	sw	zero,96(s0)
   1062c:	06043c23          	sd	zero,120(s0)
   10630:	08042023          	sw	zero,128(s0)
   10634:	70a2                	ld	ra,40(sp)
   10636:	8522                	mv	a0,s0
   10638:	7402                	ld	s0,32(sp)
   1063a:	64e2                	ld	s1,24(sp)
   1063c:	6942                	ld	s2,16(sp)
   1063e:	69a2                	ld	s3,8(sp)
   10640:	6145                	add	sp,sp,48
   10642:	8082                	ret
   10644:	6080                	ld	s0,0(s1)
   10646:	c019                	beqz	s0,1064c <__sfp+0x92>
   10648:	84a2                	mv	s1,s0
   1064a:	b779                	j	105d8 <__sfp+0x1e>
   1064c:	2d800593          	li	a1,728
   10650:	854a                	mv	a0,s2
   10652:	09d000ef          	jal	10eee <_malloc_r>
   10656:	842a                	mv	s0,a0
   10658:	c115                	beqz	a0,1067c <__sfp+0xc2>
   1065a:	0561                	add	a0,a0,24
   1065c:	4791                	li	a5,4
   1065e:	00043023          	sd	zero,0(s0)
   10662:	c41c                	sw	a5,8(s0)
   10664:	e808                	sd	a0,16(s0)
   10666:	2c000613          	li	a2,704
   1066a:	4581                	li	a1,0
   1066c:	3e8000ef          	jal	10a54 <memset>
   10670:	e080                	sd	s0,0(s1)
   10672:	84a2                	mv	s1,s0
   10674:	b795                	j	105d8 <__sfp+0x1e>
   10676:	e41ff0ef          	jal	104b6 <global_stdio_init.part.0>
   1067a:	bf91                	j	105ce <__sfp+0x14>
   1067c:	0004b023          	sd	zero,0(s1)
   10680:	47b1                	li	a5,12
   10682:	00f92023          	sw	a5,0(s2)
   10686:	b77d                	j	10634 <__sfp+0x7a>

0000000000010688 <__sinit>:
   10688:	653c                	ld	a5,72(a0)
   1068a:	c391                	beqz	a5,1068e <__sinit+0x6>
   1068c:	8082                	ret
   1068e:	2381b703          	ld	a4,568(gp) # 1b578 <__stdio_exit_handler>
   10692:	67c1                	lui	a5,0x10
   10694:	46e78793          	add	a5,a5,1134 # 1046e <cleanup_stdio>
   10698:	e53c                	sd	a5,72(a0)
   1069a:	fb6d                	bnez	a4,1068c <__sinit+0x4>
   1069c:	bd29                	j	104b6 <global_stdio_init.part.0>

000000000001069e <__sfp_lock_acquire>:
   1069e:	8082                	ret

00000000000106a0 <__sfp_lock_release>:
   106a0:	8082                	ret

00000000000106a2 <__fp_lock_all>:
   106a2:	666d                	lui	a2,0x1b
   106a4:	65c1                	lui	a1,0x10
   106a6:	9c060613          	add	a2,a2,-1600 # 1a9c0 <__sglue>
   106aa:	45658593          	add	a1,a1,1110 # 10456 <__fp_lock>
   106ae:	4501                	li	a0,0
   106b0:	a809                	j	106c2 <_fwalk_sglue>

00000000000106b2 <__fp_unlock_all>:
   106b2:	666d                	lui	a2,0x1b
   106b4:	65c1                	lui	a1,0x10
   106b6:	9c060613          	add	a2,a2,-1600 # 1a9c0 <__sglue>
   106ba:	4b258593          	add	a1,a1,1202 # 104b2 <__fp_unlock>
   106be:	4501                	li	a0,0
   106c0:	a009                	j	106c2 <_fwalk_sglue>

00000000000106c2 <_fwalk_sglue>:
   106c2:	715d                	add	sp,sp,-80
   106c4:	f84a                	sd	s2,48(sp)
   106c6:	f44e                	sd	s3,40(sp)
   106c8:	f052                	sd	s4,32(sp)
   106ca:	ec56                	sd	s5,24(sp)
   106cc:	e85a                	sd	s6,16(sp)
   106ce:	e45e                	sd	s7,8(sp)
   106d0:	e062                	sd	s8,0(sp)
   106d2:	e486                	sd	ra,72(sp)
   106d4:	e0a2                	sd	s0,64(sp)
   106d6:	fc26                	sd	s1,56(sp)
   106d8:	8a2a                	mv	s4,a0
   106da:	8b2e                	mv	s6,a1
   106dc:	89b2                	mv	s3,a2
   106de:	4901                	li	s2,0
   106e0:	0b000b93          	li	s7,176
   106e4:	4c05                	li	s8,1
   106e6:	5afd                	li	s5,-1
   106e8:	0089a483          	lw	s1,8(s3)
   106ec:	0109b403          	ld	s0,16(s3)
   106f0:	02905963          	blez	s1,10722 <_fwalk_sglue+0x60>
   106f4:	1482                	sll	s1,s1,0x20
   106f6:	9081                	srl	s1,s1,0x20
   106f8:	037484b3          	mul	s1,s1,s7
   106fc:	94a2                	add	s1,s1,s0
   106fe:	01045783          	lhu	a5,16(s0)
   10702:	00fc7c63          	bgeu	s8,a5,1071a <_fwalk_sglue+0x58>
   10706:	01241783          	lh	a5,18(s0)
   1070a:	85a2                	mv	a1,s0
   1070c:	8552                	mv	a0,s4
   1070e:	01578663          	beq	a5,s5,1071a <_fwalk_sglue+0x58>
   10712:	9b02                	jalr	s6
   10714:	01256933          	or	s2,a0,s2
   10718:	2901                	sext.w	s2,s2
   1071a:	0b040413          	add	s0,s0,176
   1071e:	fe9410e3          	bne	s0,s1,106fe <_fwalk_sglue+0x3c>
   10722:	0009b983          	ld	s3,0(s3)
   10726:	fc0991e3          	bnez	s3,106e8 <_fwalk_sglue+0x26>
   1072a:	60a6                	ld	ra,72(sp)
   1072c:	6406                	ld	s0,64(sp)
   1072e:	74e2                	ld	s1,56(sp)
   10730:	79a2                	ld	s3,40(sp)
   10732:	7a02                	ld	s4,32(sp)
   10734:	6ae2                	ld	s5,24(sp)
   10736:	6b42                	ld	s6,16(sp)
   10738:	6ba2                	ld	s7,8(sp)
   1073a:	6c02                	ld	s8,0(sp)
   1073c:	854a                	mv	a0,s2
   1073e:	7942                	ld	s2,48(sp)
   10740:	6161                	add	sp,sp,80
   10742:	8082                	ret

0000000000010744 <_printf_r>:
   10744:	715d                	add	sp,sp,-80
   10746:	f032                	sd	a2,32(sp)
   10748:	f436                	sd	a3,40(sp)
   1074a:	f83a                	sd	a4,48(sp)
   1074c:	fc3e                	sd	a5,56(sp)
   1074e:	e0c2                	sd	a6,64(sp)
   10750:	e4c6                	sd	a7,72(sp)
   10752:	862e                	mv	a2,a1
   10754:	690c                	ld	a1,16(a0)
   10756:	1014                	add	a3,sp,32
   10758:	ec06                	sd	ra,24(sp)
   1075a:	e436                	sd	a3,8(sp)
   1075c:	599000ef          	jal	114f4 <_vfprintf_r>
   10760:	60e2                	ld	ra,24(sp)
   10762:	6161                	add	sp,sp,80
   10764:	8082                	ret

0000000000010766 <printf>:
   10766:	2201b303          	ld	t1,544(gp) # 1b560 <_impure_ptr>
   1076a:	711d                	add	sp,sp,-96
   1076c:	f832                	sd	a2,48(sp)
   1076e:	fc36                	sd	a3,56(sp)
   10770:	f42e                	sd	a1,40(sp)
   10772:	e0ba                	sd	a4,64(sp)
   10774:	e4be                	sd	a5,72(sp)
   10776:	e8c2                	sd	a6,80(sp)
   10778:	ecc6                	sd	a7,88(sp)
   1077a:	01033583          	ld	a1,16(t1) # 101a6 <print_vreg_content+0x6>
   1077e:	1034                	add	a3,sp,40
   10780:	862a                	mv	a2,a0
   10782:	851a                	mv	a0,t1
   10784:	ec06                	sd	ra,24(sp)
   10786:	e436                	sd	a3,8(sp)
   10788:	56d000ef          	jal	114f4 <_vfprintf_r>
   1078c:	60e2                	ld	ra,24(sp)
   1078e:	6125                	add	sp,sp,96
   10790:	8082                	ret

0000000000010792 <_putchar_r>:
   10792:	6910                	ld	a2,16(a0)
   10794:	5af0306f          	j	14542 <_putc_r>

0000000000010798 <putchar>:
   10798:	2201b783          	ld	a5,544(gp) # 1b560 <_impure_ptr>
   1079c:	85aa                	mv	a1,a0
   1079e:	6b90                	ld	a2,16(a5)
   107a0:	853e                	mv	a0,a5
   107a2:	5a10306f          	j	14542 <_putc_r>

00000000000107a6 <__sread>:
   107a6:	1141                	add	sp,sp,-16
   107a8:	e022                	sd	s0,0(sp)
   107aa:	842e                	mv	s0,a1
   107ac:	01259583          	lh	a1,18(a1)
   107b0:	e406                	sd	ra,8(sp)
   107b2:	1c0000ef          	jal	10972 <_read_r>
   107b6:	00054963          	bltz	a0,107c8 <__sread+0x22>
   107ba:	685c                	ld	a5,144(s0)
   107bc:	60a2                	ld	ra,8(sp)
   107be:	97aa                	add	a5,a5,a0
   107c0:	e85c                	sd	a5,144(s0)
   107c2:	6402                	ld	s0,0(sp)
   107c4:	0141                	add	sp,sp,16
   107c6:	8082                	ret
   107c8:	01045783          	lhu	a5,16(s0)
   107cc:	777d                	lui	a4,0xfffff
   107ce:	177d                	add	a4,a4,-1 # ffffffffffffefff <__BSS_END__+0xfffffffffffe34bf>
   107d0:	8ff9                	and	a5,a5,a4
   107d2:	60a2                	ld	ra,8(sp)
   107d4:	00f41823          	sh	a5,16(s0)
   107d8:	6402                	ld	s0,0(sp)
   107da:	0141                	add	sp,sp,16
   107dc:	8082                	ret

00000000000107de <__seofread>:
   107de:	4501                	li	a0,0
   107e0:	8082                	ret

00000000000107e2 <__swrite>:
   107e2:	01059783          	lh	a5,16(a1)
   107e6:	7179                	add	sp,sp,-48
   107e8:	f022                	sd	s0,32(sp)
   107ea:	ec26                	sd	s1,24(sp)
   107ec:	e84a                	sd	s2,16(sp)
   107ee:	e44e                	sd	s3,8(sp)
   107f0:	f406                	sd	ra,40(sp)
   107f2:	1007f713          	and	a4,a5,256
   107f6:	842e                	mv	s0,a1
   107f8:	84aa                	mv	s1,a0
   107fa:	8932                	mv	s2,a2
   107fc:	89b6                	mv	s3,a3
   107fe:	e315                	bnez	a4,10822 <__swrite+0x40>
   10800:	777d                	lui	a4,0xfffff
   10802:	177d                	add	a4,a4,-1 # ffffffffffffefff <__BSS_END__+0xfffffffffffe34bf>
   10804:	8ff9                	and	a5,a5,a4
   10806:	01241583          	lh	a1,18(s0)
   1080a:	00f41823          	sh	a5,16(s0)
   1080e:	7402                	ld	s0,32(sp)
   10810:	70a2                	ld	ra,40(sp)
   10812:	86ce                	mv	a3,s3
   10814:	864a                	mv	a2,s2
   10816:	69a2                	ld	s3,8(sp)
   10818:	6942                	ld	s2,16(sp)
   1081a:	8526                	mv	a0,s1
   1081c:	64e2                	ld	s1,24(sp)
   1081e:	6145                	add	sp,sp,48
   10820:	a279                	j	109ae <_write_r>
   10822:	01259583          	lh	a1,18(a1)
   10826:	4689                	li	a3,2
   10828:	4601                	li	a2,0
   1082a:	10c000ef          	jal	10936 <_lseek_r>
   1082e:	01041783          	lh	a5,16(s0)
   10832:	b7f9                	j	10800 <__swrite+0x1e>

0000000000010834 <__sseek>:
   10834:	1141                	add	sp,sp,-16
   10836:	e022                	sd	s0,0(sp)
   10838:	842e                	mv	s0,a1
   1083a:	01259583          	lh	a1,18(a1)
   1083e:	e406                	sd	ra,8(sp)
   10840:	0f6000ef          	jal	10936 <_lseek_r>
   10844:	57fd                	li	a5,-1
   10846:	02f50163          	beq	a0,a5,10868 <__sseek+0x34>
   1084a:	01045783          	lhu	a5,16(s0)
   1084e:	6705                	lui	a4,0x1
   10850:	60a2                	ld	ra,8(sp)
   10852:	8fd9                	or	a5,a5,a4
   10854:	0107979b          	sllw	a5,a5,0x10
   10858:	4107d79b          	sraw	a5,a5,0x10
   1085c:	e848                	sd	a0,144(s0)
   1085e:	00f41823          	sh	a5,16(s0)
   10862:	6402                	ld	s0,0(sp)
   10864:	0141                	add	sp,sp,16
   10866:	8082                	ret
   10868:	01045783          	lhu	a5,16(s0)
   1086c:	777d                	lui	a4,0xfffff
   1086e:	177d                	add	a4,a4,-1 # ffffffffffffefff <__BSS_END__+0xfffffffffffe34bf>
   10870:	8ff9                	and	a5,a5,a4
   10872:	0107979b          	sllw	a5,a5,0x10
   10876:	4107d79b          	sraw	a5,a5,0x10
   1087a:	60a2                	ld	ra,8(sp)
   1087c:	00f41823          	sh	a5,16(s0)
   10880:	6402                	ld	s0,0(sp)
   10882:	0141                	add	sp,sp,16
   10884:	8082                	ret

0000000000010886 <__sclose>:
   10886:	01259583          	lh	a1,18(a1)
   1088a:	a009                	j	1088c <_close_r>

000000000001088c <_close_r>:
   1088c:	1101                	add	sp,sp,-32
   1088e:	e822                	sd	s0,16(sp)
   10890:	e426                	sd	s1,8(sp)
   10892:	842a                	mv	s0,a0
   10894:	852e                	mv	a0,a1
   10896:	ec06                	sd	ra,24(sp)
   10898:	2401a023          	sw	zero,576(gp) # 1b580 <errno>
   1089c:	546070ef          	jal	17de2 <_close>
   108a0:	57fd                	li	a5,-1
   108a2:	00f50763          	beq	a0,a5,108b0 <_close_r+0x24>
   108a6:	60e2                	ld	ra,24(sp)
   108a8:	6442                	ld	s0,16(sp)
   108aa:	64a2                	ld	s1,8(sp)
   108ac:	6105                	add	sp,sp,32
   108ae:	8082                	ret
   108b0:	2401a783          	lw	a5,576(gp) # 1b580 <errno>
   108b4:	dbed                	beqz	a5,108a6 <_close_r+0x1a>
   108b6:	60e2                	ld	ra,24(sp)
   108b8:	c01c                	sw	a5,0(s0)
   108ba:	6442                	ld	s0,16(sp)
   108bc:	64a2                	ld	s1,8(sp)
   108be:	6105                	add	sp,sp,32
   108c0:	8082                	ret

00000000000108c2 <_reclaim_reent>:
   108c2:	2201b783          	ld	a5,544(gp) # 1b560 <_impure_ptr>
   108c6:	06a78763          	beq	a5,a0,10934 <_reclaim_reent+0x72>
   108ca:	752c                	ld	a1,104(a0)
   108cc:	7179                	add	sp,sp,-48
   108ce:	ec26                	sd	s1,24(sp)
   108d0:	f406                	sd	ra,40(sp)
   108d2:	84aa                	mv	s1,a0
   108d4:	c99d                	beqz	a1,1090a <_reclaim_reent+0x48>
   108d6:	e84a                	sd	s2,16(sp)
   108d8:	e44e                	sd	s3,8(sp)
   108da:	f022                	sd	s0,32(sp)
   108dc:	4901                	li	s2,0
   108de:	20000993          	li	s3,512
   108e2:	012587b3          	add	a5,a1,s2
   108e6:	6380                	ld	s0,0(a5)
   108e8:	c801                	beqz	s0,108f8 <_reclaim_reent+0x36>
   108ea:	85a2                	mv	a1,s0
   108ec:	6000                	ld	s0,0(s0)
   108ee:	8526                	mv	a0,s1
   108f0:	3ba000ef          	jal	10caa <_free_r>
   108f4:	f87d                	bnez	s0,108ea <_reclaim_reent+0x28>
   108f6:	74ac                	ld	a1,104(s1)
   108f8:	0921                	add	s2,s2,8
   108fa:	ff3914e3          	bne	s2,s3,108e2 <_reclaim_reent+0x20>
   108fe:	8526                	mv	a0,s1
   10900:	3aa000ef          	jal	10caa <_free_r>
   10904:	7402                	ld	s0,32(sp)
   10906:	6942                	ld	s2,16(sp)
   10908:	69a2                	ld	s3,8(sp)
   1090a:	68ac                	ld	a1,80(s1)
   1090c:	c581                	beqz	a1,10914 <_reclaim_reent+0x52>
   1090e:	8526                	mv	a0,s1
   10910:	39a000ef          	jal	10caa <_free_r>
   10914:	7cac                	ld	a1,120(s1)
   10916:	c581                	beqz	a1,1091e <_reclaim_reent+0x5c>
   10918:	8526                	mv	a0,s1
   1091a:	390000ef          	jal	10caa <_free_r>
   1091e:	64bc                	ld	a5,72(s1)
   10920:	c791                	beqz	a5,1092c <_reclaim_reent+0x6a>
   10922:	70a2                	ld	ra,40(sp)
   10924:	8526                	mv	a0,s1
   10926:	64e2                	ld	s1,24(sp)
   10928:	6145                	add	sp,sp,48
   1092a:	8782                	jr	a5
   1092c:	70a2                	ld	ra,40(sp)
   1092e:	64e2                	ld	s1,24(sp)
   10930:	6145                	add	sp,sp,48
   10932:	8082                	ret
   10934:	8082                	ret

0000000000010936 <_lseek_r>:
   10936:	1101                	add	sp,sp,-32
   10938:	872e                	mv	a4,a1
   1093a:	e822                	sd	s0,16(sp)
   1093c:	e426                	sd	s1,8(sp)
   1093e:	85b2                	mv	a1,a2
   10940:	842a                	mv	s0,a0
   10942:	8636                	mv	a2,a3
   10944:	853a                	mv	a0,a4
   10946:	ec06                	sd	ra,24(sp)
   10948:	2401a023          	sw	zero,576(gp) # 1b580 <errno>
   1094c:	562070ef          	jal	17eae <_lseek>
   10950:	57fd                	li	a5,-1
   10952:	00f50763          	beq	a0,a5,10960 <_lseek_r+0x2a>
   10956:	60e2                	ld	ra,24(sp)
   10958:	6442                	ld	s0,16(sp)
   1095a:	64a2                	ld	s1,8(sp)
   1095c:	6105                	add	sp,sp,32
   1095e:	8082                	ret
   10960:	2401a783          	lw	a5,576(gp) # 1b580 <errno>
   10964:	dbed                	beqz	a5,10956 <_lseek_r+0x20>
   10966:	60e2                	ld	ra,24(sp)
   10968:	c01c                	sw	a5,0(s0)
   1096a:	6442                	ld	s0,16(sp)
   1096c:	64a2                	ld	s1,8(sp)
   1096e:	6105                	add	sp,sp,32
   10970:	8082                	ret

0000000000010972 <_read_r>:
   10972:	1101                	add	sp,sp,-32
   10974:	872e                	mv	a4,a1
   10976:	e822                	sd	s0,16(sp)
   10978:	e426                	sd	s1,8(sp)
   1097a:	85b2                	mv	a1,a2
   1097c:	842a                	mv	s0,a0
   1097e:	8636                	mv	a2,a3
   10980:	853a                	mv	a0,a4
   10982:	ec06                	sd	ra,24(sp)
   10984:	2401a023          	sw	zero,576(gp) # 1b580 <errno>
   10988:	552070ef          	jal	17eda <_read>
   1098c:	57fd                	li	a5,-1
   1098e:	00f50763          	beq	a0,a5,1099c <_read_r+0x2a>
   10992:	60e2                	ld	ra,24(sp)
   10994:	6442                	ld	s0,16(sp)
   10996:	64a2                	ld	s1,8(sp)
   10998:	6105                	add	sp,sp,32
   1099a:	8082                	ret
   1099c:	2401a783          	lw	a5,576(gp) # 1b580 <errno>
   109a0:	dbed                	beqz	a5,10992 <_read_r+0x20>
   109a2:	60e2                	ld	ra,24(sp)
   109a4:	c01c                	sw	a5,0(s0)
   109a6:	6442                	ld	s0,16(sp)
   109a8:	64a2                	ld	s1,8(sp)
   109aa:	6105                	add	sp,sp,32
   109ac:	8082                	ret

00000000000109ae <_write_r>:
   109ae:	1101                	add	sp,sp,-32
   109b0:	872e                	mv	a4,a1
   109b2:	e822                	sd	s0,16(sp)
   109b4:	e426                	sd	s1,8(sp)
   109b6:	85b2                	mv	a1,a2
   109b8:	842a                	mv	s0,a0
   109ba:	8636                	mv	a2,a3
   109bc:	853a                	mv	a0,a4
   109be:	ec06                	sd	ra,24(sp)
   109c0:	2401a023          	sw	zero,576(gp) # 1b580 <errno>
   109c4:	596070ef          	jal	17f5a <_write>
   109c8:	57fd                	li	a5,-1
   109ca:	00f50763          	beq	a0,a5,109d8 <_write_r+0x2a>
   109ce:	60e2                	ld	ra,24(sp)
   109d0:	6442                	ld	s0,16(sp)
   109d2:	64a2                	ld	s1,8(sp)
   109d4:	6105                	add	sp,sp,32
   109d6:	8082                	ret
   109d8:	2401a783          	lw	a5,576(gp) # 1b580 <errno>
   109dc:	dbed                	beqz	a5,109ce <_write_r+0x20>
   109de:	60e2                	ld	ra,24(sp)
   109e0:	c01c                	sw	a5,0(s0)
   109e2:	6442                	ld	s0,16(sp)
   109e4:	64a2                	ld	s1,8(sp)
   109e6:	6105                	add	sp,sp,32
   109e8:	8082                	ret

00000000000109ea <__libc_init_array>:
   109ea:	1101                	add	sp,sp,-32
   109ec:	e822                	sd	s0,16(sp)
   109ee:	67ed                	lui	a5,0x1b
   109f0:	646d                	lui	s0,0x1b
   109f2:	e04a                	sd	s2,0(sp)
   109f4:	9a478793          	add	a5,a5,-1628 # 1a9a4 <__preinit_array_end>
   109f8:	9a440713          	add	a4,s0,-1628 # 1a9a4 <__preinit_array_end>
   109fc:	ec06                	sd	ra,24(sp)
   109fe:	e426                	sd	s1,8(sp)
   10a00:	40e78933          	sub	s2,a5,a4
   10a04:	00e78d63          	beq	a5,a4,10a1e <__libc_init_array+0x34>
   10a08:	40395913          	sra	s2,s2,0x3
   10a0c:	9a440413          	add	s0,s0,-1628
   10a10:	4481                	li	s1,0
   10a12:	601c                	ld	a5,0(s0)
   10a14:	0485                	add	s1,s1,1
   10a16:	0421                	add	s0,s0,8
   10a18:	9782                	jalr	a5
   10a1a:	ff24ece3          	bltu	s1,s2,10a12 <__libc_init_array+0x28>
   10a1e:	646d                	lui	s0,0x1b
   10a20:	67ed                	lui	a5,0x1b
   10a22:	9b878793          	add	a5,a5,-1608 # 1a9b8 <__do_global_dtors_aux_fini_array_entry>
   10a26:	9a840713          	add	a4,s0,-1624 # 1a9a8 <__init_array_start>
   10a2a:	40e78933          	sub	s2,a5,a4
   10a2e:	40395913          	sra	s2,s2,0x3
   10a32:	00e78b63          	beq	a5,a4,10a48 <__libc_init_array+0x5e>
   10a36:	9a840413          	add	s0,s0,-1624
   10a3a:	4481                	li	s1,0
   10a3c:	601c                	ld	a5,0(s0)
   10a3e:	0485                	add	s1,s1,1
   10a40:	0421                	add	s0,s0,8
   10a42:	9782                	jalr	a5
   10a44:	ff24ece3          	bltu	s1,s2,10a3c <__libc_init_array+0x52>
   10a48:	60e2                	ld	ra,24(sp)
   10a4a:	6442                	ld	s0,16(sp)
   10a4c:	64a2                	ld	s1,8(sp)
   10a4e:	6902                	ld	s2,0(sp)
   10a50:	6105                	add	sp,sp,32
   10a52:	8082                	ret

0000000000010a54 <memset>:
   10a54:	433d                	li	t1,15
   10a56:	872a                	mv	a4,a0
   10a58:	02c37163          	bgeu	t1,a2,10a7a <memset+0x26>
   10a5c:	00f77793          	and	a5,a4,15
   10a60:	e3c1                	bnez	a5,10ae0 <memset+0x8c>
   10a62:	e1bd                	bnez	a1,10ac8 <memset+0x74>
   10a64:	ff067693          	and	a3,a2,-16
   10a68:	8a3d                	and	a2,a2,15
   10a6a:	96ba                	add	a3,a3,a4
   10a6c:	e30c                	sd	a1,0(a4)
   10a6e:	e70c                	sd	a1,8(a4)
   10a70:	0741                	add	a4,a4,16
   10a72:	fed76de3          	bltu	a4,a3,10a6c <memset+0x18>
   10a76:	e211                	bnez	a2,10a7a <memset+0x26>
   10a78:	8082                	ret
   10a7a:	40c306b3          	sub	a3,t1,a2
   10a7e:	068a                	sll	a3,a3,0x2
   10a80:	00000297          	auipc	t0,0x0
   10a84:	9696                	add	a3,a3,t0
   10a86:	00a68067          	jr	10(a3)
   10a8a:	00b70723          	sb	a1,14(a4)
   10a8e:	00b706a3          	sb	a1,13(a4)
   10a92:	00b70623          	sb	a1,12(a4)
   10a96:	00b705a3          	sb	a1,11(a4)
   10a9a:	00b70523          	sb	a1,10(a4)
   10a9e:	00b704a3          	sb	a1,9(a4)
   10aa2:	00b70423          	sb	a1,8(a4)
   10aa6:	00b703a3          	sb	a1,7(a4)
   10aaa:	00b70323          	sb	a1,6(a4)
   10aae:	00b702a3          	sb	a1,5(a4)
   10ab2:	00b70223          	sb	a1,4(a4)
   10ab6:	00b701a3          	sb	a1,3(a4)
   10aba:	00b70123          	sb	a1,2(a4)
   10abe:	00b700a3          	sb	a1,1(a4)
   10ac2:	00b70023          	sb	a1,0(a4)
   10ac6:	8082                	ret
   10ac8:	0ff5f593          	zext.b	a1,a1
   10acc:	00859693          	sll	a3,a1,0x8
   10ad0:	8dd5                	or	a1,a1,a3
   10ad2:	01059693          	sll	a3,a1,0x10
   10ad6:	8dd5                	or	a1,a1,a3
   10ad8:	02059693          	sll	a3,a1,0x20
   10adc:	8dd5                	or	a1,a1,a3
   10ade:	b759                	j	10a64 <memset+0x10>
   10ae0:	00279693          	sll	a3,a5,0x2
   10ae4:	00000297          	auipc	t0,0x0
   10ae8:	9696                	add	a3,a3,t0
   10aea:	8286                	mv	t0,ra
   10aec:	fa2680e7          	jalr	-94(a3)
   10af0:	8096                	mv	ra,t0
   10af2:	17c1                	add	a5,a5,-16
   10af4:	8f1d                	sub	a4,a4,a5
   10af6:	963e                	add	a2,a2,a5
   10af8:	f8c371e3          	bgeu	t1,a2,10a7a <memset+0x26>
   10afc:	b79d                	j	10a62 <memset+0xe>

0000000000010afe <__call_exitprocs>:
   10afe:	715d                	add	sp,sp,-80
   10b00:	f052                	sd	s4,32(sp)
   10b02:	f84a                	sd	s2,48(sp)
   10b04:	2481b903          	ld	s2,584(gp) # 1b588 <__atexit>
   10b08:	e486                	sd	ra,72(sp)
   10b0a:	06090d63          	beqz	s2,10b84 <__call_exitprocs+0x86>
   10b0e:	f44e                	sd	s3,40(sp)
   10b10:	ec56                	sd	s5,24(sp)
   10b12:	e85a                	sd	s6,16(sp)
   10b14:	e45e                	sd	s7,8(sp)
   10b16:	e0a2                	sd	s0,64(sp)
   10b18:	fc26                	sd	s1,56(sp)
   10b1a:	e062                	sd	s8,0(sp)
   10b1c:	8b2a                	mv	s6,a0
   10b1e:	8bae                	mv	s7,a1
   10b20:	59fd                	li	s3,-1
   10b22:	4a85                	li	s5,1
   10b24:	00892483          	lw	s1,8(s2)
   10b28:	fff4841b          	addw	s0,s1,-1
   10b2c:	04044563          	bltz	s0,10b76 <__call_exitprocs+0x78>
   10b30:	048e                	sll	s1,s1,0x3
   10b32:	94ca                	add	s1,s1,s2
   10b34:	040b9d63          	bnez	s7,10b8e <__call_exitprocs+0x90>
   10b38:	00892783          	lw	a5,8(s2)
   10b3c:	6498                	ld	a4,8(s1)
   10b3e:	37fd                	addw	a5,a5,-1
   10b40:	08878263          	beq	a5,s0,10bc4 <__call_exitprocs+0xc6>
   10b44:	0004b423          	sd	zero,8(s1)
   10b48:	c31d                	beqz	a4,10b6e <__call_exitprocs+0x70>
   10b4a:	31092783          	lw	a5,784(s2)
   10b4e:	008a96bb          	sllw	a3,s5,s0
   10b52:	00892c03          	lw	s8,8(s2)
   10b56:	8ff5                	and	a5,a5,a3
   10b58:	2781                	sext.w	a5,a5
   10b5a:	e3b9                	bnez	a5,10ba0 <__call_exitprocs+0xa2>
   10b5c:	9702                	jalr	a4
   10b5e:	00892703          	lw	a4,8(s2)
   10b62:	2481b783          	ld	a5,584(gp) # 1b588 <__atexit>
   10b66:	05871c63          	bne	a4,s8,10bbe <__call_exitprocs+0xc0>
   10b6a:	05279a63          	bne	a5,s2,10bbe <__call_exitprocs+0xc0>
   10b6e:	347d                	addw	s0,s0,-1
   10b70:	14e1                	add	s1,s1,-8
   10b72:	fd3411e3          	bne	s0,s3,10b34 <__call_exitprocs+0x36>
   10b76:	6406                	ld	s0,64(sp)
   10b78:	74e2                	ld	s1,56(sp)
   10b7a:	79a2                	ld	s3,40(sp)
   10b7c:	6ae2                	ld	s5,24(sp)
   10b7e:	6b42                	ld	s6,16(sp)
   10b80:	6ba2                	ld	s7,8(sp)
   10b82:	6c02                	ld	s8,0(sp)
   10b84:	60a6                	ld	ra,72(sp)
   10b86:	7942                	ld	s2,48(sp)
   10b88:	7a02                	ld	s4,32(sp)
   10b8a:	6161                	add	sp,sp,80
   10b8c:	8082                	ret
   10b8e:	2084b783          	ld	a5,520(s1)
   10b92:	fb7783e3          	beq	a5,s7,10b38 <__call_exitprocs+0x3a>
   10b96:	347d                	addw	s0,s0,-1
   10b98:	14e1                	add	s1,s1,-8
   10b9a:	ff341ae3          	bne	s0,s3,10b8e <__call_exitprocs+0x90>
   10b9e:	bfe1                	j	10b76 <__call_exitprocs+0x78>
   10ba0:	31492783          	lw	a5,788(s2)
   10ba4:	1084b583          	ld	a1,264(s1)
   10ba8:	8ff5                	and	a5,a5,a3
   10baa:	2781                	sext.w	a5,a5
   10bac:	ef99                	bnez	a5,10bca <__call_exitprocs+0xcc>
   10bae:	855a                	mv	a0,s6
   10bb0:	9702                	jalr	a4
   10bb2:	00892703          	lw	a4,8(s2)
   10bb6:	2481b783          	ld	a5,584(gp) # 1b588 <__atexit>
   10bba:	fb8708e3          	beq	a4,s8,10b6a <__call_exitprocs+0x6c>
   10bbe:	dfc5                	beqz	a5,10b76 <__call_exitprocs+0x78>
   10bc0:	893e                	mv	s2,a5
   10bc2:	b78d                	j	10b24 <__call_exitprocs+0x26>
   10bc4:	00892423          	sw	s0,8(s2)
   10bc8:	b741                	j	10b48 <__call_exitprocs+0x4a>
   10bca:	852e                	mv	a0,a1
   10bcc:	9702                	jalr	a4
   10bce:	bf41                	j	10b5e <__call_exitprocs+0x60>

0000000000010bd0 <atexit>:
   10bd0:	85aa                	mv	a1,a0
   10bd2:	4681                	li	a3,0
   10bd4:	4601                	li	a2,0
   10bd6:	4501                	li	a0,0
   10bd8:	3e00406f          	j	14fb8 <__register_exitproc>

0000000000010bdc <_malloc_trim_r>:
   10bdc:	7179                	add	sp,sp,-48
   10bde:	e44e                	sd	s3,8(sp)
   10be0:	69ed                	lui	s3,0x1b
   10be2:	f022                	sd	s0,32(sp)
   10be4:	ec26                	sd	s1,24(sp)
   10be6:	e84a                	sd	s2,16(sp)
   10be8:	e052                	sd	s4,0(sp)
   10bea:	f406                	sd	ra,40(sp)
   10bec:	8a2e                	mv	s4,a1
   10bee:	892a                	mv	s2,a0
   10bf0:	b3098993          	add	s3,s3,-1232 # 1ab30 <__malloc_av_>
   10bf4:	0fd000ef          	jal	114f0 <__malloc_lock>
   10bf8:	0109b703          	ld	a4,16(s3)
   10bfc:	6785                	lui	a5,0x1
   10bfe:	fdf78793          	add	a5,a5,-33 # fdf <exit-0xf109>
   10c02:	6704                	ld	s1,8(a4)
   10c04:	6705                	lui	a4,0x1
   10c06:	98f1                	and	s1,s1,-4
   10c08:	00f48433          	add	s0,s1,a5
   10c0c:	41440433          	sub	s0,s0,s4
   10c10:	8031                	srl	s0,s0,0xc
   10c12:	147d                	add	s0,s0,-1
   10c14:	0432                	sll	s0,s0,0xc
   10c16:	00e44b63          	blt	s0,a4,10c2c <_malloc_trim_r+0x50>
   10c1a:	4581                	li	a1,0
   10c1c:	854a                	mv	a0,s2
   10c1e:	6dd030ef          	jal	14afa <_sbrk_r>
   10c22:	0109b783          	ld	a5,16(s3)
   10c26:	97a6                	add	a5,a5,s1
   10c28:	00f50e63          	beq	a0,a5,10c44 <_malloc_trim_r+0x68>
   10c2c:	854a                	mv	a0,s2
   10c2e:	0c5000ef          	jal	114f2 <__malloc_unlock>
   10c32:	70a2                	ld	ra,40(sp)
   10c34:	7402                	ld	s0,32(sp)
   10c36:	64e2                	ld	s1,24(sp)
   10c38:	6942                	ld	s2,16(sp)
   10c3a:	69a2                	ld	s3,8(sp)
   10c3c:	6a02                	ld	s4,0(sp)
   10c3e:	4501                	li	a0,0
   10c40:	6145                	add	sp,sp,48
   10c42:	8082                	ret
   10c44:	408005b3          	neg	a1,s0
   10c48:	854a                	mv	a0,s2
   10c4a:	6b1030ef          	jal	14afa <_sbrk_r>
   10c4e:	57fd                	li	a5,-1
   10c50:	02f50963          	beq	a0,a5,10c82 <_malloc_trim_r+0xa6>
   10c54:	4c018793          	add	a5,gp,1216 # 1b800 <__malloc_current_mallinfo>
   10c58:	4398                	lw	a4,0(a5)
   10c5a:	0109b683          	ld	a3,16(s3)
   10c5e:	8c81                	sub	s1,s1,s0
   10c60:	0014e493          	or	s1,s1,1
   10c64:	9f01                	subw	a4,a4,s0
   10c66:	854a                	mv	a0,s2
   10c68:	e684                	sd	s1,8(a3)
   10c6a:	c398                	sw	a4,0(a5)
   10c6c:	087000ef          	jal	114f2 <__malloc_unlock>
   10c70:	70a2                	ld	ra,40(sp)
   10c72:	7402                	ld	s0,32(sp)
   10c74:	64e2                	ld	s1,24(sp)
   10c76:	6942                	ld	s2,16(sp)
   10c78:	69a2                	ld	s3,8(sp)
   10c7a:	6a02                	ld	s4,0(sp)
   10c7c:	4505                	li	a0,1
   10c7e:	6145                	add	sp,sp,48
   10c80:	8082                	ret
   10c82:	4581                	li	a1,0
   10c84:	854a                	mv	a0,s2
   10c86:	675030ef          	jal	14afa <_sbrk_r>
   10c8a:	0109b703          	ld	a4,16(s3)
   10c8e:	46fd                	li	a3,31
   10c90:	40e507b3          	sub	a5,a0,a4
   10c94:	f8f6dce3          	bge	a3,a5,10c2c <_malloc_trim_r+0x50>
   10c98:	2281b683          	ld	a3,552(gp) # 1b568 <__malloc_sbrk_base>
   10c9c:	0017e793          	or	a5,a5,1
   10ca0:	e71c                	sd	a5,8(a4)
   10ca2:	8d15                	sub	a0,a0,a3
   10ca4:	4ca1a023          	sw	a0,1216(gp) # 1b800 <__malloc_current_mallinfo>
   10ca8:	b751                	j	10c2c <_malloc_trim_r+0x50>

0000000000010caa <_free_r>:
   10caa:	12058163          	beqz	a1,10dcc <_free_r+0x122>
   10cae:	1101                	add	sp,sp,-32
   10cb0:	e822                	sd	s0,16(sp)
   10cb2:	e426                	sd	s1,8(sp)
   10cb4:	842e                	mv	s0,a1
   10cb6:	84aa                	mv	s1,a0
   10cb8:	ec06                	sd	ra,24(sp)
   10cba:	037000ef          	jal	114f0 <__malloc_lock>
   10cbe:	ff843503          	ld	a0,-8(s0)
   10cc2:	ff040713          	add	a4,s0,-16
   10cc6:	65ed                	lui	a1,0x1b
   10cc8:	ffe57793          	and	a5,a0,-2
   10ccc:	00f70633          	add	a2,a4,a5
   10cd0:	b3058593          	add	a1,a1,-1232 # 1ab30 <__malloc_av_>
   10cd4:	6614                	ld	a3,8(a2)
   10cd6:	0105b803          	ld	a6,16(a1)
   10cda:	9af1                	and	a3,a3,-4
   10cdc:	12c80a63          	beq	a6,a2,10e10 <_free_r+0x166>
   10ce0:	e614                	sd	a3,8(a2)
   10ce2:	8905                	and	a0,a0,1
   10ce4:	00d60833          	add	a6,a2,a3
   10ce8:	ed3d                	bnez	a0,10d66 <_free_r+0xbc>
   10cea:	ff043303          	ld	t1,-16(s0)
   10cee:	00883803          	ld	a6,8(a6)
   10cf2:	656d                	lui	a0,0x1b
   10cf4:	40670733          	sub	a4,a4,t1
   10cf8:	01073883          	ld	a7,16(a4) # 1010 <exit-0xf0d8>
   10cfc:	b4050513          	add	a0,a0,-1216 # 1ab40 <__malloc_av_+0x10>
   10d00:	979a                	add	a5,a5,t1
   10d02:	00187813          	and	a6,a6,1
   10d06:	0ea88863          	beq	a7,a0,10df6 <_free_r+0x14c>
   10d0a:	01873303          	ld	t1,24(a4)
   10d0e:	0068bc23          	sd	t1,24(a7)
   10d12:	01133823          	sd	a7,16(t1)
   10d16:	12080663          	beqz	a6,10e42 <_free_r+0x198>
   10d1a:	0017e693          	or	a3,a5,1
   10d1e:	e714                	sd	a3,8(a4)
   10d20:	e21c                	sd	a5,0(a2)
   10d22:	1ff00693          	li	a3,511
   10d26:	04f6ed63          	bltu	a3,a5,10d80 <_free_r+0xd6>
   10d2a:	838d                	srl	a5,a5,0x3
   10d2c:	0017869b          	addw	a3,a5,1
   10d30:	0016969b          	sllw	a3,a3,0x1
   10d34:	068e                	sll	a3,a3,0x3
   10d36:	0085b803          	ld	a6,8(a1)
   10d3a:	96ae                	add	a3,a3,a1
   10d3c:	6288                	ld	a0,0(a3)
   10d3e:	4027d61b          	sraw	a2,a5,0x2
   10d42:	4785                	li	a5,1
   10d44:	00c797b3          	sll	a5,a5,a2
   10d48:	0107e7b3          	or	a5,a5,a6
   10d4c:	ff068613          	add	a2,a3,-16
   10d50:	ef10                	sd	a2,24(a4)
   10d52:	eb08                	sd	a0,16(a4)
   10d54:	e59c                	sd	a5,8(a1)
   10d56:	e298                	sd	a4,0(a3)
   10d58:	ed18                	sd	a4,24(a0)
   10d5a:	6442                	ld	s0,16(sp)
   10d5c:	60e2                	ld	ra,24(sp)
   10d5e:	8526                	mv	a0,s1
   10d60:	64a2                	ld	s1,8(sp)
   10d62:	6105                	add	sp,sp,32
   10d64:	a779                	j	114f2 <__malloc_unlock>
   10d66:	00883503          	ld	a0,8(a6)
   10d6a:	8905                	and	a0,a0,1
   10d6c:	c12d                	beqz	a0,10dce <_free_r+0x124>
   10d6e:	0017e693          	or	a3,a5,1
   10d72:	fed43c23          	sd	a3,-8(s0)
   10d76:	e21c                	sd	a5,0(a2)
   10d78:	1ff00693          	li	a3,511
   10d7c:	faf6f7e3          	bgeu	a3,a5,10d2a <_free_r+0x80>
   10d80:	0097d693          	srl	a3,a5,0x9
   10d84:	4611                	li	a2,4
   10d86:	0cd66063          	bltu	a2,a3,10e46 <_free_r+0x19c>
   10d8a:	0067d693          	srl	a3,a5,0x6
   10d8e:	0396851b          	addw	a0,a3,57
   10d92:	0015151b          	sllw	a0,a0,0x1
   10d96:	0386861b          	addw	a2,a3,56
   10d9a:	050e                	sll	a0,a0,0x3
   10d9c:	952e                	add	a0,a0,a1
   10d9e:	6114                	ld	a3,0(a0)
   10da0:	1541                	add	a0,a0,-16
   10da2:	00d51663          	bne	a0,a3,10dae <_free_r+0x104>
   10da6:	a0dd                	j	10e8c <_free_r+0x1e2>
   10da8:	6a94                	ld	a3,16(a3)
   10daa:	00d50663          	beq	a0,a3,10db6 <_free_r+0x10c>
   10dae:	6690                	ld	a2,8(a3)
   10db0:	9a71                	and	a2,a2,-4
   10db2:	fec7ebe3          	bltu	a5,a2,10da8 <_free_r+0xfe>
   10db6:	6e88                	ld	a0,24(a3)
   10db8:	ef08                	sd	a0,24(a4)
   10dba:	eb14                	sd	a3,16(a4)
   10dbc:	6442                	ld	s0,16(sp)
   10dbe:	e918                	sd	a4,16(a0)
   10dc0:	60e2                	ld	ra,24(sp)
   10dc2:	8526                	mv	a0,s1
   10dc4:	64a2                	ld	s1,8(sp)
   10dc6:	ee98                	sd	a4,24(a3)
   10dc8:	6105                	add	sp,sp,32
   10dca:	a725                	j	114f2 <__malloc_unlock>
   10dcc:	8082                	ret
   10dce:	656d                	lui	a0,0x1b
   10dd0:	97b6                	add	a5,a5,a3
   10dd2:	b4050513          	add	a0,a0,-1216 # 1ab40 <__malloc_av_+0x10>
   10dd6:	6a14                	ld	a3,16(a2)
   10dd8:	0aa68063          	beq	a3,a0,10e78 <_free_r+0x1ce>
   10ddc:	01863803          	ld	a6,24(a2)
   10de0:	0017e513          	or	a0,a5,1
   10de4:	00f70633          	add	a2,a4,a5
   10de8:	0106bc23          	sd	a6,24(a3)
   10dec:	00d83823          	sd	a3,16(a6)
   10df0:	e708                	sd	a0,8(a4)
   10df2:	e21c                	sd	a5,0(a2)
   10df4:	b73d                	j	10d22 <_free_r+0x78>
   10df6:	0e081763          	bnez	a6,10ee4 <_free_r+0x23a>
   10dfa:	6a0c                	ld	a1,16(a2)
   10dfc:	6e10                	ld	a2,24(a2)
   10dfe:	96be                	add	a3,a3,a5
   10e00:	0016e793          	or	a5,a3,1
   10e04:	ed90                	sd	a2,24(a1)
   10e06:	ea0c                	sd	a1,16(a2)
   10e08:	e71c                	sd	a5,8(a4)
   10e0a:	9736                	add	a4,a4,a3
   10e0c:	e314                	sd	a3,0(a4)
   10e0e:	b7b1                	j	10d5a <_free_r+0xb0>
   10e10:	8905                	and	a0,a0,1
   10e12:	96be                	add	a3,a3,a5
   10e14:	e909                	bnez	a0,10e26 <_free_r+0x17c>
   10e16:	ff043503          	ld	a0,-16(s0)
   10e1a:	8f09                	sub	a4,a4,a0
   10e1c:	6f1c                	ld	a5,24(a4)
   10e1e:	6b10                	ld	a2,16(a4)
   10e20:	96aa                	add	a3,a3,a0
   10e22:	ee1c                	sd	a5,24(a2)
   10e24:	eb90                	sd	a2,16(a5)
   10e26:	0016e613          	or	a2,a3,1
   10e2a:	2301b783          	ld	a5,560(gp) # 1b570 <__malloc_trim_threshold>
   10e2e:	e710                	sd	a2,8(a4)
   10e30:	e998                	sd	a4,16(a1)
   10e32:	f2f6e4e3          	bltu	a3,a5,10d5a <_free_r+0xb0>
   10e36:	2601b583          	ld	a1,608(gp) # 1b5a0 <__malloc_top_pad>
   10e3a:	8526                	mv	a0,s1
   10e3c:	da1ff0ef          	jal	10bdc <_malloc_trim_r>
   10e40:	bf29                	j	10d5a <_free_r+0xb0>
   10e42:	97b6                	add	a5,a5,a3
   10e44:	bf49                	j	10dd6 <_free_r+0x12c>
   10e46:	4651                	li	a2,20
   10e48:	02d67063          	bgeu	a2,a3,10e68 <_free_r+0x1be>
   10e4c:	05400613          	li	a2,84
   10e50:	04d66963          	bltu	a2,a3,10ea2 <_free_r+0x1f8>
   10e54:	00c7d693          	srl	a3,a5,0xc
   10e58:	06f6851b          	addw	a0,a3,111
   10e5c:	0015151b          	sllw	a0,a0,0x1
   10e60:	06e6861b          	addw	a2,a3,110
   10e64:	050e                	sll	a0,a0,0x3
   10e66:	bf1d                	j	10d9c <_free_r+0xf2>
   10e68:	05c6851b          	addw	a0,a3,92
   10e6c:	0015151b          	sllw	a0,a0,0x1
   10e70:	05b6861b          	addw	a2,a3,91
   10e74:	050e                	sll	a0,a0,0x3
   10e76:	b71d                	j	10d9c <_free_r+0xf2>
   10e78:	f598                	sd	a4,40(a1)
   10e7a:	f198                	sd	a4,32(a1)
   10e7c:	0017e693          	or	a3,a5,1
   10e80:	ef08                	sd	a0,24(a4)
   10e82:	eb08                	sd	a0,16(a4)
   10e84:	e714                	sd	a3,8(a4)
   10e86:	973e                	add	a4,a4,a5
   10e88:	e31c                	sd	a5,0(a4)
   10e8a:	bdc1                	j	10d5a <_free_r+0xb0>
   10e8c:	0085b803          	ld	a6,8(a1)
   10e90:	4026561b          	sraw	a2,a2,0x2
   10e94:	4785                	li	a5,1
   10e96:	00c797b3          	sll	a5,a5,a2
   10e9a:	0107e7b3          	or	a5,a5,a6
   10e9e:	e59c                	sd	a5,8(a1)
   10ea0:	bf21                	j	10db8 <_free_r+0x10e>
   10ea2:	15400613          	li	a2,340
   10ea6:	00d66c63          	bltu	a2,a3,10ebe <_free_r+0x214>
   10eaa:	00f7d693          	srl	a3,a5,0xf
   10eae:	0786851b          	addw	a0,a3,120
   10eb2:	0015151b          	sllw	a0,a0,0x1
   10eb6:	0776861b          	addw	a2,a3,119
   10eba:	050e                	sll	a0,a0,0x3
   10ebc:	b5c5                	j	10d9c <_free_r+0xf2>
   10ebe:	55400613          	li	a2,1364
   10ec2:	00d66c63          	bltu	a2,a3,10eda <_free_r+0x230>
   10ec6:	0127d693          	srl	a3,a5,0x12
   10eca:	07d6851b          	addw	a0,a3,125
   10ece:	0015151b          	sllw	a0,a0,0x1
   10ed2:	07c6861b          	addw	a2,a3,124
   10ed6:	050e                	sll	a0,a0,0x3
   10ed8:	b5d1                	j	10d9c <_free_r+0xf2>
   10eda:	7f000513          	li	a0,2032
   10ede:	07e00613          	li	a2,126
   10ee2:	bd6d                	j	10d9c <_free_r+0xf2>
   10ee4:	0017e693          	or	a3,a5,1
   10ee8:	e714                	sd	a3,8(a4)
   10eea:	e21c                	sd	a5,0(a2)
   10eec:	b5bd                	j	10d5a <_free_r+0xb0>

0000000000010eee <_malloc_r>:
   10eee:	711d                	add	sp,sp,-96
   10ef0:	e4a6                	sd	s1,72(sp)
   10ef2:	e0ca                	sd	s2,64(sp)
   10ef4:	ec86                	sd	ra,88(sp)
   10ef6:	e8a2                	sd	s0,80(sp)
   10ef8:	fc4e                	sd	s3,56(sp)
   10efa:	01758493          	add	s1,a1,23
   10efe:	02e00793          	li	a5,46
   10f02:	892a                	mv	s2,a0
   10f04:	0497ed63          	bltu	a5,s1,10f5e <_malloc_r+0x70>
   10f08:	02000793          	li	a5,32
   10f0c:	18b7e963          	bltu	a5,a1,1109e <_malloc_r+0x1b0>
   10f10:	5e0000ef          	jal	114f0 <__malloc_lock>
   10f14:	05000793          	li	a5,80
   10f18:	4591                	li	a1,4
   10f1a:	02000493          	li	s1,32
   10f1e:	69ed                	lui	s3,0x1b
   10f20:	b3098993          	add	s3,s3,-1232 # 1ab30 <__malloc_av_>
   10f24:	97ce                	add	a5,a5,s3
   10f26:	6780                	ld	s0,8(a5)
   10f28:	ff078713          	add	a4,a5,-16
   10f2c:	26e40d63          	beq	s0,a4,111a6 <_malloc_r+0x2b8>
   10f30:	641c                	ld	a5,8(s0)
   10f32:	6c14                	ld	a3,24(s0)
   10f34:	6810                	ld	a2,16(s0)
   10f36:	9bf1                	and	a5,a5,-4
   10f38:	97a2                	add	a5,a5,s0
   10f3a:	6798                	ld	a4,8(a5)
   10f3c:	ee14                	sd	a3,24(a2)
   10f3e:	ea90                	sd	a2,16(a3)
   10f40:	00176713          	or	a4,a4,1
   10f44:	854a                	mv	a0,s2
   10f46:	e798                	sd	a4,8(a5)
   10f48:	5aa000ef          	jal	114f2 <__malloc_unlock>
   10f4c:	01040513          	add	a0,s0,16
   10f50:	60e6                	ld	ra,88(sp)
   10f52:	6446                	ld	s0,80(sp)
   10f54:	64a6                	ld	s1,72(sp)
   10f56:	6906                	ld	s2,64(sp)
   10f58:	79e2                	ld	s3,56(sp)
   10f5a:	6125                	add	sp,sp,96
   10f5c:	8082                	ret
   10f5e:	800007b7          	lui	a5,0x80000
   10f62:	98c1                	and	s1,s1,-16
   10f64:	fff7c793          	not	a5,a5
   10f68:	1297eb63          	bltu	a5,s1,1109e <_malloc_r+0x1b0>
   10f6c:	12b4e963          	bltu	s1,a1,1109e <_malloc_r+0x1b0>
   10f70:	580000ef          	jal	114f0 <__malloc_lock>
   10f74:	1f700793          	li	a5,503
   10f78:	3297f263          	bgeu	a5,s1,1129c <_malloc_r+0x3ae>
   10f7c:	0094d793          	srl	a5,s1,0x9
   10f80:	12078463          	beqz	a5,110a8 <_malloc_r+0x1ba>
   10f84:	4711                	li	a4,4
   10f86:	26f76763          	bltu	a4,a5,111f4 <_malloc_r+0x306>
   10f8a:	0064d793          	srl	a5,s1,0x6
   10f8e:	0397859b          	addw	a1,a5,57 # ffffffff80000039 <__BSS_END__+0xffffffff7ffe44f9>
   10f92:	0015961b          	sllw	a2,a1,0x1
   10f96:	0387881b          	addw	a6,a5,56
   10f9a:	060e                	sll	a2,a2,0x3
   10f9c:	69ed                	lui	s3,0x1b
   10f9e:	b3098993          	add	s3,s3,-1232 # 1ab30 <__malloc_av_>
   10fa2:	964e                	add	a2,a2,s3
   10fa4:	6600                	ld	s0,8(a2)
   10fa6:	1641                	add	a2,a2,-16
   10fa8:	02860163          	beq	a2,s0,10fca <_malloc_r+0xdc>
   10fac:	457d                	li	a0,31
   10fae:	a039                	j	10fbc <_malloc_r+0xce>
   10fb0:	6c14                	ld	a3,24(s0)
   10fb2:	1e075863          	bgez	a4,111a2 <_malloc_r+0x2b4>
   10fb6:	00d60a63          	beq	a2,a3,10fca <_malloc_r+0xdc>
   10fba:	8436                	mv	s0,a3
   10fbc:	641c                	ld	a5,8(s0)
   10fbe:	9bf1                	and	a5,a5,-4
   10fc0:	40978733          	sub	a4,a5,s1
   10fc4:	fee556e3          	bge	a0,a4,10fb0 <_malloc_r+0xc2>
   10fc8:	85c2                	mv	a1,a6
   10fca:	0209b403          	ld	s0,32(s3)
   10fce:	686d                	lui	a6,0x1b
   10fd0:	b4080813          	add	a6,a6,-1216 # 1ab40 <__malloc_av_+0x10>
   10fd4:	1d040463          	beq	s0,a6,1119c <_malloc_r+0x2ae>
   10fd8:	641c                	ld	a5,8(s0)
   10fda:	46fd                	li	a3,31
   10fdc:	9bf1                	and	a5,a5,-4
   10fde:	40978733          	sub	a4,a5,s1
   10fe2:	28e6c663          	blt	a3,a4,1126e <_malloc_r+0x380>
   10fe6:	0309b423          	sd	a6,40(s3)
   10fea:	0309b023          	sd	a6,32(s3)
   10fee:	26075563          	bgez	a4,11258 <_malloc_r+0x36a>
   10ff2:	1ff00713          	li	a4,511
   10ff6:	0089b503          	ld	a0,8(s3)
   10ffa:	1af76b63          	bltu	a4,a5,111b0 <_malloc_r+0x2c2>
   10ffe:	838d                	srl	a5,a5,0x3
   11000:	0017871b          	addw	a4,a5,1
   11004:	0017171b          	sllw	a4,a4,0x1
   11008:	070e                	sll	a4,a4,0x3
   1100a:	974e                	add	a4,a4,s3
   1100c:	6310                	ld	a2,0(a4)
   1100e:	4027d79b          	sraw	a5,a5,0x2
   11012:	4685                	li	a3,1
   11014:	00f697b3          	sll	a5,a3,a5
   11018:	8d5d                	or	a0,a0,a5
   1101a:	ff070793          	add	a5,a4,-16
   1101e:	ec1c                	sd	a5,24(s0)
   11020:	e810                	sd	a2,16(s0)
   11022:	00a9b423          	sd	a0,8(s3)
   11026:	e300                	sd	s0,0(a4)
   11028:	ee00                	sd	s0,24(a2)
   1102a:	4025d79b          	sraw	a5,a1,0x2
   1102e:	4605                	li	a2,1
   11030:	00f61633          	sll	a2,a2,a5
   11034:	08c56163          	bltu	a0,a2,110b6 <_malloc_r+0x1c8>
   11038:	00a677b3          	and	a5,a2,a0
   1103c:	ef81                	bnez	a5,11054 <_malloc_r+0x166>
   1103e:	0606                	sll	a2,a2,0x1
   11040:	99f1                	and	a1,a1,-4
   11042:	00a677b3          	and	a5,a2,a0
   11046:	2591                	addw	a1,a1,4
   11048:	e791                	bnez	a5,11054 <_malloc_r+0x166>
   1104a:	0606                	sll	a2,a2,0x1
   1104c:	00a677b3          	and	a5,a2,a0
   11050:	2591                	addw	a1,a1,4
   11052:	dfe5                	beqz	a5,1104a <_malloc_r+0x15c>
   11054:	48fd                	li	a7,31
   11056:	0015831b          	addw	t1,a1,1
   1105a:	0013131b          	sllw	t1,t1,0x1
   1105e:	030e                	sll	t1,t1,0x3
   11060:	1341                	add	t1,t1,-16
   11062:	934e                	add	t1,t1,s3
   11064:	851a                	mv	a0,t1
   11066:	6d1c                	ld	a5,24(a0)
   11068:	8e2e                	mv	t3,a1
   1106a:	1af50663          	beq	a0,a5,11216 <_malloc_r+0x328>
   1106e:	6798                	ld	a4,8(a5)
   11070:	843e                	mv	s0,a5
   11072:	6f9c                	ld	a5,24(a5)
   11074:	9b71                	and	a4,a4,-4
   11076:	409706b3          	sub	a3,a4,s1
   1107a:	1ad8c563          	blt	a7,a3,11224 <_malloc_r+0x336>
   1107e:	fe06c6e3          	bltz	a3,1106a <_malloc_r+0x17c>
   11082:	9722                	add	a4,a4,s0
   11084:	6714                	ld	a3,8(a4)
   11086:	6810                	ld	a2,16(s0)
   11088:	854a                	mv	a0,s2
   1108a:	0016e693          	or	a3,a3,1
   1108e:	e714                	sd	a3,8(a4)
   11090:	ee1c                	sd	a5,24(a2)
   11092:	eb90                	sd	a2,16(a5)
   11094:	45e000ef          	jal	114f2 <__malloc_unlock>
   11098:	01040513          	add	a0,s0,16
   1109c:	bd55                	j	10f50 <_malloc_r+0x62>
   1109e:	47b1                	li	a5,12
   110a0:	00f92023          	sw	a5,0(s2)
   110a4:	4501                	li	a0,0
   110a6:	b56d                	j	10f50 <_malloc_r+0x62>
   110a8:	40000613          	li	a2,1024
   110ac:	04000593          	li	a1,64
   110b0:	03f00813          	li	a6,63
   110b4:	b5e5                	j	10f9c <_malloc_r+0xae>
   110b6:	0109b403          	ld	s0,16(s3)
   110ba:	f456                	sd	s5,40(sp)
   110bc:	641c                	ld	a5,8(s0)
   110be:	ffc7fa93          	and	s5,a5,-4
   110c2:	009ae763          	bltu	s5,s1,110d0 <_malloc_r+0x1e2>
   110c6:	409a8733          	sub	a4,s5,s1
   110ca:	47fd                	li	a5,31
   110cc:	0ae7c263          	blt	a5,a4,11170 <_malloc_r+0x282>
   110d0:	e466                	sd	s9,8(sp)
   110d2:	f852                	sd	s4,48(sp)
   110d4:	2281b703          	ld	a4,552(gp) # 1b568 <__malloc_sbrk_base>
   110d8:	2601ba03          	ld	s4,608(gp) # 1b5a0 <__malloc_top_pad>
   110dc:	e862                	sd	s8,16(sp)
   110de:	f05a                	sd	s6,32(sp)
   110e0:	57fd                	li	a5,-1
   110e2:	01540c33          	add	s8,s0,s5
   110e6:	9a26                	add	s4,s4,s1
   110e8:	2ef70863          	beq	a4,a5,113d8 <_malloc_r+0x4ea>
   110ec:	6785                	lui	a5,0x1
   110ee:	07fd                	add	a5,a5,31 # 101f <exit-0xf0c9>
   110f0:	9a3e                	add	s4,s4,a5
   110f2:	77fd                	lui	a5,0xfffff
   110f4:	00fa7a33          	and	s4,s4,a5
   110f8:	85d2                	mv	a1,s4
   110fa:	854a                	mv	a0,s2
   110fc:	1ff030ef          	jal	14afa <_sbrk_r>
   11100:	57fd                	li	a5,-1
   11102:	8b2a                	mv	s6,a0
   11104:	36f50063          	beq	a0,a5,11464 <_malloc_r+0x576>
   11108:	ec5e                	sd	s7,24(sp)
   1110a:	1b856c63          	bltu	a0,s8,112c2 <_malloc_r+0x3d4>
   1110e:	4c018b93          	add	s7,gp,1216 # 1b800 <__malloc_current_mallinfo>
   11112:	000ba783          	lw	a5,0(s7)
   11116:	0147873b          	addw	a4,a5,s4
   1111a:	00eba023          	sw	a4,0(s7)
   1111e:	86ba                	mv	a3,a4
   11120:	20ac1763          	bne	s8,a0,1132e <_malloc_r+0x440>
   11124:	03451793          	sll	a5,a0,0x34
   11128:	20079363          	bnez	a5,1132e <_malloc_r+0x440>
   1112c:	0109bb03          	ld	s6,16(s3)
   11130:	014a87b3          	add	a5,s5,s4
   11134:	0017e793          	or	a5,a5,1
   11138:	00fb3423          	sd	a5,8(s6)
   1113c:	2581b603          	ld	a2,600(gp) # 1b598 <__malloc_max_sbrked_mem>
   11140:	00e67463          	bgeu	a2,a4,11148 <_malloc_r+0x25a>
   11144:	24e1bc23          	sd	a4,600(gp) # 1b598 <__malloc_max_sbrked_mem>
   11148:	2501b603          	ld	a2,592(gp) # 1b590 <__malloc_max_total_mem>
   1114c:	00e67463          	bgeu	a2,a4,11154 <_malloc_r+0x266>
   11150:	24e1b823          	sd	a4,592(gp) # 1b590 <__malloc_max_total_mem>
   11154:	6be2                	ld	s7,24(sp)
   11156:	845a                	mv	s0,s6
   11158:	9bf1                	and	a5,a5,-4
   1115a:	40978733          	sub	a4,a5,s1
   1115e:	2a97ed63          	bltu	a5,s1,11418 <_malloc_r+0x52a>
   11162:	47fd                	li	a5,31
   11164:	2ae7da63          	bge	a5,a4,11418 <_malloc_r+0x52a>
   11168:	7a42                	ld	s4,48(sp)
   1116a:	7b02                	ld	s6,32(sp)
   1116c:	6c42                	ld	s8,16(sp)
   1116e:	6ca2                	ld	s9,8(sp)
   11170:	0014e793          	or	a5,s1,1
   11174:	e41c                	sd	a5,8(s0)
   11176:	94a2                	add	s1,s1,s0
   11178:	0099b823          	sd	s1,16(s3)
   1117c:	00176713          	or	a4,a4,1
   11180:	854a                	mv	a0,s2
   11182:	e498                	sd	a4,8(s1)
   11184:	36e000ef          	jal	114f2 <__malloc_unlock>
   11188:	60e6                	ld	ra,88(sp)
   1118a:	01040513          	add	a0,s0,16
   1118e:	6446                	ld	s0,80(sp)
   11190:	7aa2                	ld	s5,40(sp)
   11192:	64a6                	ld	s1,72(sp)
   11194:	6906                	ld	s2,64(sp)
   11196:	79e2                	ld	s3,56(sp)
   11198:	6125                	add	sp,sp,96
   1119a:	8082                	ret
   1119c:	0089b503          	ld	a0,8(s3)
   111a0:	b569                	j	1102a <_malloc_r+0x13c>
   111a2:	6810                	ld	a2,16(s0)
   111a4:	bb51                	j	10f38 <_malloc_r+0x4a>
   111a6:	6f80                	ld	s0,24(a5)
   111a8:	2589                	addw	a1,a1,2
   111aa:	e28780e3          	beq	a5,s0,10fca <_malloc_r+0xdc>
   111ae:	b349                	j	10f30 <_malloc_r+0x42>
   111b0:	0097d713          	srl	a4,a5,0x9
   111b4:	4691                	li	a3,4
   111b6:	0ee6fc63          	bgeu	a3,a4,112ae <_malloc_r+0x3c0>
   111ba:	46d1                	li	a3,20
   111bc:	26e6e863          	bltu	a3,a4,1142c <_malloc_r+0x53e>
   111c0:	05c7061b          	addw	a2,a4,92
   111c4:	0016161b          	sllw	a2,a2,0x1
   111c8:	05b7069b          	addw	a3,a4,91
   111cc:	060e                	sll	a2,a2,0x3
   111ce:	964e                	add	a2,a2,s3
   111d0:	6218                	ld	a4,0(a2)
   111d2:	1641                	add	a2,a2,-16
   111d4:	00e61663          	bne	a2,a4,111e0 <_malloc_r+0x2f2>
   111d8:	a419                	j	113de <_malloc_r+0x4f0>
   111da:	6b18                	ld	a4,16(a4)
   111dc:	00e60663          	beq	a2,a4,111e8 <_malloc_r+0x2fa>
   111e0:	6714                	ld	a3,8(a4)
   111e2:	9af1                	and	a3,a3,-4
   111e4:	fed7ebe3          	bltu	a5,a3,111da <_malloc_r+0x2ec>
   111e8:	6f10                	ld	a2,24(a4)
   111ea:	ec10                	sd	a2,24(s0)
   111ec:	e818                	sd	a4,16(s0)
   111ee:	ea00                	sd	s0,16(a2)
   111f0:	ef00                	sd	s0,24(a4)
   111f2:	bd25                	j	1102a <_malloc_r+0x13c>
   111f4:	4751                	li	a4,20
   111f6:	0cf77d63          	bgeu	a4,a5,112d0 <_malloc_r+0x3e2>
   111fa:	05400713          	li	a4,84
   111fe:	24f76563          	bltu	a4,a5,11448 <_malloc_r+0x55a>
   11202:	00c4d793          	srl	a5,s1,0xc
   11206:	06f7859b          	addw	a1,a5,111 # fffffffffffff06f <__BSS_END__+0xfffffffffffe352f>
   1120a:	0015961b          	sllw	a2,a1,0x1
   1120e:	06e7881b          	addw	a6,a5,110
   11212:	060e                	sll	a2,a2,0x3
   11214:	b361                	j	10f9c <_malloc_r+0xae>
   11216:	2e05                	addw	t3,t3,1
   11218:	003e7793          	and	a5,t3,3
   1121c:	0541                	add	a0,a0,16
   1121e:	c7f1                	beqz	a5,112ea <_malloc_r+0x3fc>
   11220:	6d1c                	ld	a5,24(a0)
   11222:	b5a1                	j	1106a <_malloc_r+0x17c>
   11224:	6810                	ld	a2,16(s0)
   11226:	0014e593          	or	a1,s1,1
   1122a:	e40c                	sd	a1,8(s0)
   1122c:	ee1c                	sd	a5,24(a2)
   1122e:	eb90                	sd	a2,16(a5)
   11230:	94a2                	add	s1,s1,s0
   11232:	0299b423          	sd	s1,40(s3)
   11236:	0299b023          	sd	s1,32(s3)
   1123a:	0016e793          	or	a5,a3,1
   1123e:	0104bc23          	sd	a6,24(s1)
   11242:	0104b823          	sd	a6,16(s1)
   11246:	e49c                	sd	a5,8(s1)
   11248:	9722                	add	a4,a4,s0
   1124a:	854a                	mv	a0,s2
   1124c:	e314                	sd	a3,0(a4)
   1124e:	2a4000ef          	jal	114f2 <__malloc_unlock>
   11252:	01040513          	add	a0,s0,16
   11256:	b9ed                	j	10f50 <_malloc_r+0x62>
   11258:	97a2                	add	a5,a5,s0
   1125a:	6798                	ld	a4,8(a5)
   1125c:	854a                	mv	a0,s2
   1125e:	00176713          	or	a4,a4,1
   11262:	e798                	sd	a4,8(a5)
   11264:	28e000ef          	jal	114f2 <__malloc_unlock>
   11268:	01040513          	add	a0,s0,16
   1126c:	b1d5                	j	10f50 <_malloc_r+0x62>
   1126e:	0014e693          	or	a3,s1,1
   11272:	e414                	sd	a3,8(s0)
   11274:	94a2                	add	s1,s1,s0
   11276:	0299b423          	sd	s1,40(s3)
   1127a:	0299b023          	sd	s1,32(s3)
   1127e:	00176693          	or	a3,a4,1
   11282:	0104bc23          	sd	a6,24(s1)
   11286:	0104b823          	sd	a6,16(s1)
   1128a:	e494                	sd	a3,8(s1)
   1128c:	97a2                	add	a5,a5,s0
   1128e:	854a                	mv	a0,s2
   11290:	e398                	sd	a4,0(a5)
   11292:	260000ef          	jal	114f2 <__malloc_unlock>
   11296:	01040513          	add	a0,s0,16
   1129a:	b95d                	j	10f50 <_malloc_r+0x62>
   1129c:	0034d593          	srl	a1,s1,0x3
   112a0:	0015879b          	addw	a5,a1,1
   112a4:	0017979b          	sllw	a5,a5,0x1
   112a8:	2581                	sext.w	a1,a1
   112aa:	078e                	sll	a5,a5,0x3
   112ac:	b98d                	j	10f1e <_malloc_r+0x30>
   112ae:	0067d713          	srl	a4,a5,0x6
   112b2:	0397061b          	addw	a2,a4,57
   112b6:	0016161b          	sllw	a2,a2,0x1
   112ba:	0387069b          	addw	a3,a4,56
   112be:	060e                	sll	a2,a2,0x3
   112c0:	b739                	j	111ce <_malloc_r+0x2e0>
   112c2:	05340e63          	beq	s0,s3,1131e <_malloc_r+0x430>
   112c6:	0109b403          	ld	s0,16(s3)
   112ca:	6be2                	ld	s7,24(sp)
   112cc:	641c                	ld	a5,8(s0)
   112ce:	b569                	j	11158 <_malloc_r+0x26a>
   112d0:	05c7859b          	addw	a1,a5,92
   112d4:	0015961b          	sllw	a2,a1,0x1
   112d8:	05b7881b          	addw	a6,a5,91
   112dc:	060e                	sll	a2,a2,0x3
   112de:	b97d                	j	10f9c <_malloc_r+0xae>
   112e0:	01033783          	ld	a5,16(t1)
   112e4:	35fd                	addw	a1,a1,-1
   112e6:	20679263          	bne	a5,t1,114ea <_malloc_r+0x5fc>
   112ea:	0035f793          	and	a5,a1,3
   112ee:	1341                	add	t1,t1,-16
   112f0:	fbe5                	bnez	a5,112e0 <_malloc_r+0x3f2>
   112f2:	0089b703          	ld	a4,8(s3)
   112f6:	fff64793          	not	a5,a2
   112fa:	8ff9                	and	a5,a5,a4
   112fc:	00f9b423          	sd	a5,8(s3)
   11300:	0606                	sll	a2,a2,0x1
   11302:	dac7eae3          	bltu	a5,a2,110b6 <_malloc_r+0x1c8>
   11306:	da0608e3          	beqz	a2,110b6 <_malloc_r+0x1c8>
   1130a:	00f67733          	and	a4,a2,a5
   1130e:	e711                	bnez	a4,1131a <_malloc_r+0x42c>
   11310:	0606                	sll	a2,a2,0x1
   11312:	00f67733          	and	a4,a2,a5
   11316:	2e11                	addw	t3,t3,4
   11318:	df65                	beqz	a4,11310 <_malloc_r+0x422>
   1131a:	85f2                	mv	a1,t3
   1131c:	bb2d                	j	11056 <_malloc_r+0x168>
   1131e:	4c018b93          	add	s7,gp,1216 # 1b800 <__malloc_current_mallinfo>
   11322:	000ba783          	lw	a5,0(s7)
   11326:	014786bb          	addw	a3,a5,s4
   1132a:	00dba023          	sw	a3,0(s7)
   1132e:	2281b703          	ld	a4,552(gp) # 1b568 <__malloc_sbrk_base>
   11332:	57fd                	li	a5,-1
   11334:	12f70c63          	beq	a4,a5,1146c <_malloc_r+0x57e>
   11338:	418b07b3          	sub	a5,s6,s8
   1133c:	9fb5                	addw	a5,a5,a3
   1133e:	00fba023          	sw	a5,0(s7)
   11342:	00fb7c93          	and	s9,s6,15
   11346:	0a0c8563          	beqz	s9,113f0 <_malloc_r+0x502>
   1134a:	419b0b33          	sub	s6,s6,s9
   1134e:	6705                	lui	a4,0x1
   11350:	0741                	add	a4,a4,16 # 1010 <exit-0xf0d8>
   11352:	0b41                	add	s6,s6,16
   11354:	41970c33          	sub	s8,a4,s9
   11358:	9a5a                	add	s4,s4,s6
   1135a:	414c0c33          	sub	s8,s8,s4
   1135e:	1c52                	sll	s8,s8,0x34
   11360:	034c5c13          	srl	s8,s8,0x34
   11364:	85e2                	mv	a1,s8
   11366:	854a                	mv	a0,s2
   11368:	792030ef          	jal	14afa <_sbrk_r>
   1136c:	57fd                	li	a5,-1
   1136e:	12f50e63          	beq	a0,a5,114aa <_malloc_r+0x5bc>
   11372:	41650533          	sub	a0,a0,s6
   11376:	000c069b          	sext.w	a3,s8
   1137a:	01850a33          	add	s4,a0,s8
   1137e:	000ba703          	lw	a4,0(s7)
   11382:	0169b823          	sd	s6,16(s3)
   11386:	001a6793          	or	a5,s4,1
   1138a:	9f35                	addw	a4,a4,a3
   1138c:	00eba023          	sw	a4,0(s7)
   11390:	00fb3423          	sd	a5,8(s6)
   11394:	db3404e3          	beq	s0,s3,1113c <_malloc_r+0x24e>
   11398:	467d                	li	a2,31
   1139a:	07567b63          	bgeu	a2,s5,11410 <_malloc_r+0x522>
   1139e:	6414                	ld	a3,8(s0)
   113a0:	fe8a8793          	add	a5,s5,-24
   113a4:	9bc1                	and	a5,a5,-16
   113a6:	8a85                	and	a3,a3,1
   113a8:	8edd                	or	a3,a3,a5
   113aa:	e414                	sd	a3,8(s0)
   113ac:	45a5                	li	a1,9
   113ae:	00f406b3          	add	a3,s0,a5
   113b2:	e68c                	sd	a1,8(a3)
   113b4:	ea8c                	sd	a1,16(a3)
   113b6:	00f66563          	bltu	a2,a5,113c0 <_malloc_r+0x4d2>
   113ba:	008b3783          	ld	a5,8(s6)
   113be:	bbbd                	j	1113c <_malloc_r+0x24e>
   113c0:	01040593          	add	a1,s0,16
   113c4:	854a                	mv	a0,s2
   113c6:	8e5ff0ef          	jal	10caa <_free_r>
   113ca:	0109bb03          	ld	s6,16(s3)
   113ce:	000ba703          	lw	a4,0(s7)
   113d2:	008b3783          	ld	a5,8(s6)
   113d6:	b39d                	j	1113c <_malloc_r+0x24e>
   113d8:	020a0a13          	add	s4,s4,32
   113dc:	bb31                	j	110f8 <_malloc_r+0x20a>
   113de:	4026d69b          	sraw	a3,a3,0x2
   113e2:	4785                	li	a5,1
   113e4:	00d797b3          	sll	a5,a5,a3
   113e8:	8d5d                	or	a0,a0,a5
   113ea:	00a9b423          	sd	a0,8(s3)
   113ee:	bbf5                	j	111ea <_malloc_r+0x2fc>
   113f0:	014b0c33          	add	s8,s6,s4
   113f4:	41800c33          	neg	s8,s8
   113f8:	1c52                	sll	s8,s8,0x34
   113fa:	034c5c13          	srl	s8,s8,0x34
   113fe:	85e2                	mv	a1,s8
   11400:	854a                	mv	a0,s2
   11402:	6f8030ef          	jal	14afa <_sbrk_r>
   11406:	57fd                	li	a5,-1
   11408:	4681                	li	a3,0
   1140a:	f6f514e3          	bne	a0,a5,11372 <_malloc_r+0x484>
   1140e:	bf85                	j	1137e <_malloc_r+0x490>
   11410:	6be2                	ld	s7,24(sp)
   11412:	4785                	li	a5,1
   11414:	00fb3423          	sd	a5,8(s6)
   11418:	854a                	mv	a0,s2
   1141a:	0d8000ef          	jal	114f2 <__malloc_unlock>
   1141e:	4501                	li	a0,0
   11420:	7a42                	ld	s4,48(sp)
   11422:	7aa2                	ld	s5,40(sp)
   11424:	7b02                	ld	s6,32(sp)
   11426:	6c42                	ld	s8,16(sp)
   11428:	6ca2                	ld	s9,8(sp)
   1142a:	b61d                	j	10f50 <_malloc_r+0x62>
   1142c:	05400693          	li	a3,84
   11430:	04e6e163          	bltu	a3,a4,11472 <_malloc_r+0x584>
   11434:	00c7d713          	srl	a4,a5,0xc
   11438:	06f7061b          	addw	a2,a4,111
   1143c:	0016161b          	sllw	a2,a2,0x1
   11440:	06e7069b          	addw	a3,a4,110
   11444:	060e                	sll	a2,a2,0x3
   11446:	b361                	j	111ce <_malloc_r+0x2e0>
   11448:	15400713          	li	a4,340
   1144c:	04f76163          	bltu	a4,a5,1148e <_malloc_r+0x5a0>
   11450:	00f4d793          	srl	a5,s1,0xf
   11454:	0787859b          	addw	a1,a5,120
   11458:	0015961b          	sllw	a2,a1,0x1
   1145c:	0777881b          	addw	a6,a5,119
   11460:	060e                	sll	a2,a2,0x3
   11462:	be2d                	j	10f9c <_malloc_r+0xae>
   11464:	0109b403          	ld	s0,16(s3)
   11468:	641c                	ld	a5,8(s0)
   1146a:	b1fd                	j	11158 <_malloc_r+0x26a>
   1146c:	2361b423          	sd	s6,552(gp) # 1b568 <__malloc_sbrk_base>
   11470:	bdc9                	j	11342 <_malloc_r+0x454>
   11472:	15400693          	li	a3,340
   11476:	04e6e063          	bltu	a3,a4,114b6 <_malloc_r+0x5c8>
   1147a:	00f7d713          	srl	a4,a5,0xf
   1147e:	0787061b          	addw	a2,a4,120
   11482:	0016161b          	sllw	a2,a2,0x1
   11486:	0777069b          	addw	a3,a4,119
   1148a:	060e                	sll	a2,a2,0x3
   1148c:	b389                	j	111ce <_malloc_r+0x2e0>
   1148e:	55400713          	li	a4,1364
   11492:	04f76063          	bltu	a4,a5,114d2 <_malloc_r+0x5e4>
   11496:	0124d793          	srl	a5,s1,0x12
   1149a:	07d7859b          	addw	a1,a5,125
   1149e:	0015961b          	sllw	a2,a1,0x1
   114a2:	07c7881b          	addw	a6,a5,124
   114a6:	060e                	sll	a2,a2,0x3
   114a8:	bcd5                	j	10f9c <_malloc_r+0xae>
   114aa:	1cc1                	add	s9,s9,-16
   114ac:	9a66                	add	s4,s4,s9
   114ae:	416a0a33          	sub	s4,s4,s6
   114b2:	4681                	li	a3,0
   114b4:	b5e9                	j	1137e <_malloc_r+0x490>
   114b6:	55400693          	li	a3,1364
   114ba:	02e6e363          	bltu	a3,a4,114e0 <_malloc_r+0x5f2>
   114be:	0127d713          	srl	a4,a5,0x12
   114c2:	07d7061b          	addw	a2,a4,125
   114c6:	0016161b          	sllw	a2,a2,0x1
   114ca:	07c7069b          	addw	a3,a4,124
   114ce:	060e                	sll	a2,a2,0x3
   114d0:	b9fd                	j	111ce <_malloc_r+0x2e0>
   114d2:	7f000613          	li	a2,2032
   114d6:	07f00593          	li	a1,127
   114da:	07e00813          	li	a6,126
   114de:	bc7d                	j	10f9c <_malloc_r+0xae>
   114e0:	7f000613          	li	a2,2032
   114e4:	07e00693          	li	a3,126
   114e8:	b1dd                	j	111ce <_malloc_r+0x2e0>
   114ea:	0089b783          	ld	a5,8(s3)
   114ee:	bd09                	j	11300 <_malloc_r+0x412>

00000000000114f0 <__malloc_lock>:
   114f0:	8082                	ret

00000000000114f2 <__malloc_unlock>:
   114f2:	8082                	ret

00000000000114f4 <_vfprintf_r>:
   114f4:	db010113          	add	sp,sp,-592
   114f8:	24113423          	sd	ra,584(sp)
   114fc:	24813023          	sd	s0,576(sp)
   11500:	23213823          	sd	s2,560(sp)
   11504:	ffe6                	sd	s9,504(sp)
   11506:	892e                	mv	s2,a1
   11508:	8cb2                	mv	s9,a2
   1150a:	f036                	sd	a3,32(sp)
   1150c:	842a                	mv	s0,a0
   1150e:	e42a                	sd	a0,8(sp)
   11510:	5de030ef          	jal	14aee <_localeconv_r>
   11514:	611c                	ld	a5,0(a0)
   11516:	853e                	mv	a0,a5
   11518:	ecbe                	sd	a5,88(sp)
   1151a:	063030ef          	jal	14d7c <strlen>
   1151e:	e8aa                	sd	a0,80(sp)
   11520:	e982                	sd	zero,208(sp)
   11522:	ed82                	sd	zero,216(sp)
   11524:	c409                	beqz	s0,1152e <_vfprintf_r+0x3a>
   11526:	6438                	ld	a4,72(s0)
   11528:	e319                	bnez	a4,1152e <_vfprintf_r+0x3a>
   1152a:	21c0106f          	j	12746 <_vfprintf_r+0x1252>
   1152e:	01091703          	lh	a4,16(s2)
   11532:	03271693          	sll	a3,a4,0x32
   11536:	0206c163          	bltz	a3,11558 <_vfprintf_r+0x64>
   1153a:	0ac92683          	lw	a3,172(s2)
   1153e:	6589                	lui	a1,0x2
   11540:	7679                	lui	a2,0xffffe
   11542:	8f4d                	or	a4,a4,a1
   11544:	167d                	add	a2,a2,-1 # ffffffffffffdfff <__BSS_END__+0xfffffffffffe24bf>
   11546:	0107171b          	sllw	a4,a4,0x10
   1154a:	4107571b          	sraw	a4,a4,0x10
   1154e:	8ef1                	and	a3,a3,a2
   11550:	00e91823          	sh	a4,16(s2)
   11554:	0ad92623          	sw	a3,172(s2)
   11558:	00877693          	and	a3,a4,8
   1155c:	24068e63          	beqz	a3,117b8 <_vfprintf_r+0x2c4>
   11560:	01893683          	ld	a3,24(s2)
   11564:	24068a63          	beqz	a3,117b8 <_vfprintf_r+0x2c4>
   11568:	8b69                	and	a4,a4,26
   1156a:	46a9                	li	a3,10
   1156c:	26d70363          	beq	a4,a3,117d2 <_vfprintf_r+0x2de>
   11570:	23413023          	sd	s4,544(sp)
   11574:	21513c23          	sd	s5,536(sp)
   11578:	fbea                	sd	s10,496(sp)
   1157a:	6765                	lui	a4,0x19
   1157c:	22913c23          	sd	s1,568(sp)
   11580:	23313423          	sd	s3,552(sp)
   11584:	21613823          	sd	s6,528(sp)
   11588:	21713423          	sd	s7,520(sp)
   1158c:	21813023          	sd	s8,512(sp)
   11590:	f7ee                	sd	s11,488(sp)
   11592:	8d66                	mv	s10,s9
   11594:	33870793          	add	a5,a4,824 # 19338 <__clzdi2+0x196>
   11598:	000d4703          	lbu	a4,0(s10)
   1159c:	16010a13          	add	s4,sp,352
   115a0:	6ae5                	lui	s5,0x19
   115a2:	f1d2                	sd	s4,224(sp)
   115a4:	f982                	sd	zero,240(sp)
   115a6:	d582                	sw	zero,232(sp)
   115a8:	fc02                	sd	zero,56(sp)
   115aa:	f082                	sd	zero,96(sp)
   115ac:	f882                	sd	zero,112(sp)
   115ae:	e102                	sd	zero,128(sp)
   115b0:	e502                	sd	zero,136(sp)
   115b2:	fc82                	sd	zero,120(sp)
   115b4:	e802                	sd	zero,16(sp)
   115b6:	f43e                	sd	a5,40(sp)
   115b8:	8452                	mv	s0,s4
   115ba:	4a8a8a93          	add	s5,s5,1192 # 194a8 <zeroes.0>
   115be:	1a070163          	beqz	a4,11760 <_vfprintf_r+0x26c>
   115c2:	89ea                	mv	s3,s10
   115c4:	02500693          	li	a3,37
   115c8:	2cd70d63          	beq	a4,a3,118a2 <_vfprintf_r+0x3ae>
   115cc:	0019c703          	lbu	a4,1(s3)
   115d0:	0985                	add	s3,s3,1
   115d2:	fb7d                	bnez	a4,115c8 <_vfprintf_r+0xd4>
   115d4:	41a984bb          	subw	s1,s3,s10
   115d8:	18048463          	beqz	s1,11760 <_vfprintf_r+0x26c>
   115dc:	572e                	lw	a4,232(sp)
   115de:	76ce                	ld	a3,240(sp)
   115e0:	01a43023          	sd	s10,0(s0)
   115e4:	2705                	addw	a4,a4,1
   115e6:	96a6                	add	a3,a3,s1
   115e8:	e404                	sd	s1,8(s0)
   115ea:	f9b6                	sd	a3,240(sp)
   115ec:	d5ba                	sw	a4,232(sp)
   115ee:	0007069b          	sext.w	a3,a4
   115f2:	471d                	li	a4,7
   115f4:	0441                	add	s0,s0,16
   115f6:	2ad74d63          	blt	a4,a3,118b0 <_vfprintf_r+0x3bc>
   115fa:	67c2                	ld	a5,16(sp)
   115fc:	0009c703          	lbu	a4,0(s3)
   11600:	9fa5                	addw	a5,a5,s1
   11602:	e83e                	sd	a5,16(sp)
   11604:	14070e63          	beqz	a4,11760 <_vfprintf_r+0x26c>
   11608:	0019c303          	lbu	t1,1(s3)
   1160c:	0a0107a3          	sb	zero,175(sp)
   11610:	0985                	add	s3,s3,1
   11612:	5b7d                	li	s6,-1
   11614:	4b81                	li	s7,0
   11616:	4d81                	li	s11,0
   11618:	05a00493          	li	s1,90
   1161c:	0985                	add	s3,s3,1
   1161e:	2301                	sext.w	t1,t1
   11620:	fe03079b          	addw	a5,t1,-32
   11624:	0007871b          	sext.w	a4,a5
   11628:	04e4e563          	bltu	s1,a4,11672 <_vfprintf_r+0x17e>
   1162c:	02079713          	sll	a4,a5,0x20
   11630:	01e75793          	srl	a5,a4,0x1e
   11634:	7722                	ld	a4,40(sp)
   11636:	97ba                	add	a5,a5,a4
   11638:	439c                	lw	a5,0(a5)
   1163a:	8782                	jr	a5
   1163c:	4b81                	li	s7,0
   1163e:	46a5                	li	a3,9
   11640:	0009c703          	lbu	a4,0(s3)
   11644:	002b979b          	sllw	a5,s7,0x2
   11648:	01778bbb          	addw	s7,a5,s7
   1164c:	fd03031b          	addw	t1,t1,-48
   11650:	001b9b9b          	sllw	s7,s7,0x1
   11654:	fd07079b          	addw	a5,a4,-48
   11658:	01730bbb          	addw	s7,t1,s7
   1165c:	0985                	add	s3,s3,1
   1165e:	0007031b          	sext.w	t1,a4
   11662:	fcf6ffe3          	bgeu	a3,a5,11640 <_vfprintf_r+0x14c>
   11666:	fe03079b          	addw	a5,t1,-32
   1166a:	0007871b          	sext.w	a4,a5
   1166e:	fae4ffe3          	bgeu	s1,a4,1162c <_vfprintf_r+0x138>
   11672:	0e030763          	beqz	t1,11760 <_vfprintf_r+0x26c>
   11676:	0e610c23          	sb	t1,248(sp)
   1167a:	0a0107a3          	sb	zero,175(sp)
   1167e:	4c05                	li	s8,1
   11680:	4685                	li	a3,1
   11682:	0f810d13          	add	s10,sp,248
   11686:	ec02                	sd	zero,24(sp)
   11688:	4b01                	li	s6,0
   1168a:	e482                	sd	zero,72(sp)
   1168c:	e082                	sd	zero,64(sp)
   1168e:	f802                	sd	zero,48(sp)
   11690:	002df293          	and	t0,s11,2
   11694:	00028363          	beqz	t0,1169a <_vfprintf_r+0x1a6>
   11698:	2c09                	addw	s8,s8,2
   1169a:	084dfc93          	and	s9,s11,132
   1169e:	74ce                	ld	s1,240(sp)
   116a0:	000c9663          	bnez	s9,116ac <_vfprintf_r+0x1b8>
   116a4:	418b873b          	subw	a4,s7,s8
   116a8:	2ee044e3          	bgtz	a4,12190 <_vfprintf_r+0xc9c>
   116ac:	0af14703          	lbu	a4,175(sp)
   116b0:	c30d                	beqz	a4,116d2 <_vfprintf_r+0x1de>
   116b2:	572e                	lw	a4,232(sp)
   116b4:	0af10613          	add	a2,sp,175
   116b8:	e010                	sd	a2,0(s0)
   116ba:	2705                	addw	a4,a4,1
   116bc:	4605                	li	a2,1
   116be:	0485                	add	s1,s1,1
   116c0:	e410                	sd	a2,8(s0)
   116c2:	d5ba                	sw	a4,232(sp)
   116c4:	0007061b          	sext.w	a2,a4
   116c8:	f9a6                	sd	s1,240(sp)
   116ca:	471d                	li	a4,7
   116cc:	0441                	add	s0,s0,16
   116ce:	4ec74b63          	blt	a4,a2,11bc4 <_vfprintf_r+0x6d0>
   116d2:	02028163          	beqz	t0,116f4 <_vfprintf_r+0x200>
   116d6:	572e                	lw	a4,232(sp)
   116d8:	4609                	li	a2,2
   116da:	0489                	add	s1,s1,2
   116dc:	2705                	addw	a4,a4,1
   116de:	191c                	add	a5,sp,176
   116e0:	e410                	sd	a2,8(s0)
   116e2:	e01c                	sd	a5,0(s0)
   116e4:	0007061b          	sext.w	a2,a4
   116e8:	d5ba                	sw	a4,232(sp)
   116ea:	f9a6                	sd	s1,240(sp)
   116ec:	471d                	li	a4,7
   116ee:	0441                	add	s0,s0,16
   116f0:	32c74fe3          	blt	a4,a2,1222e <_vfprintf_r+0xd3a>
   116f4:	08000713          	li	a4,128
   116f8:	10ec8ce3          	beq	s9,a4,12010 <_vfprintf_r+0xb1c>
   116fc:	40db0b3b          	subw	s6,s6,a3
   11700:	1b604be3          	bgtz	s6,120b6 <_vfprintf_r+0xbc2>
   11704:	100df713          	and	a4,s11,256
   11708:	020710e3          	bnez	a4,11f28 <_vfprintf_r+0xa34>
   1170c:	572e                	lw	a4,232(sp)
   1170e:	94b6                	add	s1,s1,a3
   11710:	01a43023          	sd	s10,0(s0)
   11714:	2705                	addw	a4,a4,1
   11716:	e414                	sd	a3,8(s0)
   11718:	f9a6                	sd	s1,240(sp)
   1171a:	d5ba                	sw	a4,232(sp)
   1171c:	479d                	li	a5,7
   1171e:	54e7cf63          	blt	a5,a4,11c7c <_vfprintf_r+0x788>
   11722:	0441                	add	s0,s0,16
   11724:	004dfe13          	and	t3,s11,4
   11728:	000e0663          	beqz	t3,11734 <_vfprintf_r+0x240>
   1172c:	418b8b3b          	subw	s6,s7,s8
   11730:	31604de3          	bgtz	s6,1224a <_vfprintf_r+0xd56>
   11734:	87de                	mv	a5,s7
   11736:	018bd363          	bge	s7,s8,1173c <_vfprintf_r+0x248>
   1173a:	87e2                	mv	a5,s8
   1173c:	6742                	ld	a4,16(sp)
   1173e:	9fb9                	addw	a5,a5,a4
   11740:	e83e                	sd	a5,16(sp)
   11742:	200497e3          	bnez	s1,12150 <_vfprintf_r+0xc5c>
   11746:	67e2                	ld	a5,24(sp)
   11748:	d582                	sw	zero,232(sp)
   1174a:	c789                	beqz	a5,11754 <_vfprintf_r+0x260>
   1174c:	65e2                	ld	a1,24(sp)
   1174e:	6522                	ld	a0,8(sp)
   11750:	d5aff0ef          	jal	10caa <_free_r>
   11754:	8452                	mv	s0,s4
   11756:	8d4e                	mv	s10,s3
   11758:	000d4703          	lbu	a4,0(s10)
   1175c:	e60713e3          	bnez	a4,115c2 <_vfprintf_r+0xce>
   11760:	77ce                	ld	a5,240(sp)
   11762:	c399                	beqz	a5,11768 <_vfprintf_r+0x274>
   11764:	3a20106f          	j	12b06 <_vfprintf_r+0x1612>
   11768:	01095783          	lhu	a5,16(s2)
   1176c:	23813483          	ld	s1,568(sp)
   11770:	22813983          	ld	s3,552(sp)
   11774:	0407f793          	and	a5,a5,64
   11778:	22013a03          	ld	s4,544(sp)
   1177c:	21813a83          	ld	s5,536(sp)
   11780:	21013b03          	ld	s6,528(sp)
   11784:	20813b83          	ld	s7,520(sp)
   11788:	20013c03          	ld	s8,512(sp)
   1178c:	7d5e                	ld	s10,496(sp)
   1178e:	7dbe                	ld	s11,488(sp)
   11790:	c399                	beqz	a5,11796 <_vfprintf_r+0x2a2>
   11792:	6780106f          	j	12e0a <_vfprintf_r+0x1916>
   11796:	24813083          	ld	ra,584(sp)
   1179a:	24013403          	ld	s0,576(sp)
   1179e:	6542                	ld	a0,16(sp)
   117a0:	23013903          	ld	s2,560(sp)
   117a4:	7cfe                	ld	s9,504(sp)
   117a6:	25010113          	add	sp,sp,592
   117aa:	8082                	ret
   117ac:	010ded93          	or	s11,s11,16
   117b0:	0009c303          	lbu	t1,0(s3)
   117b4:	2d81                	sext.w	s11,s11
   117b6:	b59d                	j	1161c <_vfprintf_r+0x128>
   117b8:	6522                	ld	a0,8(sp)
   117ba:	85ca                	mv	a1,s2
   117bc:	759020ef          	jal	14714 <__swsetup_r>
   117c0:	c119                	beqz	a0,117c6 <_vfprintf_r+0x2d2>
   117c2:	6480106f          	j	12e0a <_vfprintf_r+0x1916>
   117c6:	01091703          	lh	a4,16(s2)
   117ca:	46a9                	li	a3,10
   117cc:	8b69                	and	a4,a4,26
   117ce:	dad711e3          	bne	a4,a3,11570 <_vfprintf_r+0x7c>
   117d2:	01291703          	lh	a4,18(s2)
   117d6:	d8074de3          	bltz	a4,11570 <_vfprintf_r+0x7c>
   117da:	7682                	ld	a3,32(sp)
   117dc:	6522                	ld	a0,8(sp)
   117de:	8666                	mv	a2,s9
   117e0:	85ca                	mv	a1,s2
   117e2:	05d010ef          	jal	1303e <__sbprintf>
   117e6:	e82a                	sd	a0,16(sp)
   117e8:	b77d                	j	11796 <_vfprintf_r+0x2a2>
   117ea:	010dee13          	or	t3,s11,16
   117ee:	000e0d9b          	sext.w	s11,t3
   117f2:	7682                	ld	a3,32(sp)
   117f4:	020df793          	and	a5,s11,32
   117f8:	00868713          	add	a4,a3,8
   117fc:	4a078763          	beqz	a5,11caa <_vfprintf_r+0x7b6>
   11800:	629c                	ld	a5,0(a3)
   11802:	84be                	mv	s1,a5
   11804:	4c07c463          	bltz	a5,11ccc <_vfprintf_r+0x7d8>
   11808:	4c0b45e3          	bltz	s6,124d2 <_vfprintf_r+0xfde>
   1180c:	f7fdfc93          	and	s9,s11,-129
   11810:	2c81                	sext.w	s9,s9
   11812:	c099                	beqz	s1,11818 <_vfprintf_r+0x324>
   11814:	7790006f          	j	1278c <_vfprintf_r+0x1298>
   11818:	000b0463          	beqz	s6,11820 <_vfprintf_r+0x32c>
   1181c:	6820106f          	j	12e9e <_vfprintf_r+0x19aa>
   11820:	4681                	li	a3,0
   11822:	f03a                	sd	a4,32(sp)
   11824:	8de6                	mv	s11,s9
   11826:	15c10d13          	add	s10,sp,348
   1182a:	0af14703          	lbu	a4,175(sp)
   1182e:	885a                	mv	a6,s6
   11830:	00db5363          	bge	s6,a3,11836 <_vfprintf_r+0x342>
   11834:	8836                	mv	a6,a3
   11836:	ec02                	sd	zero,24(sp)
   11838:	e482                	sd	zero,72(sp)
   1183a:	e082                	sd	zero,64(sp)
   1183c:	f802                	sd	zero,48(sp)
   1183e:	00080c1b          	sext.w	s8,a6
   11842:	e40707e3          	beqz	a4,11690 <_vfprintf_r+0x19c>
   11846:	2c05                	addw	s8,s8,1
   11848:	b5a1                	j	11690 <_vfprintf_r+0x19c>
   1184a:	010dee13          	or	t3,s11,16
   1184e:	000e0d9b          	sext.w	s11,t3
   11852:	7682                	ld	a3,32(sp)
   11854:	020df793          	and	a5,s11,32
   11858:	00868713          	add	a4,a3,8
   1185c:	42078a63          	beqz	a5,11c90 <_vfprintf_r+0x79c>
   11860:	6284                	ld	s1,0(a3)
   11862:	bffdfc93          	and	s9,s11,-1025
   11866:	2c81                	sext.w	s9,s9
   11868:	f03a                	sd	a4,32(sp)
   1186a:	4781                	li	a5,0
   1186c:	4701                	li	a4,0
   1186e:	0ae107a3          	sb	a4,175(sp)
   11872:	460b4863          	bltz	s6,11ce2 <_vfprintf_r+0x7ee>
   11876:	f7fcfe13          	and	t3,s9,-129
   1187a:	000e0d9b          	sext.w	s11,t3
   1187e:	0e0498e3          	bnez	s1,1216e <_vfprintf_r+0xc7a>
   11882:	740b1e63          	bnez	s6,11fde <_vfprintf_r+0xaea>
   11886:	3c079ae3          	bnez	a5,1245a <_vfprintf_r+0xf66>
   1188a:	001cf693          	and	a3,s9,1
   1188e:	15c10d13          	add	s10,sp,348
   11892:	dec1                	beqz	a3,1182a <_vfprintf_r+0x336>
   11894:	03000793          	li	a5,48
   11898:	14f10da3          	sb	a5,347(sp)
   1189c:	15b10d13          	add	s10,sp,347
   118a0:	b769                	j	1182a <_vfprintf_r+0x336>
   118a2:	41a984bb          	subw	s1,s3,s10
   118a6:	d2049be3          	bnez	s1,115dc <_vfprintf_r+0xe8>
   118aa:	0009c703          	lbu	a4,0(s3)
   118ae:	bb99                	j	11604 <_vfprintf_r+0x110>
   118b0:	6522                	ld	a0,8(sp)
   118b2:	1190                	add	a2,sp,224
   118b4:	85ca                	mv	a1,s2
   118b6:	0e3010ef          	jal	13198 <__sprint_r>
   118ba:	ea0517e3          	bnez	a0,11768 <_vfprintf_r+0x274>
   118be:	8452                	mv	s0,s4
   118c0:	bb2d                	j	115fa <_vfprintf_r+0x106>
   118c2:	008df713          	and	a4,s11,8
   118c6:	3e0718e3          	bnez	a4,124b6 <_vfprintf_r+0xfc2>
   118ca:	7782                	ld	a5,32(sp)
   118cc:	ec1a                	sd	t1,24(sp)
   118ce:	2388                	fld	fa0,0(a5)
   118d0:	00878c13          	add	s8,a5,8
   118d4:	00f070ef          	jal	190e2 <__extenddftf2>
   118d8:	6362                	ld	t1,24(sp)
   118da:	872a                	mv	a4,a0
   118dc:	f062                	sd	s8,32(sp)
   118de:	0988                	add	a0,sp,208
   118e0:	ec1a                	sd	t1,24(sp)
   118e2:	e9ba                	sd	a4,208(sp)
   118e4:	edae                	sd	a1,216(sp)
   118e6:	0bf030ef          	jal	151a4 <_ldcheck>
   118ea:	dd2a                	sw	a0,184(sp)
   118ec:	4709                	li	a4,2
   118ee:	6362                	ld	t1,24(sp)
   118f0:	6ae500e3          	beq	a0,a4,12790 <_vfprintf_r+0x129c>
   118f4:	4705                	li	a4,1
   118f6:	00e51463          	bne	a0,a4,118fe <_vfprintf_r+0x40a>
   118fa:	7bb0006f          	j	128b4 <_vfprintf_r+0x13c0>
   118fe:	06100713          	li	a4,97
   11902:	56e300e3          	beq	t1,a4,12662 <_vfprintf_r+0x116e>
   11906:	04100713          	li	a4,65
   1190a:	05800793          	li	a5,88
   1190e:	54e30ce3          	beq	t1,a4,12666 <_vfprintf_r+0x1172>
   11912:	577d                	li	a4,-1
   11914:	00eb1463          	bne	s6,a4,1191c <_vfprintf_r+0x428>
   11918:	5620106f          	j	12e7a <_vfprintf_r+0x1986>
   1191c:	fdf37713          	and	a4,t1,-33
   11920:	04700693          	li	a3,71
   11924:	ec02                	sd	zero,24(sp)
   11926:	00d71463          	bne	a4,a3,1192e <_vfprintf_r+0x43a>
   1192a:	5580106f          	j	12e82 <_vfprintf_r+0x198e>
   1192e:	67ce                	ld	a5,208(sp)
   11930:	6cee                	ld	s9,216(sp)
   11932:	100de713          	or	a4,s11,256
   11936:	f83e                	sd	a5,48(sp)
   11938:	f482                	sd	zero,104(sp)
   1193a:	0007049b          	sext.w	s1,a4
   1193e:	000cd463          	bgez	s9,11946 <_vfprintf_r+0x452>
   11942:	3720106f          	j	12cb4 <_vfprintf_r+0x17c0>
   11946:	fbf3069b          	addw	a3,t1,-65
   1194a:	02500713          	li	a4,37
   1194e:	00d77463          	bgeu	a4,a3,11956 <_vfprintf_r+0x462>
   11952:	3c60106f          	j	12d18 <_vfprintf_r+0x1824>
   11956:	4705                	li	a4,1
   11958:	4c05                	li	s8,1
   1195a:	1716                	sll	a4,a4,0x25
   1195c:	00dc16b3          	sll	a3,s8,a3
   11960:	02070713          	add	a4,a4,32
   11964:	8f75                	and	a4,a4,a3
   11966:	c319                	beqz	a4,1196c <_vfprintf_r+0x478>
   11968:	2680106f          	j	12bd0 <_vfprintf_r+0x16dc>
   1196c:	4705                	li	a4,1
   1196e:	1712                	sll	a4,a4,0x24
   11970:	0741                	add	a4,a4,16
   11972:	8f75                	and	a4,a4,a3
   11974:	c319                	beqz	a4,1197a <_vfprintf_r+0x486>
   11976:	4a20106f          	j	12e18 <_vfprintf_r+0x1924>
   1197a:	4705                	li	a4,1
   1197c:	1702                	sll	a4,a4,0x20
   1197e:	0705                	add	a4,a4,1
   11980:	8ef9                	and	a3,a3,a4
   11982:	fc1a                	sd	t1,56(sp)
   11984:	e299                	bnez	a3,1198a <_vfprintf_r+0x496>
   11986:	1d40106f          	j	12b5a <_vfprintf_r+0x1666>
   1198a:	7542                	ld	a0,48(sp)
   1198c:	1930                	add	a2,sp,184
   1198e:	85e6                	mv	a1,s9
   11990:	578030ef          	jal	14f08 <frexpl>
   11994:	00fff6b7          	lui	a3,0xfff
   11998:	4601                	li	a2,0
   1199a:	169a                	sll	a3,a3,0x26
   1199c:	01d060ef          	jal	181b8 <__multf3>
   119a0:	4601                	li	a2,0
   119a2:	4681                	li	a3,0
   119a4:	8caa                	mv	s9,a0
   119a6:	84ae                	mv	s1,a1
   119a8:	62c060ef          	jal	17fd4 <__eqtf2>
   119ac:	7362                	ld	t1,56(sp)
   119ae:	e111                	bnez	a0,119b2 <_vfprintf_r+0x4be>
   119b0:	dd62                	sw	s8,184(sp)
   119b2:	06100713          	li	a4,97
   119b6:	00e31463          	bne	t1,a4,119be <_vfprintf_r+0x4ca>
   119ba:	5ea0106f          	j	12fa4 <_vfprintf_r+0x1ab0>
   119be:	6765                	lui	a4,0x19
   119c0:	24070793          	add	a5,a4,576 # 19240 <__clzdi2+0x9e>
   119c4:	f83e                	sd	a5,48(sp)
   119c6:	020b1713          	sll	a4,s6,0x20
   119ca:	9301                	srl	a4,a4,0x20
   119cc:	0705                	add	a4,a4,1
   119ce:	040036b7          	lui	a3,0x4003
   119d2:	000b081b          	sext.w	a6,s6
   119d6:	00ed07b3          	add	a5,s10,a4
   119da:	1692                	sll	a3,a3,0x24
   119dc:	fc4e                	sd	s3,56(sp)
   119de:	f8a2                	sd	s0,112(sp)
   119e0:	8c4a                	mv	s8,s2
   119e2:	7b42                	ld	s6,48(sp)
   119e4:	e09a                	sd	t1,64(sp)
   119e6:	e4de                	sd	s7,72(sp)
   119e8:	e942                	sd	a6,144(sp)
   119ea:	89ea                	mv	s3,s10
   119ec:	893e                	mv	s2,a5
   119ee:	8436                	mv	s0,a3
   119f0:	a801                	j	11a00 <_vfprintf_r+0x50c>
   119f2:	4601                	li	a2,0
   119f4:	4681                	li	a3,0
   119f6:	5de060ef          	jal	17fd4 <__eqtf2>
   119fa:	e119                	bnez	a0,11a00 <_vfprintf_r+0x50c>
   119fc:	5680106f          	j	12f64 <_vfprintf_r+0x1a70>
   11a00:	4601                	li	a2,0
   11a02:	86a2                	mv	a3,s0
   11a04:	8566                	mv	a0,s9
   11a06:	85a6                	mv	a1,s1
   11a08:	7b0060ef          	jal	181b8 <__multf3>
   11a0c:	84ae                	mv	s1,a1
   11a0e:	8caa                	mv	s9,a0
   11a10:	5e6070ef          	jal	18ff6 <__fixtfsi>
   11a14:	00050b9b          	sext.w	s7,a0
   11a18:	674070ef          	jal	1908c <__floatsitf>
   11a1c:	86ae                	mv	a3,a1
   11a1e:	862a                	mv	a2,a0
   11a20:	85a6                	mv	a1,s1
   11a22:	8566                	mv	a0,s9
   11a24:	58b060ef          	jal	187ae <__subtf3>
   11a28:	017b06b3          	add	a3,s6,s7
   11a2c:	0006c683          	lbu	a3,0(a3) # 4003000 <__BSS_END__+0x3fe74c0>
   11a30:	88ce                	mv	a7,s3
   11a32:	0985                	add	s3,s3,1
   11a34:	fed98fa3          	sb	a3,-1(s3)
   11a38:	8caa                	mv	s9,a0
   11a3a:	84ae                	mv	s1,a1
   11a3c:	fb391be3          	bne	s2,s3,119f2 <_vfprintf_r+0x4fe>
   11a40:	6306                	ld	t1,64(sp)
   11a42:	01fff6b7          	lui	a3,0x1fff
   11a46:	1696                	sll	a3,a3,0x25
   11a48:	4601                	li	a2,0
   11a4a:	e91a                	sd	t1,144(sp)
   11a4c:	e0c6                	sd	a7,64(sp)
   11a4e:	8b5e                	mv	s6,s7
   11a50:	6ba6                	ld	s7,72(sp)
   11a52:	e4b6                	sd	a3,72(sp)
   11a54:	628060ef          	jal	1807c <__getf2>
   11a58:	8962                	mv	s2,s8
   11a5a:	7446                	ld	s0,112(sp)
   11a5c:	8c4e                	mv	s8,s3
   11a5e:	6886                	ld	a7,64(sp)
   11a60:	79e2                	ld	s3,56(sp)
   11a62:	634a                	ld	t1,144(sp)
   11a64:	02a04063          	bgtz	a0,11a84 <_vfprintf_r+0x590>
   11a68:	66a6                	ld	a3,72(sp)
   11a6a:	4601                	li	a2,0
   11a6c:	8566                	mv	a0,s9
   11a6e:	85a6                	mv	a1,s1
   11a70:	fc1a                	sd	t1,56(sp)
   11a72:	562060ef          	jal	17fd4 <__eqtf2>
   11a76:	7362                	ld	t1,56(sp)
   11a78:	e539                	bnez	a0,11ac6 <_vfprintf_r+0x5d2>
   11a7a:	001b7b13          	and	s6,s6,1
   11a7e:	6886                	ld	a7,64(sp)
   11a80:	040b0363          	beqz	s6,11ac6 <_vfprintf_r+0x5d2>
   11a84:	77c2                	ld	a5,48(sp)
   11a86:	e5c6                	sd	a7,200(sp)
   11a88:	fffc4603          	lbu	a2,-1(s8)
   11a8c:	00f7c583          	lbu	a1,15(a5)
   11a90:	86e2                	mv	a3,s8
   11a92:	00b61e63          	bne	a2,a1,11aae <_vfprintf_r+0x5ba>
   11a96:	03000513          	li	a0,48
   11a9a:	fea68fa3          	sb	a0,-1(a3) # 1ffefff <__BSS_END__+0x1fe34bf>
   11a9e:	66ae                	ld	a3,200(sp)
   11aa0:	fff68793          	add	a5,a3,-1
   11aa4:	e5be                	sd	a5,200(sp)
   11aa6:	fff6c603          	lbu	a2,-1(a3)
   11aaa:	fec588e3          	beq	a1,a2,11a9a <_vfprintf_r+0x5a6>
   11aae:	0016059b          	addw	a1,a2,1
   11ab2:	03900513          	li	a0,57
   11ab6:	0ff5f593          	zext.b	a1,a1
   11aba:	00a61463          	bne	a2,a0,11ac2 <_vfprintf_r+0x5ce>
   11abe:	0f40106f          	j	12bb2 <_vfprintf_r+0x16be>
   11ac2:	feb68fa3          	sb	a1,-1(a3)
   11ac6:	86e2                	mv	a3,s8
   11ac8:	57ea                	lw	a5,184(sp)
   11aca:	41a6873b          	subw	a4,a3,s10
   11ace:	fc3a                	sd	a4,56(sp)
   11ad0:	fff7871b          	addw	a4,a5,-1
   11ad4:	f83e                	sd	a5,48(sp)
   11ad6:	06100613          	li	a2,97
   11ada:	dd3a                	sw	a4,184(sp)
   11adc:	00c31463          	bne	t1,a2,11ae4 <_vfprintf_r+0x5f0>
   11ae0:	4d00106f          	j	12fb0 <_vfprintf_r+0x1abc>
   11ae4:	04100613          	li	a2,65
   11ae8:	05000693          	li	a3,80
   11aec:	00c30463          	beq	t1,a2,11af4 <_vfprintf_r+0x600>
   11af0:	0b80106f          	j	12ba8 <_vfprintf_r+0x16b4>
   11af4:	4605                	li	a2,1
   11af6:	0cd10023          	sb	a3,192(sp)
   11afa:	02b00693          	li	a3,43
   11afe:	00075763          	bgez	a4,11b0c <_vfprintf_r+0x618>
   11b02:	77c2                	ld	a5,48(sp)
   11b04:	4705                	li	a4,1
   11b06:	02d00693          	li	a3,45
   11b0a:	9f1d                	subw	a4,a4,a5
   11b0c:	0cd100a3          	sb	a3,193(sp)
   11b10:	46a5                	li	a3,9
   11b12:	00e6c463          	blt	a3,a4,11b1a <_vfprintf_r+0x626>
   11b16:	33a0106f          	j	12e50 <_vfprintf_r+0x195c>
   11b1a:	0cf10893          	add	a7,sp,207
   11b1e:	8546                	mv	a0,a7
   11b20:	4829                	li	a6,10
   11b22:	06300f13          	li	t5,99
   11b26:	030767bb          	remw	a5,a4,a6
   11b2a:	86aa                	mv	a3,a0
   11b2c:	863a                	mv	a2,a4
   11b2e:	157d                	add	a0,a0,-1
   11b30:	0307879b          	addw	a5,a5,48
   11b34:	fef68fa3          	sb	a5,-1(a3)
   11b38:	0307473b          	divw	a4,a4,a6
   11b3c:	fecf45e3          	blt	t5,a2,11b26 <_vfprintf_r+0x632>
   11b40:	0307059b          	addw	a1,a4,48
   11b44:	feb50fa3          	sb	a1,-1(a0)
   11b48:	ffe68713          	add	a4,a3,-2
   11b4c:	01176463          	bltu	a4,a7,11b54 <_vfprintf_r+0x660>
   11b50:	4a00106f          	j	12ff0 <_vfprintf_r+0x1afc>
   11b54:	0c210613          	add	a2,sp,194
   11b58:	00074783          	lbu	a5,0(a4)
   11b5c:	0705                	add	a4,a4,1
   11b5e:	0605                	add	a2,a2,1
   11b60:	fef60fa3          	sb	a5,-1(a2)
   11b64:	ff171ae3          	bne	a4,a7,11b58 <_vfprintf_r+0x664>
   11b68:	139c                	add	a5,sp,480
   11b6a:	40d786b3          	sub	a3,a5,a3
   11b6e:	ef36879b          	addw	a5,a3,-269
   11b72:	f8be                	sd	a5,112(sp)
   11b74:	7746                	ld	a4,112(sp)
   11b76:	77e2                	ld	a5,56(sp)
   11b78:	4605                	li	a2,1
   11b7a:	00e786bb          	addw	a3,a5,a4
   11b7e:	8736                	mv	a4,a3
   11b80:	00f64463          	blt	a2,a5,11b88 <_vfprintf_r+0x694>
   11b84:	30c0106f          	j	12e90 <_vfprintf_r+0x199c>
   11b88:	67c6                	ld	a5,80(sp)
   11b8a:	00f706bb          	addw	a3,a4,a5
   11b8e:	fff6c813          	not	a6,a3
   11b92:	bffdfe13          	and	t3,s11,-1025
   11b96:	43f85813          	sra	a6,a6,0x3f
   11b9a:	2e01                	sext.w	t3,t3
   11b9c:	0106f833          	and	a6,a3,a6
   11ba0:	100e6d93          	or	s11,t3,256
   11ba4:	00080c1b          	sext.w	s8,a6
   11ba8:	e482                	sd	zero,72(sp)
   11baa:	e082                	sd	zero,64(sp)
   11bac:	f802                	sd	zero,48(sp)
   11bae:	77a6                	ld	a5,104(sp)
   11bb0:	e399                	bnez	a5,11bb6 <_vfprintf_r+0x6c2>
   11bb2:	00e0106f          	j	12bc0 <_vfprintf_r+0x16cc>
   11bb6:	02d00713          	li	a4,45
   11bba:	0ae107a3          	sb	a4,175(sp)
   11bbe:	4b01                	li	s6,0
   11bc0:	2c05                	addw	s8,s8,1
   11bc2:	b4f9                	j	11690 <_vfprintf_r+0x19c>
   11bc4:	6522                	ld	a0,8(sp)
   11bc6:	1190                	add	a2,sp,224
   11bc8:	85ca                	mv	a1,s2
   11bca:	ed36                	sd	a3,152(sp)
   11bcc:	e91a                	sd	t1,144(sp)
   11bce:	f496                	sd	t0,104(sp)
   11bd0:	5c8010ef          	jal	13198 <__sprint_r>
   11bd4:	58051563          	bnez	a0,1215e <_vfprintf_r+0xc6a>
   11bd8:	74ce                	ld	s1,240(sp)
   11bda:	66ea                	ld	a3,152(sp)
   11bdc:	634a                	ld	t1,144(sp)
   11bde:	72a6                	ld	t0,104(sp)
   11be0:	8452                	mv	s0,s4
   11be2:	bcc5                	j	116d2 <_vfprintf_r+0x1de>
   11be4:	572e                	lw	a4,232(sp)
   11be6:	77e2                	ld	a5,56(sp)
   11be8:	4685                	li	a3,1
   11bea:	00170b1b          	addw	s6,a4,1
   11bee:	01a43023          	sd	s10,0(s0)
   11bf2:	0485                	add	s1,s1,1
   11bf4:	875a                	mv	a4,s6
   11bf6:	01040c93          	add	s9,s0,16
   11bfa:	7cf6d363          	bge	a3,a5,123c0 <_vfprintf_r+0xecc>
   11bfe:	4685                	li	a3,1
   11c00:	d5ba                	sw	a4,232(sp)
   11c02:	e414                	sd	a3,8(s0)
   11c04:	f9a6                	sd	s1,240(sp)
   11c06:	471d                	li	a4,7
   11c08:	2b6744e3          	blt	a4,s6,126b0 <_vfprintf_r+0x11bc>
   11c0c:	67c6                	ld	a5,80(sp)
   11c0e:	66e6                	ld	a3,88(sp)
   11c10:	2b05                	addw	s6,s6,1
   11c12:	94be                	add	s1,s1,a5
   11c14:	00dcb023          	sd	a3,0(s9)
   11c18:	00fcb423          	sd	a5,8(s9)
   11c1c:	f9a6                	sd	s1,240(sp)
   11c1e:	d5da                	sw	s6,232(sp)
   11c20:	471d                	li	a4,7
   11c22:	0cc1                	add	s9,s9,16
   11c24:	2b6742e3          	blt	a4,s6,126c8 <_vfprintf_r+0x11d4>
   11c28:	77e2                	ld	a5,56(sp)
   11c2a:	654e                	ld	a0,208(sp)
   11c2c:	65ee                	ld	a1,216(sp)
   11c2e:	4601                	li	a2,0
   11c30:	4681                	li	a3,0
   11c32:	fff7841b          	addw	s0,a5,-1
   11c36:	39e060ef          	jal	17fd4 <__eqtf2>
   11c3a:	7a050863          	beqz	a0,123ea <_vfprintf_r+0xef6>
   11c3e:	001d0793          	add	a5,s10,1
   11c42:	2b05                	addw	s6,s6,1
   11c44:	94a2                	add	s1,s1,s0
   11c46:	00fcb023          	sd	a5,0(s9)
   11c4a:	008cb423          	sd	s0,8(s9)
   11c4e:	f9a6                	sd	s1,240(sp)
   11c50:	d5da                	sw	s6,232(sp)
   11c52:	479d                	li	a5,7
   11c54:	7967c063          	blt	a5,s6,123d4 <_vfprintf_r+0xee0>
   11c58:	0cc1                	add	s9,s9,16
   11c5a:	7746                	ld	a4,112(sp)
   11c5c:	2b05                	addw	s6,s6,1
   11c5e:	019c                	add	a5,sp,192
   11c60:	94ba                	add	s1,s1,a4
   11c62:	00fcb023          	sd	a5,0(s9)
   11c66:	00ecb423          	sd	a4,8(s9)
   11c6a:	f9a6                	sd	s1,240(sp)
   11c6c:	000b071b          	sext.w	a4,s6
   11c70:	d5da                	sw	s6,232(sp)
   11c72:	479d                	li	a5,7
   11c74:	010c8413          	add	s0,s9,16
   11c78:	aae7d6e3          	bge	a5,a4,11724 <_vfprintf_r+0x230>
   11c7c:	6522                	ld	a0,8(sp)
   11c7e:	1190                	add	a2,sp,224
   11c80:	85ca                	mv	a1,s2
   11c82:	516010ef          	jal	13198 <__sprint_r>
   11c86:	4c051c63          	bnez	a0,1215e <_vfprintf_r+0xc6a>
   11c8a:	74ce                	ld	s1,240(sp)
   11c8c:	8452                	mv	s0,s4
   11c8e:	bc59                	j	11724 <_vfprintf_r+0x230>
   11c90:	010df793          	and	a5,s11,16
   11c94:	00079de3          	bnez	a5,124ae <_vfprintf_r+0xfba>
   11c98:	7682                	ld	a3,32(sp)
   11c9a:	040df793          	and	a5,s11,64
   11c9e:	4284                	lw	s1,0(a3)
   11ca0:	3c0786e3          	beqz	a5,1286c <_vfprintf_r+0x1378>
   11ca4:	14c2                	sll	s1,s1,0x30
   11ca6:	90c1                	srl	s1,s1,0x30
   11ca8:	be6d                	j	11862 <_vfprintf_r+0x36e>
   11caa:	010df793          	and	a5,s11,16
   11cae:	7c079563          	bnez	a5,12478 <_vfprintf_r+0xf84>
   11cb2:	7682                	ld	a3,32(sp)
   11cb4:	040df793          	and	a5,s11,64
   11cb8:	4284                	lw	s1,0(a3)
   11cba:	3c0781e3          	beqz	a5,1287c <_vfprintf_r+0x1388>
   11cbe:	0104949b          	sllw	s1,s1,0x10
   11cc2:	4104d49b          	sraw	s1,s1,0x10
   11cc6:	87a6                	mv	a5,s1
   11cc8:	b407d0e3          	bgez	a5,11808 <_vfprintf_r+0x314>
   11ccc:	f03a                	sd	a4,32(sp)
   11cce:	02d00713          	li	a4,45
   11cd2:	0ae107a3          	sb	a4,175(sp)
   11cd6:	409004b3          	neg	s1,s1
   11cda:	8cee                	mv	s9,s11
   11cdc:	4785                	li	a5,1
   11cde:	b80b5ce3          	bgez	s6,11876 <_vfprintf_r+0x382>
   11ce2:	4705                	li	a4,1
   11ce4:	48e78963          	beq	a5,a4,12176 <_vfprintf_r+0xc82>
   11ce8:	4709                	li	a4,2
   11cea:	30e78163          	beq	a5,a4,11fec <_vfprintf_r+0xaf8>
   11cee:	0af4                	add	a3,sp,348
   11cf0:	8d36                	mv	s10,a3
   11cf2:	0074f713          	and	a4,s1,7
   11cf6:	03070713          	add	a4,a4,48
   11cfa:	feed0fa3          	sb	a4,-1(s10)
   11cfe:	808d                	srl	s1,s1,0x3
   11d00:	866a                	mv	a2,s10
   11d02:	1d7d                	add	s10,s10,-1
   11d04:	f4fd                	bnez	s1,11cf2 <_vfprintf_r+0x7fe>
   11d06:	001cf593          	and	a1,s9,1
   11d0a:	2e058e63          	beqz	a1,12006 <_vfprintf_r+0xb12>
   11d0e:	03000593          	li	a1,48
   11d12:	2eb70a63          	beq	a4,a1,12006 <_vfprintf_r+0xb12>
   11d16:	1679                	add	a2,a2,-2
   11d18:	febd0fa3          	sb	a1,-1(s10)
   11d1c:	9e91                	subw	a3,a3,a2
   11d1e:	8de6                	mv	s11,s9
   11d20:	8d32                	mv	s10,a2
   11d22:	b621                	j	1182a <_vfprintf_r+0x336>
   11d24:	7782                	ld	a5,32(sp)
   11d26:	0a0107a3          	sb	zero,175(sp)
   11d2a:	0007bd03          	ld	s10,0(a5)
   11d2e:	00878493          	add	s1,a5,8
   11d32:	080d0ae3          	beqz	s10,125c6 <_vfprintf_r+0x10d2>
   11d36:	280b4fe3          	bltz	s6,127d4 <_vfprintf_r+0x12e0>
   11d3a:	865a                	mv	a2,s6
   11d3c:	4581                	li	a1,0
   11d3e:	856a                	mv	a0,s10
   11d40:	f01a                	sd	t1,32(sp)
   11d42:	3c3020ef          	jal	14904 <memchr>
   11d46:	ec2a                	sd	a0,24(sp)
   11d48:	7302                	ld	t1,32(sp)
   11d4a:	e119                	bnez	a0,11d50 <_vfprintf_r+0x85c>
   11d4c:	7b10006f          	j	12cfc <_vfprintf_r+0x1808>
   11d50:	67e2                	ld	a5,24(sp)
   11d52:	0af14703          	lbu	a4,175(sp)
   11d56:	f026                	sd	s1,32(sp)
   11d58:	41a786bb          	subw	a3,a5,s10
   11d5c:	fff6c813          	not	a6,a3
   11d60:	43f85813          	sra	a6,a6,0x3f
   11d64:	ec02                	sd	zero,24(sp)
   11d66:	e482                	sd	zero,72(sp)
   11d68:	e082                	sd	zero,64(sp)
   11d6a:	f802                	sd	zero,48(sp)
   11d6c:	00d87c33          	and	s8,a6,a3
   11d70:	4b01                	li	s6,0
   11d72:	ac071ae3          	bnez	a4,11846 <_vfprintf_r+0x352>
   11d76:	ba29                	j	11690 <_vfprintf_r+0x19c>
   11d78:	7702                	ld	a4,32(sp)
   11d7a:	0a0107a3          	sb	zero,175(sp)
   11d7e:	4c05                	li	s8,1
   11d80:	431c                	lw	a5,0(a4)
   11d82:	0721                	add	a4,a4,8
   11d84:	f03a                	sd	a4,32(sp)
   11d86:	0ef10c23          	sb	a5,248(sp)
   11d8a:	4685                	li	a3,1
   11d8c:	0f810d13          	add	s10,sp,248
   11d90:	b8dd                	j	11686 <_vfprintf_r+0x192>
   11d92:	7782                	ld	a5,32(sp)
   11d94:	0007ab83          	lw	s7,0(a5)
   11d98:	07a1                	add	a5,a5,8
   11d9a:	6c0bda63          	bgez	s7,1246e <_vfprintf_r+0xf7a>
   11d9e:	41700bbb          	negw	s7,s7
   11da2:	f03e                	sd	a5,32(sp)
   11da4:	004ded93          	or	s11,s11,4
   11da8:	0009c303          	lbu	t1,0(s3)
   11dac:	2d81                	sext.w	s11,s11
   11dae:	b0bd                	j	1161c <_vfprintf_r+0x128>
   11db0:	02b00793          	li	a5,43
   11db4:	0009c303          	lbu	t1,0(s3)
   11db8:	0af107a3          	sb	a5,175(sp)
   11dbc:	b085                	j	1161c <_vfprintf_r+0x128>
   11dbe:	080ded93          	or	s11,s11,128
   11dc2:	0009c303          	lbu	t1,0(s3)
   11dc6:	2d81                	sext.w	s11,s11
   11dc8:	b891                	j	1161c <_vfprintf_r+0x128>
   11dca:	0009c303          	lbu	t1,0(s3)
   11dce:	02a00693          	li	a3,42
   11dd2:	00198713          	add	a4,s3,1
   11dd6:	00d31463          	bne	t1,a3,11dde <_vfprintf_r+0x8ea>
   11dda:	21e0106f          	j	12ff8 <_vfprintf_r+0x1b04>
   11dde:	fd03079b          	addw	a5,t1,-48
   11de2:	45a5                	li	a1,9
   11de4:	4681                	li	a3,0
   11de6:	4625                	li	a2,9
   11de8:	89ba                	mv	s3,a4
   11dea:	4b01                	li	s6,0
   11dec:	82f5eae3          	bltu	a1,a5,11620 <_vfprintf_r+0x12c>
   11df0:	00074303          	lbu	t1,0(a4)
   11df4:	00269b1b          	sllw	s6,a3,0x2
   11df8:	00db0b3b          	addw	s6,s6,a3
   11dfc:	001b1b1b          	sllw	s6,s6,0x1
   11e00:	016786bb          	addw	a3,a5,s6
   11e04:	fd03079b          	addw	a5,t1,-48
   11e08:	8b36                	mv	s6,a3
   11e0a:	0705                	add	a4,a4,1
   11e0c:	fef672e3          	bgeu	a2,a5,11df0 <_vfprintf_r+0x8fc>
   11e10:	7206c563          	bltz	a3,1253a <_vfprintf_r+0x1046>
   11e14:	89ba                	mv	s3,a4
   11e16:	80bff06f          	j	11620 <_vfprintf_r+0x12c>
   11e1a:	010dec93          	or	s9,s11,16
   11e1e:	2c81                	sext.w	s9,s9
   11e20:	7682                	ld	a3,32(sp)
   11e22:	020cf793          	and	a5,s9,32
   11e26:	00868713          	add	a4,a3,8
   11e2a:	60078963          	beqz	a5,1243c <_vfprintf_r+0xf48>
   11e2e:	6284                	ld	s1,0(a3)
   11e30:	4785                	li	a5,1
   11e32:	f03a                	sd	a4,32(sp)
   11e34:	bc25                	j	1186c <_vfprintf_r+0x378>
   11e36:	6c22                	ld	s8,8(sp)
   11e38:	8562                	mv	a0,s8
   11e3a:	4b5020ef          	jal	14aee <_localeconv_r>
   11e3e:	651c                	ld	a5,8(a0)
   11e40:	853e                	mv	a0,a5
   11e42:	fcbe                	sd	a5,120(sp)
   11e44:	739020ef          	jal	14d7c <strlen>
   11e48:	87aa                	mv	a5,a0
   11e4a:	8562                	mv	a0,s8
   11e4c:	e53e                	sd	a5,136(sp)
   11e4e:	8c3e                	mv	s8,a5
   11e50:	49f020ef          	jal	14aee <_localeconv_r>
   11e54:	691c                	ld	a5,16(a0)
   11e56:	0009c303          	lbu	t1,0(s3)
   11e5a:	e13e                	sd	a5,128(sp)
   11e5c:	fc0c0063          	beqz	s8,1161c <_vfprintf_r+0x128>
   11e60:	fa078e63          	beqz	a5,1161c <_vfprintf_r+0x128>
   11e64:	0007c783          	lbu	a5,0(a5)
   11e68:	fa078a63          	beqz	a5,1161c <_vfprintf_r+0x128>
   11e6c:	400ded93          	or	s11,s11,1024
   11e70:	2d81                	sext.w	s11,s11
   11e72:	faaff06f          	j	1161c <_vfprintf_r+0x128>
   11e76:	001ded93          	or	s11,s11,1
   11e7a:	0009c303          	lbu	t1,0(s3)
   11e7e:	2d81                	sext.w	s11,s11
   11e80:	f9cff06f          	j	1161c <_vfprintf_r+0x128>
   11e84:	0af14783          	lbu	a5,175(sp)
   11e88:	0009c303          	lbu	t1,0(s3)
   11e8c:	f8079863          	bnez	a5,1161c <_vfprintf_r+0x128>
   11e90:	02000793          	li	a5,32
   11e94:	0af107a3          	sb	a5,175(sp)
   11e98:	f84ff06f          	j	1161c <_vfprintf_r+0x128>
   11e9c:	008ded93          	or	s11,s11,8
   11ea0:	0009c303          	lbu	t1,0(s3)
   11ea4:	2d81                	sext.w	s11,s11
   11ea6:	f76ff06f          	j	1161c <_vfprintf_r+0x128>
   11eaa:	020ded93          	or	s11,s11,32
   11eae:	0009c303          	lbu	t1,0(s3)
   11eb2:	2d81                	sext.w	s11,s11
   11eb4:	f68ff06f          	j	1161c <_vfprintf_r+0x128>
   11eb8:	7702                	ld	a4,32(sp)
   11eba:	67a1                	lui	a5,0x8
   11ebc:	83078793          	add	a5,a5,-2000 # 7830 <exit-0x88b8>
   11ec0:	0af11823          	sh	a5,176(sp)
   11ec4:	00870793          	add	a5,a4,8
   11ec8:	f03e                	sd	a5,32(sp)
   11eca:	67e5                	lui	a5,0x19
   11ecc:	22878793          	add	a5,a5,552 # 19228 <__clzdi2+0x86>
   11ed0:	002dec93          	or	s9,s11,2
   11ed4:	f0be                	sd	a5,96(sp)
   11ed6:	6304                	ld	s1,0(a4)
   11ed8:	2c81                	sext.w	s9,s9
   11eda:	4789                	li	a5,2
   11edc:	07800313          	li	t1,120
   11ee0:	b271                	j	1186c <_vfprintf_r+0x378>
   11ee2:	7702                	ld	a4,32(sp)
   11ee4:	020df793          	and	a5,s11,32
   11ee8:	6318                	ld	a4,0(a4)
   11eea:	5a078263          	beqz	a5,1248e <_vfprintf_r+0xf9a>
   11eee:	67c2                	ld	a5,16(sp)
   11ef0:	e31c                	sd	a5,0(a4)
   11ef2:	7782                	ld	a5,32(sp)
   11ef4:	8d4e                	mv	s10,s3
   11ef6:	07a1                	add	a5,a5,8
   11ef8:	f03e                	sd	a5,32(sp)
   11efa:	b8b9                	j	11758 <_vfprintf_r+0x264>
   11efc:	0009c303          	lbu	t1,0(s3)
   11f00:	06c00793          	li	a5,108
   11f04:	68f30f63          	beq	t1,a5,125a2 <_vfprintf_r+0x10ae>
   11f08:	010ded93          	or	s11,s11,16
   11f0c:	2d81                	sext.w	s11,s11
   11f0e:	f0eff06f          	j	1161c <_vfprintf_r+0x128>
   11f12:	0009c303          	lbu	t1,0(s3)
   11f16:	06800793          	li	a5,104
   11f1a:	66f30c63          	beq	t1,a5,12592 <_vfprintf_r+0x109e>
   11f1e:	040ded93          	or	s11,s11,64
   11f22:	2d81                	sext.w	s11,s11
   11f24:	ef8ff06f          	j	1161c <_vfprintf_r+0x128>
   11f28:	06500713          	li	a4,101
   11f2c:	ca675ce3          	bge	a4,t1,11be4 <_vfprintf_r+0x6f0>
   11f30:	654e                	ld	a0,208(sp)
   11f32:	65ee                	ld	a1,216(sp)
   11f34:	4601                	li	a2,0
   11f36:	4681                	li	a3,0
   11f38:	09c060ef          	jal	17fd4 <__eqtf2>
   11f3c:	38051463          	bnez	a0,122c4 <_vfprintf_r+0xdd0>
   11f40:	57ae                	lw	a5,232(sp)
   11f42:	6765                	lui	a4,0x19
   11f44:	26070713          	add	a4,a4,608 # 19260 <__clzdi2+0xbe>
   11f48:	2785                	addw	a5,a5,1
   11f4a:	e018                	sd	a4,0(s0)
   11f4c:	0485                	add	s1,s1,1
   11f4e:	4705                	li	a4,1
   11f50:	e418                	sd	a4,8(s0)
   11f52:	d5be                	sw	a5,232(sp)
   11f54:	0007871b          	sext.w	a4,a5
   11f58:	f9a6                	sd	s1,240(sp)
   11f5a:	479d                	li	a5,7
   11f5c:	0441                	add	s0,s0,16
   11f5e:	7ee7c963          	blt	a5,a4,12750 <_vfprintf_r+0x125c>
   11f62:	57ea                	lw	a5,184(sp)
   11f64:	7762                	ld	a4,56(sp)
   11f66:	4ee7df63          	bge	a5,a4,12464 <_vfprintf_r+0xf70>
   11f6a:	6746                	ld	a4,80(sp)
   11f6c:	57ae                	lw	a5,232(sp)
   11f6e:	66e6                	ld	a3,88(sp)
   11f70:	94ba                	add	s1,s1,a4
   11f72:	2785                	addw	a5,a5,1
   11f74:	e418                	sd	a4,8(s0)
   11f76:	e014                	sd	a3,0(s0)
   11f78:	0007871b          	sext.w	a4,a5
   11f7c:	d5be                	sw	a5,232(sp)
   11f7e:	f9a6                	sd	s1,240(sp)
   11f80:	479d                	li	a5,7
   11f82:	0441                	add	s0,s0,16
   11f84:	62e7c763          	blt	a5,a4,125b2 <_vfprintf_r+0x10be>
   11f88:	77e2                	ld	a5,56(sp)
   11f8a:	fff78b1b          	addw	s6,a5,-1
   11f8e:	f9605b63          	blez	s6,11724 <_vfprintf_r+0x230>
   11f92:	68e5                	lui	a7,0x19
   11f94:	4741                	li	a4,16
   11f96:	57ae                	lw	a5,232(sp)
   11f98:	4a888893          	add	a7,a7,1192 # 194a8 <zeroes.0>
   11f9c:	7d675863          	bge	a4,s6,1276c <_vfprintf_r+0x1278>
   11fa0:	f84e                	sd	s3,48(sp)
   11fa2:	4cc1                	li	s9,16
   11fa4:	89da                	mv	s3,s6
   11fa6:	4d1d                	li	s10,7
   11fa8:	8b46                	mv	s6,a7
   11faa:	a021                	j	11fb2 <_vfprintf_r+0xabe>
   11fac:	39c1                	addw	s3,s3,-16
   11fae:	7b3cdc63          	bge	s9,s3,12766 <_vfprintf_r+0x1272>
   11fb2:	2785                	addw	a5,a5,1
   11fb4:	04c1                	add	s1,s1,16
   11fb6:	01643023          	sd	s6,0(s0)
   11fba:	01943423          	sd	s9,8(s0)
   11fbe:	f9a6                	sd	s1,240(sp)
   11fc0:	d5be                	sw	a5,232(sp)
   11fc2:	0441                	add	s0,s0,16
   11fc4:	fefd54e3          	bge	s10,a5,11fac <_vfprintf_r+0xab8>
   11fc8:	6522                	ld	a0,8(sp)
   11fca:	1190                	add	a2,sp,224
   11fcc:	85ca                	mv	a1,s2
   11fce:	1ca010ef          	jal	13198 <__sprint_r>
   11fd2:	18051663          	bnez	a0,1215e <_vfprintf_r+0xc6a>
   11fd6:	74ce                	ld	s1,240(sp)
   11fd8:	57ae                	lw	a5,232(sp)
   11fda:	8452                	mv	s0,s4
   11fdc:	bfc1                	j	11fac <_vfprintf_r+0xab8>
   11fde:	4705                	li	a4,1
   11fe0:	62e789e3          	beq	a5,a4,12e12 <_vfprintf_r+0x191e>
   11fe4:	4709                	li	a4,2
   11fe6:	8cee                	mv	s9,s11
   11fe8:	d0e793e3          	bne	a5,a4,11cee <_vfprintf_r+0x7fa>
   11fec:	7706                	ld	a4,96(sp)
   11fee:	0af4                	add	a3,sp,348
   11ff0:	8d36                	mv	s10,a3
   11ff2:	00f4f793          	and	a5,s1,15
   11ff6:	97ba                	add	a5,a5,a4
   11ff8:	0007c783          	lbu	a5,0(a5)
   11ffc:	8091                	srl	s1,s1,0x4
   11ffe:	1d7d                	add	s10,s10,-1
   12000:	00fd0023          	sb	a5,0(s10)
   12004:	f4fd                	bnez	s1,11ff2 <_vfprintf_r+0xafe>
   12006:	41a686bb          	subw	a3,a3,s10
   1200a:	8de6                	mv	s11,s9
   1200c:	81fff06f          	j	1182a <_vfprintf_r+0x336>
   12010:	418b8cbb          	subw	s9,s7,s8
   12014:	ef905463          	blez	s9,116fc <_vfprintf_r+0x208>
   12018:	68e5                	lui	a7,0x19
   1201a:	45c1                	li	a1,16
   1201c:	562e                	lw	a2,232(sp)
   1201e:	4a888893          	add	a7,a7,1192 # 194a8 <zeroes.0>
   12022:	0595df63          	bge	a1,s9,12080 <_vfprintf_r+0xb8c>
   12026:	87a2                	mv	a5,s0
   12028:	8726                	mv	a4,s1
   1202a:	8466                	mv	s0,s9
   1202c:	4f41                	li	t5,16
   1202e:	8ce2                	mv	s9,s8
   12030:	4f9d                	li	t6,7
   12032:	f49a                	sd	t1,104(sp)
   12034:	8c36                	mv	s8,a3
   12036:	84c6                	mv	s1,a7
   12038:	a021                	j	12040 <_vfprintf_r+0xb4c>
   1203a:	3441                	addw	s0,s0,-16
   1203c:	028f5b63          	bge	t5,s0,12072 <_vfprintf_r+0xb7e>
   12040:	2605                	addw	a2,a2,1
   12042:	0741                	add	a4,a4,16
   12044:	e384                	sd	s1,0(a5)
   12046:	01e7b423          	sd	t5,8(a5)
   1204a:	f9ba                	sd	a4,240(sp)
   1204c:	d5b2                	sw	a2,232(sp)
   1204e:	07c1                	add	a5,a5,16
   12050:	fecfd5e3          	bge	t6,a2,1203a <_vfprintf_r+0xb46>
   12054:	6522                	ld	a0,8(sp)
   12056:	1190                	add	a2,sp,224
   12058:	85ca                	mv	a1,s2
   1205a:	13e010ef          	jal	13198 <__sprint_r>
   1205e:	10051063          	bnez	a0,1215e <_vfprintf_r+0xc6a>
   12062:	4f41                	li	t5,16
   12064:	3441                	addw	s0,s0,-16
   12066:	774e                	ld	a4,240(sp)
   12068:	562e                	lw	a2,232(sp)
   1206a:	87d2                	mv	a5,s4
   1206c:	4f9d                	li	t6,7
   1206e:	fc8f49e3          	blt	t5,s0,12040 <_vfprintf_r+0xb4c>
   12072:	7326                	ld	t1,104(sp)
   12074:	86e2                	mv	a3,s8
   12076:	88a6                	mv	a7,s1
   12078:	8c66                	mv	s8,s9
   1207a:	84ba                	mv	s1,a4
   1207c:	8ca2                	mv	s9,s0
   1207e:	843e                	mv	s0,a5
   12080:	0016059b          	addw	a1,a2,1
   12084:	94e6                	add	s1,s1,s9
   12086:	01143023          	sd	a7,0(s0)
   1208a:	01943423          	sd	s9,8(s0)
   1208e:	f9a6                	sd	s1,240(sp)
   12090:	d5ae                	sw	a1,232(sp)
   12092:	471d                	li	a4,7
   12094:	0441                	add	s0,s0,16
   12096:	e6b75363          	bge	a4,a1,116fc <_vfprintf_r+0x208>
   1209a:	6522                	ld	a0,8(sp)
   1209c:	1190                	add	a2,sp,224
   1209e:	85ca                	mv	a1,s2
   120a0:	e936                	sd	a3,144(sp)
   120a2:	f49a                	sd	t1,104(sp)
   120a4:	0f4010ef          	jal	13198 <__sprint_r>
   120a8:	e95d                	bnez	a0,1215e <_vfprintf_r+0xc6a>
   120aa:	74ce                	ld	s1,240(sp)
   120ac:	66ca                	ld	a3,144(sp)
   120ae:	7326                	ld	t1,104(sp)
   120b0:	8452                	mv	s0,s4
   120b2:	e4aff06f          	j	116fc <_vfprintf_r+0x208>
   120b6:	68e5                	lui	a7,0x19
   120b8:	4741                	li	a4,16
   120ba:	562e                	lw	a2,232(sp)
   120bc:	4a888893          	add	a7,a7,1192 # 194a8 <zeroes.0>
   120c0:	05675d63          	bge	a4,s6,1211a <_vfprintf_r+0xc26>
   120c4:	85a6                	mv	a1,s1
   120c6:	87a2                	mv	a5,s0
   120c8:	84b6                	mv	s1,a3
   120ca:	845a                	mv	s0,s6
   120cc:	4741                	li	a4,16
   120ce:	4c9d                	li	s9,7
   120d0:	f49a                	sd	t1,104(sp)
   120d2:	8b56                	mv	s6,s5
   120d4:	86ae                	mv	a3,a1
   120d6:	a021                	j	120de <_vfprintf_r+0xbea>
   120d8:	3441                	addw	s0,s0,-16
   120da:	02875963          	bge	a4,s0,1210c <_vfprintf_r+0xc18>
   120de:	2605                	addw	a2,a2,1
   120e0:	06c1                	add	a3,a3,16
   120e2:	0157b023          	sd	s5,0(a5)
   120e6:	e798                	sd	a4,8(a5)
   120e8:	f9b6                	sd	a3,240(sp)
   120ea:	d5b2                	sw	a2,232(sp)
   120ec:	07c1                	add	a5,a5,16
   120ee:	feccd5e3          	bge	s9,a2,120d8 <_vfprintf_r+0xbe4>
   120f2:	6522                	ld	a0,8(sp)
   120f4:	1190                	add	a2,sp,224
   120f6:	85ca                	mv	a1,s2
   120f8:	0a0010ef          	jal	13198 <__sprint_r>
   120fc:	e12d                	bnez	a0,1215e <_vfprintf_r+0xc6a>
   120fe:	4741                	li	a4,16
   12100:	3441                	addw	s0,s0,-16
   12102:	76ce                	ld	a3,240(sp)
   12104:	562e                	lw	a2,232(sp)
   12106:	87d2                	mv	a5,s4
   12108:	fc874be3          	blt	a4,s0,120de <_vfprintf_r+0xbea>
   1210c:	7326                	ld	t1,104(sp)
   1210e:	8736                	mv	a4,a3
   12110:	88da                	mv	a7,s6
   12112:	86a6                	mv	a3,s1
   12114:	8b22                	mv	s6,s0
   12116:	84ba                	mv	s1,a4
   12118:	843e                	mv	s0,a5
   1211a:	0016059b          	addw	a1,a2,1
   1211e:	94da                	add	s1,s1,s6
   12120:	01143023          	sd	a7,0(s0)
   12124:	01643423          	sd	s6,8(s0)
   12128:	f9a6                	sd	s1,240(sp)
   1212a:	d5ae                	sw	a1,232(sp)
   1212c:	471d                	li	a4,7
   1212e:	0441                	add	s0,s0,16
   12130:	dcb75a63          	bge	a4,a1,11704 <_vfprintf_r+0x210>
   12134:	6522                	ld	a0,8(sp)
   12136:	1190                	add	a2,sp,224
   12138:	85ca                	mv	a1,s2
   1213a:	e936                	sd	a3,144(sp)
   1213c:	f49a                	sd	t1,104(sp)
   1213e:	05a010ef          	jal	13198 <__sprint_r>
   12142:	ed11                	bnez	a0,1215e <_vfprintf_r+0xc6a>
   12144:	74ce                	ld	s1,240(sp)
   12146:	66ca                	ld	a3,144(sp)
   12148:	7326                	ld	t1,104(sp)
   1214a:	8452                	mv	s0,s4
   1214c:	db8ff06f          	j	11704 <_vfprintf_r+0x210>
   12150:	6522                	ld	a0,8(sp)
   12152:	1190                	add	a2,sp,224
   12154:	85ca                	mv	a1,s2
   12156:	042010ef          	jal	13198 <__sprint_r>
   1215a:	de050663          	beqz	a0,11746 <_vfprintf_r+0x252>
   1215e:	65e2                	ld	a1,24(sp)
   12160:	e0058463          	beqz	a1,11768 <_vfprintf_r+0x274>
   12164:	6522                	ld	a0,8(sp)
   12166:	b45fe0ef          	jal	10caa <_free_r>
   1216a:	dfeff06f          	j	11768 <_vfprintf_r+0x274>
   1216e:	4705                	li	a4,1
   12170:	8cee                	mv	s9,s11
   12172:	b6e79be3          	bne	a5,a4,11ce8 <_vfprintf_r+0x7f4>
   12176:	47a5                	li	a5,9
   12178:	3697e263          	bltu	a5,s1,124dc <_vfprintf_r+0xfe8>
   1217c:	0304849b          	addw	s1,s1,48
   12180:	14910da3          	sb	s1,347(sp)
   12184:	8de6                	mv	s11,s9
   12186:	4685                	li	a3,1
   12188:	15b10d13          	add	s10,sp,347
   1218c:	e9eff06f          	j	1182a <_vfprintf_r+0x336>
   12190:	68e5                	lui	a7,0x19
   12192:	45c1                	li	a1,16
   12194:	562e                	lw	a2,232(sp)
   12196:	4b888893          	add	a7,a7,1208 # 194b8 <blanks.1>
   1219a:	04e5de63          	bge	a1,a4,121f6 <_vfprintf_r+0xd02>
   1219e:	ed36                	sd	a3,152(sp)
   121a0:	87a2                	mv	a5,s0
   121a2:	86a6                	mv	a3,s1
   121a4:	4f41                	li	t5,16
   121a6:	439d                	li	t2,7
   121a8:	f496                	sd	t0,104(sp)
   121aa:	e91a                	sd	t1,144(sp)
   121ac:	843a                	mv	s0,a4
   121ae:	84c6                	mv	s1,a7
   121b0:	a021                	j	121b8 <_vfprintf_r+0xcc4>
   121b2:	3441                	addw	s0,s0,-16
   121b4:	028f5a63          	bge	t5,s0,121e8 <_vfprintf_r+0xcf4>
   121b8:	2605                	addw	a2,a2,1
   121ba:	06c1                	add	a3,a3,16
   121bc:	e384                	sd	s1,0(a5)
   121be:	01e7b423          	sd	t5,8(a5)
   121c2:	f9b6                	sd	a3,240(sp)
   121c4:	d5b2                	sw	a2,232(sp)
   121c6:	07c1                	add	a5,a5,16
   121c8:	fec3d5e3          	bge	t2,a2,121b2 <_vfprintf_r+0xcbe>
   121cc:	6522                	ld	a0,8(sp)
   121ce:	1190                	add	a2,sp,224
   121d0:	85ca                	mv	a1,s2
   121d2:	7c7000ef          	jal	13198 <__sprint_r>
   121d6:	f541                	bnez	a0,1215e <_vfprintf_r+0xc6a>
   121d8:	4f41                	li	t5,16
   121da:	3441                	addw	s0,s0,-16
   121dc:	76ce                	ld	a3,240(sp)
   121de:	562e                	lw	a2,232(sp)
   121e0:	87d2                	mv	a5,s4
   121e2:	439d                	li	t2,7
   121e4:	fc8f4ae3          	blt	t5,s0,121b8 <_vfprintf_r+0xcc4>
   121e8:	88a6                	mv	a7,s1
   121ea:	72a6                	ld	t0,104(sp)
   121ec:	84b6                	mv	s1,a3
   121ee:	634a                	ld	t1,144(sp)
   121f0:	66ea                	ld	a3,152(sp)
   121f2:	8722                	mv	a4,s0
   121f4:	843e                	mv	s0,a5
   121f6:	94ba                	add	s1,s1,a4
   121f8:	0016059b          	addw	a1,a2,1
   121fc:	e418                	sd	a4,8(s0)
   121fe:	01143023          	sd	a7,0(s0)
   12202:	f9a6                	sd	s1,240(sp)
   12204:	d5ae                	sw	a1,232(sp)
   12206:	471d                	li	a4,7
   12208:	0441                	add	s0,s0,16
   1220a:	cab75163          	bge	a4,a1,116ac <_vfprintf_r+0x1b8>
   1220e:	6522                	ld	a0,8(sp)
   12210:	1190                	add	a2,sp,224
   12212:	85ca                	mv	a1,s2
   12214:	ed36                	sd	a3,152(sp)
   12216:	e91a                	sd	t1,144(sp)
   12218:	f496                	sd	t0,104(sp)
   1221a:	77f000ef          	jal	13198 <__sprint_r>
   1221e:	f121                	bnez	a0,1215e <_vfprintf_r+0xc6a>
   12220:	74ce                	ld	s1,240(sp)
   12222:	66ea                	ld	a3,152(sp)
   12224:	634a                	ld	t1,144(sp)
   12226:	72a6                	ld	t0,104(sp)
   12228:	8452                	mv	s0,s4
   1222a:	c82ff06f          	j	116ac <_vfprintf_r+0x1b8>
   1222e:	6522                	ld	a0,8(sp)
   12230:	1190                	add	a2,sp,224
   12232:	85ca                	mv	a1,s2
   12234:	e936                	sd	a3,144(sp)
   12236:	f49a                	sd	t1,104(sp)
   12238:	761000ef          	jal	13198 <__sprint_r>
   1223c:	f10d                	bnez	a0,1215e <_vfprintf_r+0xc6a>
   1223e:	74ce                	ld	s1,240(sp)
   12240:	66ca                	ld	a3,144(sp)
   12242:	7326                	ld	t1,104(sp)
   12244:	8452                	mv	s0,s4
   12246:	caeff06f          	j	116f4 <_vfprintf_r+0x200>
   1224a:	68e5                	lui	a7,0x19
   1224c:	4b888893          	add	a7,a7,1208 # 194b8 <blanks.1>
   12250:	4741                	li	a4,16
   12252:	57ae                	lw	a5,232(sp)
   12254:	4cc1                	li	s9,16
   12256:	4d1d                	li	s10,7
   12258:	8dc6                	mv	s11,a7
   1225a:	01674663          	blt	a4,s6,12266 <_vfprintf_r+0xd72>
   1225e:	a82d                	j	12298 <_vfprintf_r+0xda4>
   12260:	3b41                	addw	s6,s6,-16
   12262:	036cda63          	bge	s9,s6,12296 <_vfprintf_r+0xda2>
   12266:	2785                	addw	a5,a5,1
   12268:	04c1                	add	s1,s1,16
   1226a:	01b43023          	sd	s11,0(s0)
   1226e:	01943423          	sd	s9,8(s0)
   12272:	f9a6                	sd	s1,240(sp)
   12274:	d5be                	sw	a5,232(sp)
   12276:	0441                	add	s0,s0,16
   12278:	fefd54e3          	bge	s10,a5,12260 <_vfprintf_r+0xd6c>
   1227c:	6522                	ld	a0,8(sp)
   1227e:	1190                	add	a2,sp,224
   12280:	85ca                	mv	a1,s2
   12282:	717000ef          	jal	13198 <__sprint_r>
   12286:	ec051ce3          	bnez	a0,1215e <_vfprintf_r+0xc6a>
   1228a:	3b41                	addw	s6,s6,-16
   1228c:	74ce                	ld	s1,240(sp)
   1228e:	57ae                	lw	a5,232(sp)
   12290:	8452                	mv	s0,s4
   12292:	fd6ccae3          	blt	s9,s6,12266 <_vfprintf_r+0xd72>
   12296:	88ee                	mv	a7,s11
   12298:	0017871b          	addw	a4,a5,1
   1229c:	94da                	add	s1,s1,s6
   1229e:	01143023          	sd	a7,0(s0)
   122a2:	01643423          	sd	s6,8(s0)
   122a6:	f9a6                	sd	s1,240(sp)
   122a8:	d5ba                	sw	a4,232(sp)
   122aa:	479d                	li	a5,7
   122ac:	c8e7d463          	bge	a5,a4,11734 <_vfprintf_r+0x240>
   122b0:	6522                	ld	a0,8(sp)
   122b2:	1190                	add	a2,sp,224
   122b4:	85ca                	mv	a1,s2
   122b6:	6e3000ef          	jal	13198 <__sprint_r>
   122ba:	ea0512e3          	bnez	a0,1215e <_vfprintf_r+0xc6a>
   122be:	74ce                	ld	s1,240(sp)
   122c0:	c74ff06f          	j	11734 <_vfprintf_r+0x240>
   122c4:	576a                	lw	a4,184(sp)
   122c6:	40e05d63          	blez	a4,126e0 <_vfprintf_r+0x11ec>
   122ca:	77c2                	ld	a5,48(sp)
   122cc:	7762                	ld	a4,56(sp)
   122ce:	00078b1b          	sext.w	s6,a5
   122d2:	24f74f63          	blt	a4,a5,12530 <_vfprintf_r+0x103c>
   122d6:	03605063          	blez	s6,122f6 <_vfprintf_r+0xe02>
   122da:	572e                	lw	a4,232(sp)
   122dc:	94da                	add	s1,s1,s6
   122de:	01a43023          	sd	s10,0(s0)
   122e2:	0017069b          	addw	a3,a4,1
   122e6:	01643423          	sd	s6,8(s0)
   122ea:	f9a6                	sd	s1,240(sp)
   122ec:	d5b6                	sw	a3,232(sp)
   122ee:	471d                	li	a4,7
   122f0:	0441                	add	s0,s0,16
   122f2:	7cd74863          	blt	a4,a3,12ac2 <_vfprintf_r+0x15ce>
   122f6:	fffb4713          	not	a4,s6
   122fa:	77c2                	ld	a5,48(sp)
   122fc:	977d                	sra	a4,a4,0x3f
   122fe:	00eb7b33          	and	s6,s6,a4
   12302:	41678b3b          	subw	s6,a5,s6
   12306:	2d604c63          	bgtz	s6,125de <_vfprintf_r+0x10ea>
   1230a:	77c2                	ld	a5,48(sp)
   1230c:	400df713          	and	a4,s11,1024
   12310:	00fd0333          	add	t1,s10,a5
   12314:	62071063          	bnez	a4,12934 <_vfprintf_r+0x1440>
   12318:	576a                	lw	a4,184(sp)
   1231a:	77e2                	ld	a5,56(sp)
   1231c:	30f74663          	blt	a4,a5,12628 <_vfprintf_r+0x1134>
   12320:	001df693          	and	a3,s11,1
   12324:	30069263          	bnez	a3,12628 <_vfprintf_r+0x1134>
   12328:	76e2                	ld	a3,56(sp)
   1232a:	00dd07b3          	add	a5,s10,a3
   1232e:	40678b33          	sub	s6,a5,t1
   12332:	9e99                	subw	a3,a3,a4
   12334:	000b079b          	sext.w	a5,s6
   12338:	00f6d363          	bge	a3,a5,1233e <_vfprintf_r+0xe4a>
   1233c:	8b36                	mv	s6,a3
   1233e:	2b01                	sext.w	s6,s6
   12340:	03605063          	blez	s6,12360 <_vfprintf_r+0xe6c>
   12344:	57ae                	lw	a5,232(sp)
   12346:	94da                	add	s1,s1,s6
   12348:	00643023          	sd	t1,0(s0)
   1234c:	0017871b          	addw	a4,a5,1
   12350:	01643423          	sd	s6,8(s0)
   12354:	f9a6                	sd	s1,240(sp)
   12356:	d5ba                	sw	a4,232(sp)
   12358:	479d                	li	a5,7
   1235a:	0441                	add	s0,s0,16
   1235c:	1ee7cae3          	blt	a5,a4,12d50 <_vfprintf_r+0x185c>
   12360:	fffb4793          	not	a5,s6
   12364:	97fd                	sra	a5,a5,0x3f
   12366:	00fb7b33          	and	s6,s6,a5
   1236a:	41668b3b          	subw	s6,a3,s6
   1236e:	bb605b63          	blez	s6,11724 <_vfprintf_r+0x230>
   12372:	68e5                	lui	a7,0x19
   12374:	4741                	li	a4,16
   12376:	57ae                	lw	a5,232(sp)
   12378:	4a888893          	add	a7,a7,1192 # 194a8 <zeroes.0>
   1237c:	3f675863          	bge	a4,s6,1276c <_vfprintf_r+0x1278>
   12380:	f84e                	sd	s3,48(sp)
   12382:	4cc1                	li	s9,16
   12384:	89ca                	mv	s3,s2
   12386:	4d1d                	li	s10,7
   12388:	895a                	mv	s2,s6
   1238a:	8b46                	mv	s6,a7
   1238c:	a021                	j	12394 <_vfprintf_r+0xea0>
   1238e:	3941                	addw	s2,s2,-16
   12390:	172cd1e3          	bge	s9,s2,12cf2 <_vfprintf_r+0x17fe>
   12394:	2785                	addw	a5,a5,1
   12396:	04c1                	add	s1,s1,16
   12398:	01643023          	sd	s6,0(s0)
   1239c:	01943423          	sd	s9,8(s0)
   123a0:	f9a6                	sd	s1,240(sp)
   123a2:	d5be                	sw	a5,232(sp)
   123a4:	0441                	add	s0,s0,16
   123a6:	fefd54e3          	bge	s10,a5,1238e <_vfprintf_r+0xe9a>
   123aa:	6522                	ld	a0,8(sp)
   123ac:	1190                	add	a2,sp,224
   123ae:	85ce                	mv	a1,s3
   123b0:	5e9000ef          	jal	13198 <__sprint_r>
   123b4:	3e0514e3          	bnez	a0,12f9c <_vfprintf_r+0x1aa8>
   123b8:	74ce                	ld	s1,240(sp)
   123ba:	57ae                	lw	a5,232(sp)
   123bc:	8452                	mv	s0,s4
   123be:	bfc1                	j	1238e <_vfprintf_r+0xe9a>
   123c0:	001df613          	and	a2,s11,1
   123c4:	82061de3          	bnez	a2,11bfe <_vfprintf_r+0x70a>
   123c8:	e414                	sd	a3,8(s0)
   123ca:	f9a6                	sd	s1,240(sp)
   123cc:	d5da                	sw	s6,232(sp)
   123ce:	479d                	li	a5,7
   123d0:	8967d5e3          	bge	a5,s6,11c5a <_vfprintf_r+0x766>
   123d4:	6522                	ld	a0,8(sp)
   123d6:	1190                	add	a2,sp,224
   123d8:	85ca                	mv	a1,s2
   123da:	5bf000ef          	jal	13198 <__sprint_r>
   123de:	d80510e3          	bnez	a0,1215e <_vfprintf_r+0xc6a>
   123e2:	74ce                	ld	s1,240(sp)
   123e4:	5b2e                	lw	s6,232(sp)
   123e6:	8cd2                	mv	s9,s4
   123e8:	b88d                	j	11c5a <_vfprintf_r+0x766>
   123ea:	7762                	ld	a4,56(sp)
   123ec:	4785                	li	a5,1
   123ee:	86e7d6e3          	bge	a5,a4,11c5a <_vfprintf_r+0x766>
   123f2:	68e5                	lui	a7,0x19
   123f4:	47c5                	li	a5,17
   123f6:	4a888893          	add	a7,a7,1192 # 194a8 <zeroes.0>
   123fa:	44e7dd63          	bge	a5,a4,12854 <_vfprintf_r+0x1360>
   123fe:	f84e                	sd	s3,48(sp)
   12400:	4741                	li	a4,16
   12402:	4d1d                	li	s10,7
   12404:	89c6                	mv	s3,a7
   12406:	a021                	j	1240e <_vfprintf_r+0xf1a>
   12408:	3441                	addw	s0,s0,-16
   1240a:	44875363          	bge	a4,s0,12850 <_vfprintf_r+0x135c>
   1240e:	2b05                	addw	s6,s6,1
   12410:	04c1                	add	s1,s1,16
   12412:	013cb023          	sd	s3,0(s9)
   12416:	00ecb423          	sd	a4,8(s9)
   1241a:	f9a6                	sd	s1,240(sp)
   1241c:	d5da                	sw	s6,232(sp)
   1241e:	0cc1                	add	s9,s9,16
   12420:	ff6d54e3          	bge	s10,s6,12408 <_vfprintf_r+0xf14>
   12424:	6522                	ld	a0,8(sp)
   12426:	1190                	add	a2,sp,224
   12428:	85ca                	mv	a1,s2
   1242a:	56f000ef          	jal	13198 <__sprint_r>
   1242e:	d20518e3          	bnez	a0,1215e <_vfprintf_r+0xc6a>
   12432:	74ce                	ld	s1,240(sp)
   12434:	5b2e                	lw	s6,232(sp)
   12436:	8cd2                	mv	s9,s4
   12438:	4741                	li	a4,16
   1243a:	b7f9                	j	12408 <_vfprintf_r+0xf14>
   1243c:	010cf793          	and	a5,s9,16
   12440:	e3a9                	bnez	a5,12482 <_vfprintf_r+0xf8e>
   12442:	7682                	ld	a3,32(sp)
   12444:	040cf793          	and	a5,s9,64
   12448:	4284                	lw	s1,0(a3)
   1244a:	44078463          	beqz	a5,12892 <_vfprintf_r+0x139e>
   1244e:	14c2                	sll	s1,s1,0x30
   12450:	90c1                	srl	s1,s1,0x30
   12452:	f03a                	sd	a4,32(sp)
   12454:	4785                	li	a5,1
   12456:	c16ff06f          	j	1186c <_vfprintf_r+0x378>
   1245a:	4681                	li	a3,0
   1245c:	15c10d13          	add	s10,sp,348
   12460:	bcaff06f          	j	1182a <_vfprintf_r+0x336>
   12464:	001df793          	and	a5,s11,1
   12468:	aa078e63          	beqz	a5,11724 <_vfprintf_r+0x230>
   1246c:	bcfd                	j	11f6a <_vfprintf_r+0xa76>
   1246e:	0009c303          	lbu	t1,0(s3)
   12472:	f03e                	sd	a5,32(sp)
   12474:	9a8ff06f          	j	1161c <_vfprintf_r+0x128>
   12478:	7782                	ld	a5,32(sp)
   1247a:	639c                	ld	a5,0(a5)
   1247c:	84be                	mv	s1,a5
   1247e:	b86ff06f          	j	11804 <_vfprintf_r+0x310>
   12482:	7782                	ld	a5,32(sp)
   12484:	f03a                	sd	a4,32(sp)
   12486:	6384                	ld	s1,0(a5)
   12488:	4785                	li	a5,1
   1248a:	be2ff06f          	j	1186c <_vfprintf_r+0x378>
   1248e:	010df793          	and	a5,s11,16
   12492:	a4079ee3          	bnez	a5,11eee <_vfprintf_r+0x9fa>
   12496:	040df793          	and	a5,s11,64
   1249a:	66079163          	bnez	a5,12afc <_vfprintf_r+0x1608>
   1249e:	200dfe13          	and	t3,s11,512
   124a2:	67c2                	ld	a5,16(sp)
   124a4:	200e00e3          	beqz	t3,12ea4 <_vfprintf_r+0x19b0>
   124a8:	00f70023          	sb	a5,0(a4)
   124ac:	b499                	j	11ef2 <_vfprintf_r+0x9fe>
   124ae:	7782                	ld	a5,32(sp)
   124b0:	6384                	ld	s1,0(a5)
   124b2:	bb0ff06f          	j	11862 <_vfprintf_r+0x36e>
   124b6:	7782                	ld	a5,32(sp)
   124b8:	00f78c13          	add	s8,a5,15
   124bc:	ff0c7c13          	and	s8,s8,-16
   124c0:	010c0793          	add	a5,s8,16
   124c4:	000c3703          	ld	a4,0(s8)
   124c8:	008c3583          	ld	a1,8(s8)
   124cc:	f03e                	sd	a5,32(sp)
   124ce:	c10ff06f          	j	118de <_vfprintf_r+0x3ea>
   124d2:	f03a                	sd	a4,32(sp)
   124d4:	47a5                	li	a5,9
   124d6:	8cee                	mv	s9,s11
   124d8:	ca97f2e3          	bgeu	a5,s1,1217c <_vfprintf_r+0xc88>
   124dc:	0af4                	add	a3,sp,348
   124de:	688a                	ld	a7,128(sp)
   124e0:	400cf713          	and	a4,s9,1024
   124e4:	4601                	li	a2,0
   124e6:	85b6                	mv	a1,a3
   124e8:	4da9                	li	s11,10
   124ea:	4825                	li	a6,9
   124ec:	0ff00c13          	li	s8,255
   124f0:	a039                	j	124fe <_vfprintf_r+0x100a>
   124f2:	03b4d7b3          	divu	a5,s1,s11
   124f6:	02987663          	bgeu	a6,s1,12522 <_vfprintf_r+0x102e>
   124fa:	84be                	mv	s1,a5
   124fc:	85ea                	mv	a1,s10
   124fe:	fff58d13          	add	s10,a1,-1 # 1fff <exit-0xe0e9>
   12502:	2605                	addw	a2,a2,1
   12504:	03b4f7b3          	remu	a5,s1,s11
   12508:	0307879b          	addw	a5,a5,48
   1250c:	fef58fa3          	sb	a5,-1(a1)
   12510:	d36d                	beqz	a4,124f2 <_vfprintf_r+0xffe>
   12512:	0008c783          	lbu	a5,0(a7)
   12516:	fcf61ee3          	bne	a2,a5,124f2 <_vfprintf_r+0xffe>
   1251a:	fd878ce3          	beq	a5,s8,124f2 <_vfprintf_r+0xffe>
   1251e:	3e986063          	bltu	a6,s1,128fe <_vfprintf_r+0x140a>
   12522:	fc32                	sd	a2,56(sp)
   12524:	e146                	sd	a7,128(sp)
   12526:	41a686bb          	subw	a3,a3,s10
   1252a:	8de6                	mv	s11,s9
   1252c:	afeff06f          	j	1182a <_vfprintf_r+0x336>
   12530:	00070b1b          	sext.w	s6,a4
   12534:	db6043e3          	bgtz	s6,122da <_vfprintf_r+0xde6>
   12538:	bb7d                	j	122f6 <_vfprintf_r+0xe02>
   1253a:	5b7d                	li	s6,-1
   1253c:	89ba                	mv	s3,a4
   1253e:	8e2ff06f          	j	11620 <_vfprintf_r+0x12c>
   12542:	8cee                	mv	s9,s11
   12544:	b8f1                	j	11e20 <_vfprintf_r+0x92c>
   12546:	67e5                	lui	a5,0x19
   12548:	24078793          	add	a5,a5,576 # 19240 <__clzdi2+0x9e>
   1254c:	f0be                	sd	a5,96(sp)
   1254e:	7682                	ld	a3,32(sp)
   12550:	020df793          	and	a5,s11,32
   12554:	00868713          	add	a4,a3,8
   12558:	14078663          	beqz	a5,126a4 <_vfprintf_r+0x11b0>
   1255c:	6284                	ld	s1,0(a3)
   1255e:	001df793          	and	a5,s11,1
   12562:	cf81                	beqz	a5,1257a <_vfprintf_r+0x1086>
   12564:	c899                	beqz	s1,1257a <_vfprintf_r+0x1086>
   12566:	002dee13          	or	t3,s11,2
   1256a:	03000793          	li	a5,48
   1256e:	0af10823          	sb	a5,176(sp)
   12572:	0a6108a3          	sb	t1,177(sp)
   12576:	000e0d9b          	sext.w	s11,t3
   1257a:	bffdfc93          	and	s9,s11,-1025
   1257e:	2c81                	sext.w	s9,s9
   12580:	f03a                	sd	a4,32(sp)
   12582:	4789                	li	a5,2
   12584:	ae8ff06f          	j	1186c <_vfprintf_r+0x378>
   12588:	67e5                	lui	a5,0x19
   1258a:	22878793          	add	a5,a5,552 # 19228 <__clzdi2+0x86>
   1258e:	f0be                	sd	a5,96(sp)
   12590:	bf7d                	j	1254e <_vfprintf_r+0x105a>
   12592:	200ded93          	or	s11,s11,512
   12596:	0019c303          	lbu	t1,1(s3)
   1259a:	2d81                	sext.w	s11,s11
   1259c:	0985                	add	s3,s3,1
   1259e:	87eff06f          	j	1161c <_vfprintf_r+0x128>
   125a2:	020ded93          	or	s11,s11,32
   125a6:	0019c303          	lbu	t1,1(s3)
   125aa:	2d81                	sext.w	s11,s11
   125ac:	0985                	add	s3,s3,1
   125ae:	86eff06f          	j	1161c <_vfprintf_r+0x128>
   125b2:	6522                	ld	a0,8(sp)
   125b4:	1190                	add	a2,sp,224
   125b6:	85ca                	mv	a1,s2
   125b8:	3e1000ef          	jal	13198 <__sprint_r>
   125bc:	ba0511e3          	bnez	a0,1215e <_vfprintf_r+0xc6a>
   125c0:	74ce                	ld	s1,240(sp)
   125c2:	8452                	mv	s0,s4
   125c4:	b2d1                	j	11f88 <_vfprintf_r+0xa94>
   125c6:	4799                	li	a5,6
   125c8:	000b069b          	sext.w	a3,s6
   125cc:	5167e663          	bltu	a5,s6,12ad8 <_vfprintf_r+0x15e4>
   125d0:	67e5                	lui	a5,0x19
   125d2:	8c36                	mv	s8,a3
   125d4:	f026                	sd	s1,32(sp)
   125d6:	25878d13          	add	s10,a5,600 # 19258 <__clzdi2+0xb6>
   125da:	8acff06f          	j	11686 <_vfprintf_r+0x192>
   125de:	68e5                	lui	a7,0x19
   125e0:	46c1                	li	a3,16
   125e2:	572e                	lw	a4,232(sp)
   125e4:	4a888893          	add	a7,a7,1192 # 194a8 <zeroes.0>
   125e8:	2f66d463          	bge	a3,s6,128d0 <_vfprintf_r+0x13dc>
   125ec:	46c1                	li	a3,16
   125ee:	431d                	li	t1,7
   125f0:	8cc6                	mv	s9,a7
   125f2:	a021                	j	125fa <_vfprintf_r+0x1106>
   125f4:	3b41                	addw	s6,s6,-16
   125f6:	2d66dc63          	bge	a3,s6,128ce <_vfprintf_r+0x13da>
   125fa:	2705                	addw	a4,a4,1
   125fc:	04c1                	add	s1,s1,16
   125fe:	01943023          	sd	s9,0(s0)
   12602:	e414                	sd	a3,8(s0)
   12604:	f9a6                	sd	s1,240(sp)
   12606:	d5ba                	sw	a4,232(sp)
   12608:	0441                	add	s0,s0,16
   1260a:	fee355e3          	bge	t1,a4,125f4 <_vfprintf_r+0x1100>
   1260e:	6522                	ld	a0,8(sp)
   12610:	1190                	add	a2,sp,224
   12612:	85ca                	mv	a1,s2
   12614:	385000ef          	jal	13198 <__sprint_r>
   12618:	b40513e3          	bnez	a0,1215e <_vfprintf_r+0xc6a>
   1261c:	74ce                	ld	s1,240(sp)
   1261e:	572e                	lw	a4,232(sp)
   12620:	8452                	mv	s0,s4
   12622:	431d                	li	t1,7
   12624:	46c1                	li	a3,16
   12626:	b7f9                	j	125f4 <_vfprintf_r+0x1100>
   12628:	56ae                	lw	a3,232(sp)
   1262a:	67c6                	ld	a5,80(sp)
   1262c:	6666                	ld	a2,88(sp)
   1262e:	0441                	add	s0,s0,16
   12630:	94be                	add	s1,s1,a5
   12632:	fec43823          	sd	a2,-16(s0)
   12636:	0016861b          	addw	a2,a3,1
   1263a:	fef43c23          	sd	a5,-8(s0)
   1263e:	f9a6                	sd	s1,240(sp)
   12640:	d5b2                	sw	a2,232(sp)
   12642:	469d                	li	a3,7
   12644:	cec6d2e3          	bge	a3,a2,12328 <_vfprintf_r+0xe34>
   12648:	6522                	ld	a0,8(sp)
   1264a:	1190                	add	a2,sp,224
   1264c:	85ca                	mv	a1,s2
   1264e:	f81a                	sd	t1,48(sp)
   12650:	349000ef          	jal	13198 <__sprint_r>
   12654:	b00515e3          	bnez	a0,1215e <_vfprintf_r+0xc6a>
   12658:	576a                	lw	a4,184(sp)
   1265a:	74ce                	ld	s1,240(sp)
   1265c:	7342                	ld	t1,48(sp)
   1265e:	8452                	mv	s0,s4
   12660:	b1e1                	j	12328 <_vfprintf_r+0xe34>
   12662:	07800793          	li	a5,120
   12666:	03000693          	li	a3,48
   1266a:	002de713          	or	a4,s11,2
   1266e:	0af108a3          	sb	a5,177(sp)
   12672:	0ad10823          	sb	a3,176(sp)
   12676:	06300793          	li	a5,99
   1267a:	2701                	sext.w	a4,a4
   1267c:	4b67cf63          	blt	a5,s6,12b3a <_vfprintf_r+0x1646>
   12680:	67ce                	ld	a5,208(sp)
   12682:	6cee                	ld	s9,216(sp)
   12684:	102dee13          	or	t3,s11,258
   12688:	f83e                	sd	a5,48(sp)
   1268a:	000e049b          	sext.w	s1,t3
   1268e:	600ccf63          	bltz	s9,12cac <_vfprintf_r+0x17b8>
   12692:	fbf3069b          	addw	a3,t1,-65
   12696:	8dba                	mv	s11,a4
   12698:	f482                	sd	zero,104(sp)
   1269a:	ec02                	sd	zero,24(sp)
   1269c:	0f810d13          	add	s10,sp,248
   126a0:	ab6ff06f          	j	11956 <_vfprintf_r+0x462>
   126a4:	010df793          	and	a5,s11,16
   126a8:	c7d1                	beqz	a5,12734 <_vfprintf_r+0x1240>
   126aa:	7782                	ld	a5,32(sp)
   126ac:	6384                	ld	s1,0(a5)
   126ae:	bd45                	j	1255e <_vfprintf_r+0x106a>
   126b0:	6522                	ld	a0,8(sp)
   126b2:	1190                	add	a2,sp,224
   126b4:	85ca                	mv	a1,s2
   126b6:	2e3000ef          	jal	13198 <__sprint_r>
   126ba:	aa0512e3          	bnez	a0,1215e <_vfprintf_r+0xc6a>
   126be:	74ce                	ld	s1,240(sp)
   126c0:	5b2e                	lw	s6,232(sp)
   126c2:	8cd2                	mv	s9,s4
   126c4:	d48ff06f          	j	11c0c <_vfprintf_r+0x718>
   126c8:	6522                	ld	a0,8(sp)
   126ca:	1190                	add	a2,sp,224
   126cc:	85ca                	mv	a1,s2
   126ce:	2cb000ef          	jal	13198 <__sprint_r>
   126d2:	a80516e3          	bnez	a0,1215e <_vfprintf_r+0xc6a>
   126d6:	74ce                	ld	s1,240(sp)
   126d8:	5b2e                	lw	s6,232(sp)
   126da:	8cd2                	mv	s9,s4
   126dc:	d4cff06f          	j	11c28 <_vfprintf_r+0x734>
   126e0:	56ae                	lw	a3,232(sp)
   126e2:	6665                	lui	a2,0x19
   126e4:	26060613          	add	a2,a2,608 # 19260 <__clzdi2+0xbe>
   126e8:	2685                	addw	a3,a3,1
   126ea:	e010                	sd	a2,0(s0)
   126ec:	0485                	add	s1,s1,1
   126ee:	4605                	li	a2,1
   126f0:	e410                	sd	a2,8(s0)
   126f2:	d5b6                	sw	a3,232(sp)
   126f4:	0006861b          	sext.w	a2,a3
   126f8:	f9a6                	sd	s1,240(sp)
   126fa:	469d                	li	a3,7
   126fc:	0441                	add	s0,s0,16
   126fe:	3ac6c363          	blt	a3,a2,12aa4 <_vfprintf_r+0x15b0>
   12702:	10071363          	bnez	a4,12808 <_vfprintf_r+0x1314>
   12706:	77e2                	ld	a5,56(sp)
   12708:	001df713          	and	a4,s11,1
   1270c:	8f5d                	or	a4,a4,a5
   1270e:	e319                	bnez	a4,12714 <_vfprintf_r+0x1220>
   12710:	814ff06f          	j	11724 <_vfprintf_r+0x230>
   12714:	572e                	lw	a4,232(sp)
   12716:	67c6                	ld	a5,80(sp)
   12718:	66e6                	ld	a3,88(sp)
   1271a:	00978633          	add	a2,a5,s1
   1271e:	e014                	sd	a3,0(s0)
   12720:	0017069b          	addw	a3,a4,1
   12724:	e41c                	sd	a5,8(s0)
   12726:	f9b2                	sd	a2,240(sp)
   12728:	d5b6                	sw	a3,232(sp)
   1272a:	471d                	li	a4,7
   1272c:	3ed74b63          	blt	a4,a3,12b22 <_vfprintf_r+0x162e>
   12730:	0441                	add	s0,s0,16
   12732:	a8f5                	j	1282e <_vfprintf_r+0x133a>
   12734:	7682                	ld	a3,32(sp)
   12736:	040df793          	and	a5,s11,64
   1273a:	4284                	lw	s1,0(a3)
   1273c:	16078563          	beqz	a5,128a6 <_vfprintf_r+0x13b2>
   12740:	14c2                	sll	s1,s1,0x30
   12742:	90c1                	srl	s1,s1,0x30
   12744:	bd29                	j	1255e <_vfprintf_r+0x106a>
   12746:	6522                	ld	a0,8(sp)
   12748:	f41fd0ef          	jal	10688 <__sinit>
   1274c:	de3fe06f          	j	1152e <_vfprintf_r+0x3a>
   12750:	6522                	ld	a0,8(sp)
   12752:	1190                	add	a2,sp,224
   12754:	85ca                	mv	a1,s2
   12756:	243000ef          	jal	13198 <__sprint_r>
   1275a:	a00512e3          	bnez	a0,1215e <_vfprintf_r+0xc6a>
   1275e:	74ce                	ld	s1,240(sp)
   12760:	8452                	mv	s0,s4
   12762:	801ff06f          	j	11f62 <_vfprintf_r+0xa6e>
   12766:	88da                	mv	a7,s6
   12768:	8b4e                	mv	s6,s3
   1276a:	79c2                	ld	s3,48(sp)
   1276c:	0017871b          	addw	a4,a5,1
   12770:	01143023          	sd	a7,0(s0)
   12774:	01643423          	sd	s6,8(s0)
   12778:	94da                	add	s1,s1,s6
   1277a:	f9a6                	sd	s1,240(sp)
   1277c:	d5ba                	sw	a4,232(sp)
   1277e:	479d                	li	a5,7
   12780:	00e7c463          	blt	a5,a4,12788 <_vfprintf_r+0x1294>
   12784:	f9ffe06f          	j	11722 <_vfprintf_r+0x22e>
   12788:	cf4ff06f          	j	11c7c <_vfprintf_r+0x788>
   1278c:	f03a                	sd	a4,32(sp)
   1278e:	b2e5                	j	12176 <_vfprintf_r+0xc82>
   12790:	654e                	ld	a0,208(sp)
   12792:	65ee                	ld	a1,216(sp)
   12794:	4601                	li	a2,0
   12796:	4681                	li	a3,0
   12798:	183050ef          	jal	1811a <__letf2>
   1279c:	6362                	ld	t1,24(sp)
   1279e:	54054363          	bltz	a0,12ce4 <_vfprintf_r+0x17f0>
   127a2:	0af14703          	lbu	a4,175(sp)
   127a6:	04700793          	li	a5,71
   127aa:	3067d863          	bge	a5,t1,12aba <_vfprintf_r+0x15c6>
   127ae:	67e5                	lui	a5,0x19
   127b0:	21078d13          	add	s10,a5,528 # 19210 <__clzdi2+0x6e>
   127b4:	f7fdfe13          	and	t3,s11,-129
   127b8:	ec02                	sd	zero,24(sp)
   127ba:	e482                	sd	zero,72(sp)
   127bc:	e082                	sd	zero,64(sp)
   127be:	f802                	sd	zero,48(sp)
   127c0:	000e0d9b          	sext.w	s11,t3
   127c4:	4c0d                	li	s8,3
   127c6:	468d                	li	a3,3
   127c8:	4b01                	li	s6,0
   127ca:	c319                	beqz	a4,127d0 <_vfprintf_r+0x12dc>
   127cc:	87aff06f          	j	11846 <_vfprintf_r+0x352>
   127d0:	ec1fe06f          	j	11690 <_vfprintf_r+0x19c>
   127d4:	856a                	mv	a0,s10
   127d6:	f49a                	sd	t1,104(sp)
   127d8:	5a4020ef          	jal	14d7c <strlen>
   127dc:	0005069b          	sext.w	a3,a0
   127e0:	0af14703          	lbu	a4,175(sp)
   127e4:	fff6c813          	not	a6,a3
   127e8:	43f85813          	sra	a6,a6,0x3f
   127ec:	f026                	sd	s1,32(sp)
   127ee:	ec02                	sd	zero,24(sp)
   127f0:	e482                	sd	zero,72(sp)
   127f2:	e082                	sd	zero,64(sp)
   127f4:	f802                	sd	zero,48(sp)
   127f6:	7326                	ld	t1,104(sp)
   127f8:	00d87c33          	and	s8,a6,a3
   127fc:	4b01                	li	s6,0
   127fe:	c319                	beqz	a4,12804 <_vfprintf_r+0x1310>
   12800:	846ff06f          	j	11846 <_vfprintf_r+0x352>
   12804:	e8dfe06f          	j	11690 <_vfprintf_r+0x19c>
   12808:	55ae                	lw	a1,232(sp)
   1280a:	67c6                	ld	a5,80(sp)
   1280c:	66e6                	ld	a3,88(sp)
   1280e:	0441                	add	s0,s0,16
   12810:	00978633          	add	a2,a5,s1
   12814:	fed43823          	sd	a3,-16(s0)
   12818:	0015869b          	addw	a3,a1,1
   1281c:	fef43c23          	sd	a5,-8(s0)
   12820:	f9b2                	sd	a2,240(sp)
   12822:	d5b6                	sw	a3,232(sp)
   12824:	459d                	li	a1,7
   12826:	2ed5ce63          	blt	a1,a3,12b22 <_vfprintf_r+0x162e>
   1282a:	54074663          	bltz	a4,12d76 <_vfprintf_r+0x1882>
   1282e:	77e2                	ld	a5,56(sp)
   12830:	0016871b          	addw	a4,a3,1
   12834:	01a43023          	sd	s10,0(s0)
   12838:	00c784b3          	add	s1,a5,a2
   1283c:	e41c                	sd	a5,8(s0)
   1283e:	f9a6                	sd	s1,240(sp)
   12840:	d5ba                	sw	a4,232(sp)
   12842:	479d                	li	a5,7
   12844:	00e7c463          	blt	a5,a4,1284c <_vfprintf_r+0x1358>
   12848:	edbfe06f          	j	11722 <_vfprintf_r+0x22e>
   1284c:	c30ff06f          	j	11c7c <_vfprintf_r+0x788>
   12850:	88ce                	mv	a7,s3
   12852:	79c2                	ld	s3,48(sp)
   12854:	2b05                	addw	s6,s6,1
   12856:	94a2                	add	s1,s1,s0
   12858:	011cb023          	sd	a7,0(s9)
   1285c:	008cb423          	sd	s0,8(s9)
   12860:	f9a6                	sd	s1,240(sp)
   12862:	d5da                	sw	s6,232(sp)
   12864:	479d                	li	a5,7
   12866:	bf67d963          	bge	a5,s6,11c58 <_vfprintf_r+0x764>
   1286a:	b6ad                	j	123d4 <_vfprintf_r+0xee0>
   1286c:	200df793          	and	a5,s11,512
   12870:	28078263          	beqz	a5,12af4 <_vfprintf_r+0x1600>
   12874:	0ff4f493          	zext.b	s1,s1
   12878:	febfe06f          	j	11862 <_vfprintf_r+0x36e>
   1287c:	200df793          	and	a5,s11,512
   12880:	26078763          	beqz	a5,12aee <_vfprintf_r+0x15fa>
   12884:	0184949b          	sllw	s1,s1,0x18
   12888:	4184d49b          	sraw	s1,s1,0x18
   1288c:	87a6                	mv	a5,s1
   1288e:	f77fe06f          	j	11804 <_vfprintf_r+0x310>
   12892:	200cf793          	and	a5,s9,512
   12896:	24078663          	beqz	a5,12ae2 <_vfprintf_r+0x15ee>
   1289a:	0ff4f493          	zext.b	s1,s1
   1289e:	f03a                	sd	a4,32(sp)
   128a0:	4785                	li	a5,1
   128a2:	fcbfe06f          	j	1186c <_vfprintf_r+0x378>
   128a6:	200df793          	and	a5,s11,512
   128aa:	22078963          	beqz	a5,12adc <_vfprintf_r+0x15e8>
   128ae:	0ff4f493          	zext.b	s1,s1
   128b2:	b175                	j	1255e <_vfprintf_r+0x106a>
   128b4:	67ee                	ld	a5,216(sp)
   128b6:	2407cf63          	bltz	a5,12b14 <_vfprintf_r+0x1620>
   128ba:	0af14703          	lbu	a4,175(sp)
   128be:	04700793          	li	a5,71
   128c2:	4a67c663          	blt	a5,t1,12d6e <_vfprintf_r+0x187a>
   128c6:	67e5                	lui	a5,0x19
   128c8:	21878d13          	add	s10,a5,536 # 19218 <__clzdi2+0x76>
   128cc:	b5e5                	j	127b4 <_vfprintf_r+0x12c0>
   128ce:	88e6                	mv	a7,s9
   128d0:	0017069b          	addw	a3,a4,1
   128d4:	94da                	add	s1,s1,s6
   128d6:	01143023          	sd	a7,0(s0)
   128da:	01643423          	sd	s6,8(s0)
   128de:	f9a6                	sd	s1,240(sp)
   128e0:	d5b6                	sw	a3,232(sp)
   128e2:	471d                	li	a4,7
   128e4:	0441                	add	s0,s0,16
   128e6:	a2d752e3          	bge	a4,a3,1230a <_vfprintf_r+0xe16>
   128ea:	6522                	ld	a0,8(sp)
   128ec:	1190                	add	a2,sp,224
   128ee:	85ca                	mv	a1,s2
   128f0:	0a9000ef          	jal	13198 <__sprint_r>
   128f4:	860515e3          	bnez	a0,1215e <_vfprintf_r+0xc6a>
   128f8:	74ce                	ld	s1,240(sp)
   128fa:	8452                	mv	s0,s4
   128fc:	b439                	j	1230a <_vfprintf_r+0xe16>
   128fe:	67aa                	ld	a5,136(sp)
   12900:	75e6                	ld	a1,120(sp)
   12902:	e0b6                	sd	a3,64(sp)
   12904:	40fd0d33          	sub	s10,s10,a5
   12908:	863e                	mv	a2,a5
   1290a:	856a                	mv	a0,s10
   1290c:	fc3a                	sd	a4,56(sp)
   1290e:	f81a                	sd	t1,48(sp)
   12910:	ec46                	sd	a7,24(sp)
   12912:	0a0020ef          	jal	149b2 <strncpy>
   12916:	68e2                	ld	a7,24(sp)
   12918:	47a9                	li	a5,10
   1291a:	02f4d7b3          	divu	a5,s1,a5
   1291e:	0018c603          	lbu	a2,1(a7)
   12922:	7342                	ld	t1,48(sp)
   12924:	7762                	ld	a4,56(sp)
   12926:	00c03633          	snez	a2,a2
   1292a:	98b2                	add	a7,a7,a2
   1292c:	6686                	ld	a3,64(sp)
   1292e:	4601                	li	a2,0
   12930:	4825                	li	a6,9
   12932:	b6e1                	j	124fa <_vfprintf_r+0x1006>
   12934:	77e2                	ld	a5,56(sp)
   12936:	6c86                	ld	s9,64(sp)
   12938:	68e5                	lui	a7,0x19
   1293a:	00fd05b3          	add	a1,s10,a5
   1293e:	f4ce                	sd	s3,104(sp)
   12940:	e96e                	sd	s11,144(sp)
   12942:	ed5e                	sd	s7,152(sp)
   12944:	6da6                	ld	s11,72(sp)
   12946:	e0e2                	sd	s8,64(sp)
   12948:	e4ea                	sd	s10,72(sp)
   1294a:	8626                	mv	a2,s1
   1294c:	6baa                	ld	s7,136(sp)
   1294e:	6c0a                	ld	s8,128(sp)
   12950:	69a2                	ld	s3,8(sp)
   12952:	469d                	li	a3,7
   12954:	4741                	li	a4,16
   12956:	4a888b13          	add	s6,a7,1192 # 194a8 <zeroes.0>
   1295a:	87a2                	mv	a5,s0
   1295c:	8d1a                	mv	s10,t1
   1295e:	84ae                	mv	s1,a1
   12960:	07905d63          	blez	s9,129da <_vfprintf_r+0x14e6>
   12964:	11b05163          	blez	s11,12a66 <_vfprintf_r+0x1572>
   12968:	3dfd                	addw	s11,s11,-1
   1296a:	55ae                	lw	a1,232(sp)
   1296c:	7566                	ld	a0,120(sp)
   1296e:	965e                	add	a2,a2,s7
   12970:	0177b423          	sd	s7,8(a5)
   12974:	e388                	sd	a0,0(a5)
   12976:	0015851b          	addw	a0,a1,1
   1297a:	f9b2                	sd	a2,240(sp)
   1297c:	d5aa                	sw	a0,232(sp)
   1297e:	07c1                	add	a5,a5,16
   12980:	0ea6c663          	blt	a3,a0,12a6c <_vfprintf_r+0x1578>
   12984:	000c4583          	lbu	a1,0(s8)
   12988:	41a48f33          	sub	t5,s1,s10
   1298c:	000f051b          	sext.w	a0,t5
   12990:	0005881b          	sext.w	a6,a1
   12994:	00a5d363          	bge	a1,a0,1299a <_vfprintf_r+0x14a6>
   12998:	8f42                	mv	t5,a6
   1299a:	000f041b          	sext.w	s0,t5
   1299e:	02805263          	blez	s0,129c2 <_vfprintf_r+0x14ce>
   129a2:	55ae                	lw	a1,232(sp)
   129a4:	9622                	add	a2,a2,s0
   129a6:	01a7b023          	sd	s10,0(a5)
   129aa:	0015851b          	addw	a0,a1,1
   129ae:	e780                	sd	s0,8(a5)
   129b0:	f9b2                	sd	a2,240(sp)
   129b2:	d5aa                	sw	a0,232(sp)
   129b4:	0ca6c863          	blt	a3,a0,12a84 <_vfprintf_r+0x1590>
   129b8:	000c4583          	lbu	a1,0(s8)
   129bc:	07c1                	add	a5,a5,16
   129be:	0005881b          	sext.w	a6,a1
   129c2:	fff44513          	not	a0,s0
   129c6:	957d                	sra	a0,a0,0x3f
   129c8:	00a47f33          	and	t5,s0,a0
   129cc:	41e8043b          	subw	s0,a6,t5
   129d0:	02804763          	bgtz	s0,129fe <_vfprintf_r+0x150a>
   129d4:	9d2e                	add	s10,s10,a1
   129d6:	f99047e3          	bgtz	s9,12964 <_vfprintf_r+0x1470>
   129da:	f9b047e3          	bgtz	s11,12968 <_vfprintf_r+0x1474>
   129de:	836a                	mv	t1,s10
   129e0:	843e                	mv	s0,a5
   129e2:	6d26                	ld	s10,72(sp)
   129e4:	77e2                	ld	a5,56(sp)
   129e6:	e162                	sd	s8,128(sp)
   129e8:	79a6                	ld	s3,104(sp)
   129ea:	00fd0733          	add	a4,s10,a5
   129ee:	6dca                	ld	s11,144(sp)
   129f0:	6bea                	ld	s7,152(sp)
   129f2:	6c06                	ld	s8,64(sp)
   129f4:	84b2                	mv	s1,a2
   129f6:	926771e3          	bgeu	a4,t1,12318 <_vfprintf_r+0xe24>
   129fa:	833a                	mv	t1,a4
   129fc:	ba31                	j	12318 <_vfprintf_r+0xe24>
   129fe:	6f65                	lui	t5,0x19
   12a00:	55ae                	lw	a1,232(sp)
   12a02:	4a8f0f13          	add	t5,t5,1192 # 194a8 <zeroes.0>
   12a06:	04875163          	bge	a4,s0,12a48 <_vfprintf_r+0x1554>
   12a0a:	f85a                	sd	s6,48(sp)
   12a0c:	a021                	j	12a14 <_vfprintf_r+0x1520>
   12a0e:	3441                	addw	s0,s0,-16
   12a10:	02875b63          	bge	a4,s0,12a46 <_vfprintf_r+0x1552>
   12a14:	2585                	addw	a1,a1,1
   12a16:	0641                	add	a2,a2,16
   12a18:	0167b023          	sd	s6,0(a5)
   12a1c:	e798                	sd	a4,8(a5)
   12a1e:	f9b2                	sd	a2,240(sp)
   12a20:	d5ae                	sw	a1,232(sp)
   12a22:	07c1                	add	a5,a5,16
   12a24:	feb6d5e3          	bge	a3,a1,12a0e <_vfprintf_r+0x151a>
   12a28:	1190                	add	a2,sp,224
   12a2a:	85ca                	mv	a1,s2
   12a2c:	854e                	mv	a0,s3
   12a2e:	76a000ef          	jal	13198 <__sprint_r>
   12a32:	f2051663          	bnez	a0,1215e <_vfprintf_r+0xc6a>
   12a36:	4741                	li	a4,16
   12a38:	3441                	addw	s0,s0,-16
   12a3a:	764e                	ld	a2,240(sp)
   12a3c:	55ae                	lw	a1,232(sp)
   12a3e:	87d2                	mv	a5,s4
   12a40:	469d                	li	a3,7
   12a42:	fc8749e3          	blt	a4,s0,12a14 <_vfprintf_r+0x1520>
   12a46:	7f42                	ld	t5,48(sp)
   12a48:	0015851b          	addw	a0,a1,1
   12a4c:	9622                	add	a2,a2,s0
   12a4e:	01e7b023          	sd	t5,0(a5)
   12a52:	e780                	sd	s0,8(a5)
   12a54:	f9b2                	sd	a2,240(sp)
   12a56:	d5aa                	sw	a0,232(sp)
   12a58:	26a6c763          	blt	a3,a0,12cc6 <_vfprintf_r+0x17d2>
   12a5c:	000c4583          	lbu	a1,0(s8)
   12a60:	07c1                	add	a5,a5,16
   12a62:	9d2e                	add	s10,s10,a1
   12a64:	bf8d                	j	129d6 <_vfprintf_r+0x14e2>
   12a66:	1c7d                	add	s8,s8,-1
   12a68:	3cfd                	addw	s9,s9,-1
   12a6a:	b701                	j	1296a <_vfprintf_r+0x1476>
   12a6c:	1190                	add	a2,sp,224
   12a6e:	85ca                	mv	a1,s2
   12a70:	854e                	mv	a0,s3
   12a72:	726000ef          	jal	13198 <__sprint_r>
   12a76:	ee051463          	bnez	a0,1215e <_vfprintf_r+0xc6a>
   12a7a:	764e                	ld	a2,240(sp)
   12a7c:	87d2                	mv	a5,s4
   12a7e:	4741                	li	a4,16
   12a80:	469d                	li	a3,7
   12a82:	b709                	j	12984 <_vfprintf_r+0x1490>
   12a84:	1190                	add	a2,sp,224
   12a86:	85ca                	mv	a1,s2
   12a88:	854e                	mv	a0,s3
   12a8a:	70e000ef          	jal	13198 <__sprint_r>
   12a8e:	ec051863          	bnez	a0,1215e <_vfprintf_r+0xc6a>
   12a92:	000c4583          	lbu	a1,0(s8)
   12a96:	764e                	ld	a2,240(sp)
   12a98:	87d2                	mv	a5,s4
   12a9a:	0005881b          	sext.w	a6,a1
   12a9e:	4741                	li	a4,16
   12aa0:	469d                	li	a3,7
   12aa2:	b705                	j	129c2 <_vfprintf_r+0x14ce>
   12aa4:	6522                	ld	a0,8(sp)
   12aa6:	1190                	add	a2,sp,224
   12aa8:	85ca                	mv	a1,s2
   12aaa:	6ee000ef          	jal	13198 <__sprint_r>
   12aae:	ea051863          	bnez	a0,1215e <_vfprintf_r+0xc6a>
   12ab2:	576a                	lw	a4,184(sp)
   12ab4:	74ce                	ld	s1,240(sp)
   12ab6:	8452                	mv	s0,s4
   12ab8:	b1a9                	j	12702 <_vfprintf_r+0x120e>
   12aba:	67e5                	lui	a5,0x19
   12abc:	20878d13          	add	s10,a5,520 # 19208 <__clzdi2+0x66>
   12ac0:	b9d5                	j	127b4 <_vfprintf_r+0x12c0>
   12ac2:	6522                	ld	a0,8(sp)
   12ac4:	1190                	add	a2,sp,224
   12ac6:	85ca                	mv	a1,s2
   12ac8:	6d0000ef          	jal	13198 <__sprint_r>
   12acc:	e8051963          	bnez	a0,1215e <_vfprintf_r+0xc6a>
   12ad0:	74ce                	ld	s1,240(sp)
   12ad2:	8452                	mv	s0,s4
   12ad4:	823ff06f          	j	122f6 <_vfprintf_r+0xe02>
   12ad8:	4699                	li	a3,6
   12ada:	bcdd                	j	125d0 <_vfprintf_r+0x10dc>
   12adc:	1482                	sll	s1,s1,0x20
   12ade:	9081                	srl	s1,s1,0x20
   12ae0:	bcbd                	j	1255e <_vfprintf_r+0x106a>
   12ae2:	1482                	sll	s1,s1,0x20
   12ae4:	9081                	srl	s1,s1,0x20
   12ae6:	f03a                	sd	a4,32(sp)
   12ae8:	4785                	li	a5,1
   12aea:	d83fe06f          	j	1186c <_vfprintf_r+0x378>
   12aee:	87a6                	mv	a5,s1
   12af0:	d15fe06f          	j	11804 <_vfprintf_r+0x310>
   12af4:	1482                	sll	s1,s1,0x20
   12af6:	9081                	srl	s1,s1,0x20
   12af8:	d6bfe06f          	j	11862 <_vfprintf_r+0x36e>
   12afc:	67c2                	ld	a5,16(sp)
   12afe:	00f71023          	sh	a5,0(a4)
   12b02:	bf0ff06f          	j	11ef2 <_vfprintf_r+0x9fe>
   12b06:	6522                	ld	a0,8(sp)
   12b08:	1190                	add	a2,sp,224
   12b0a:	85ca                	mv	a1,s2
   12b0c:	68c000ef          	jal	13198 <__sprint_r>
   12b10:	c59fe06f          	j	11768 <_vfprintf_r+0x274>
   12b14:	02d00793          	li	a5,45
   12b18:	0af107a3          	sb	a5,175(sp)
   12b1c:	02d00713          	li	a4,45
   12b20:	bb79                	j	128be <_vfprintf_r+0x13ca>
   12b22:	6522                	ld	a0,8(sp)
   12b24:	1190                	add	a2,sp,224
   12b26:	85ca                	mv	a1,s2
   12b28:	670000ef          	jal	13198 <__sprint_r>
   12b2c:	e2051963          	bnez	a0,1215e <_vfprintf_r+0xc6a>
   12b30:	576a                	lw	a4,184(sp)
   12b32:	764e                	ld	a2,240(sp)
   12b34:	56ae                	lw	a3,232(sp)
   12b36:	8452                	mv	s0,s4
   12b38:	b9cd                	j	1282a <_vfprintf_r+0x1336>
   12b3a:	6522                	ld	a0,8(sp)
   12b3c:	001b059b          	addw	a1,s6,1
   12b40:	f83a                	sd	a4,48(sp)
   12b42:	ec1a                	sd	t1,24(sp)
   12b44:	baafe0ef          	jal	10eee <_malloc_r>
   12b48:	6362                	ld	t1,24(sp)
   12b4a:	7742                	ld	a4,48(sp)
   12b4c:	8d2a                	mv	s10,a0
   12b4e:	4c050363          	beqz	a0,13014 <_vfprintf_r+0x1b20>
   12b52:	ec2a                	sd	a0,24(sp)
   12b54:	8dba                	mv	s11,a4
   12b56:	dd9fe06f          	j	1192e <_vfprintf_r+0x43a>
   12b5a:	75c2                	ld	a1,48(sp)
   12b5c:	6522                	ld	a0,8(sp)
   12b5e:	875a                	mv	a4,s6
   12b60:	0c810893          	add	a7,sp,200
   12b64:	0bc10813          	add	a6,sp,188
   12b68:	193c                	add	a5,sp,184
   12b6a:	4689                	li	a3,2
   12b6c:	8666                	mv	a2,s9
   12b6e:	4c2020ef          	jal	15030 <_ldtoa_r>
   12b72:	7362                	ld	t1,56(sp)
   12b74:	04700713          	li	a4,71
   12b78:	8d2a                	mv	s10,a0
   12b7a:	4ae31563          	bne	t1,a4,13024 <_vfprintf_r+0x1b30>
   12b7e:	001df713          	and	a4,s11,1
   12b82:	1a071e63          	bnez	a4,12d3e <_vfprintf_r+0x184a>
   12b86:	57ea                	lw	a5,184(sp)
   12b88:	f83e                	sd	a5,48(sp)
   12b8a:	67ae                	ld	a5,200(sp)
   12b8c:	41a787bb          	subw	a5,a5,s10
   12b90:	fc3e                	sd	a5,56(sp)
   12b92:	77c2                	ld	a5,48(sp)
   12b94:	5775                	li	a4,-3
   12b96:	00e7c463          	blt	a5,a4,12b9e <_vfprintf_r+0x16aa>
   12b9a:	0cfb5763          	bge	s6,a5,12c68 <_vfprintf_r+0x1774>
   12b9e:	77c2                	ld	a5,48(sp)
   12ba0:	3379                	addw	t1,t1,-2
   12ba2:	fff7871b          	addw	a4,a5,-1
   12ba6:	dd3a                	sw	a4,184(sp)
   12ba8:	0ff37693          	zext.b	a3,t1
   12bac:	4601                	li	a2,0
   12bae:	f49fe06f          	j	11af6 <_vfprintf_r+0x602>
   12bb2:	77c2                	ld	a5,48(sp)
   12bb4:	00a7c583          	lbu	a1,10(a5)
   12bb8:	feb68fa3          	sb	a1,-1(a3)
   12bbc:	f0bfe06f          	j	11ac6 <_vfprintf_r+0x5d2>
   12bc0:	0af14703          	lbu	a4,175(sp)
   12bc4:	4b01                	li	s6,0
   12bc6:	c319                	beqz	a4,12bcc <_vfprintf_r+0x16d8>
   12bc8:	c7ffe06f          	j	11846 <_vfprintf_r+0x352>
   12bcc:	ac5fe06f          	j	11690 <_vfprintf_r+0x19c>
   12bd0:	875a                	mv	a4,s6
   12bd2:	468d                	li	a3,3
   12bd4:	75c2                	ld	a1,48(sp)
   12bd6:	6522                	ld	a0,8(sp)
   12bd8:	0c810893          	add	a7,sp,200
   12bdc:	0bc10813          	add	a6,sp,188
   12be0:	193c                	add	a5,sp,184
   12be2:	8666                	mv	a2,s9
   12be4:	e09a                	sd	t1,64(sp)
   12be6:	fc3a                	sd	a4,56(sp)
   12be8:	448020ef          	jal	15030 <_ldtoa_r>
   12bec:	7762                	ld	a4,56(sp)
   12bee:	6306                	ld	t1,64(sp)
   12bf0:	8d2a                	mv	s10,a0
   12bf2:	fdf37c13          	and	s8,t1,-33
   12bf6:	04600693          	li	a3,70
   12bfa:	00ed0833          	add	a6,s10,a4
   12bfe:	00dc1a63          	bne	s8,a3,12c12 <_vfprintf_r+0x171e>
   12c02:	000d4603          	lbu	a2,0(s10)
   12c06:	03000693          	li	a3,48
   12c0a:	30d60563          	beq	a2,a3,12f14 <_vfprintf_r+0x1a20>
   12c0e:	56ea                	lw	a3,184(sp)
   12c10:	9836                	add	a6,a6,a3
   12c12:	7542                	ld	a0,48(sp)
   12c14:	4601                	li	a2,0
   12c16:	4681                	li	a3,0
   12c18:	85e6                	mv	a1,s9
   12c1a:	e0c2                	sd	a6,64(sp)
   12c1c:	fc1a                	sd	t1,56(sp)
   12c1e:	3b6050ef          	jal	17fd4 <__eqtf2>
   12c22:	7362                	ld	t1,56(sp)
   12c24:	6806                	ld	a6,64(sp)
   12c26:	12050163          	beqz	a0,12d48 <_vfprintf_r+0x1854>
   12c2a:	67ae                	ld	a5,200(sp)
   12c2c:	0107fc63          	bgeu	a5,a6,12c44 <_vfprintf_r+0x1750>
   12c30:	03000693          	li	a3,48
   12c34:	00178713          	add	a4,a5,1
   12c38:	e5ba                	sd	a4,200(sp)
   12c3a:	00d78023          	sb	a3,0(a5)
   12c3e:	67ae                	ld	a5,200(sp)
   12c40:	ff07eae3          	bltu	a5,a6,12c34 <_vfprintf_r+0x1740>
   12c44:	576a                	lw	a4,184(sp)
   12c46:	f83a                	sd	a4,48(sp)
   12c48:	41a787bb          	subw	a5,a5,s10
   12c4c:	04700713          	li	a4,71
   12c50:	fc3e                	sd	a5,56(sp)
   12c52:	f4ec00e3          	beq	s8,a4,12b92 <_vfprintf_r+0x169e>
   12c56:	04600713          	li	a4,70
   12c5a:	18ec0b63          	beq	s8,a4,12df0 <_vfprintf_r+0x18fc>
   12c5e:	77c2                	ld	a5,48(sp)
   12c60:	fff7871b          	addw	a4,a5,-1
   12c64:	dd3a                	sw	a4,184(sp)
   12c66:	b789                	j	12ba8 <_vfprintf_r+0x16b4>
   12c68:	77e2                	ld	a5,56(sp)
   12c6a:	7742                	ld	a4,48(sp)
   12c6c:	14f74b63          	blt	a4,a5,12dc2 <_vfprintf_r+0x18ce>
   12c70:	77c2                	ld	a5,48(sp)
   12c72:	001df713          	and	a4,s11,1
   12c76:	86be                	mv	a3,a5
   12c78:	c701                	beqz	a4,12c80 <_vfprintf_r+0x178c>
   12c7a:	6746                	ld	a4,80(sp)
   12c7c:	00f706bb          	addw	a3,a4,a5
   12c80:	400dfe13          	and	t3,s11,1024
   12c84:	000e0563          	beqz	t3,12c8e <_vfprintf_r+0x179a>
   12c88:	77c2                	ld	a5,48(sp)
   12c8a:	22f04063          	bgtz	a5,12eaa <_vfprintf_r+0x19b6>
   12c8e:	fff6c813          	not	a6,a3
   12c92:	43f85813          	sra	a6,a6,0x3f
   12c96:	0106f833          	and	a6,a3,a6
   12c9a:	00080c1b          	sext.w	s8,a6
   12c9e:	8da6                	mv	s11,s1
   12ca0:	06700313          	li	t1,103
   12ca4:	e482                	sd	zero,72(sp)
   12ca6:	e082                	sd	zero,64(sp)
   12ca8:	f07fe06f          	j	11bae <_vfprintf_r+0x6ba>
   12cac:	8dba                	mv	s11,a4
   12cae:	ec02                	sd	zero,24(sp)
   12cb0:	0f810d13          	add	s10,sp,248
   12cb4:	577d                	li	a4,-1
   12cb6:	177e                	sll	a4,a4,0x3f
   12cb8:	02d00793          	li	a5,45
   12cbc:	00ecccb3          	xor	s9,s9,a4
   12cc0:	f4be                	sd	a5,104(sp)
   12cc2:	c85fe06f          	j	11946 <_vfprintf_r+0x452>
   12cc6:	1190                	add	a2,sp,224
   12cc8:	85ca                	mv	a1,s2
   12cca:	854e                	mv	a0,s3
   12ccc:	4cc000ef          	jal	13198 <__sprint_r>
   12cd0:	c8051763          	bnez	a0,1215e <_vfprintf_r+0xc6a>
   12cd4:	000c4583          	lbu	a1,0(s8)
   12cd8:	764e                	ld	a2,240(sp)
   12cda:	87d2                	mv	a5,s4
   12cdc:	4741                	li	a4,16
   12cde:	469d                	li	a3,7
   12ce0:	9d2e                	add	s10,s10,a1
   12ce2:	b9d5                	j	129d6 <_vfprintf_r+0x14e2>
   12ce4:	02d00793          	li	a5,45
   12ce8:	0af107a3          	sb	a5,175(sp)
   12cec:	02d00713          	li	a4,45
   12cf0:	bc5d                	j	127a6 <_vfprintf_r+0x12b2>
   12cf2:	88da                	mv	a7,s6
   12cf4:	8b4a                	mv	s6,s2
   12cf6:	894e                	mv	s2,s3
   12cf8:	79c2                	ld	s3,48(sp)
   12cfa:	bc8d                	j	1276c <_vfprintf_r+0x1278>
   12cfc:	0af14703          	lbu	a4,175(sp)
   12d00:	f026                	sd	s1,32(sp)
   12d02:	e482                	sd	zero,72(sp)
   12d04:	e082                	sd	zero,64(sp)
   12d06:	f802                	sd	zero,48(sp)
   12d08:	8c5a                	mv	s8,s6
   12d0a:	86da                	mv	a3,s6
   12d0c:	4b01                	li	s6,0
   12d0e:	c319                	beqz	a4,12d14 <_vfprintf_r+0x1820>
   12d10:	b37fe06f          	j	11846 <_vfprintf_r+0x352>
   12d14:	97dfe06f          	j	11690 <_vfprintf_r+0x19c>
   12d18:	75c2                	ld	a1,48(sp)
   12d1a:	6522                	ld	a0,8(sp)
   12d1c:	875a                	mv	a4,s6
   12d1e:	0c810893          	add	a7,sp,200
   12d22:	0bc10813          	add	a6,sp,188
   12d26:	193c                	add	a5,sp,184
   12d28:	4689                	li	a3,2
   12d2a:	8666                	mv	a2,s9
   12d2c:	fc1a                	sd	t1,56(sp)
   12d2e:	302020ef          	jal	15030 <_ldtoa_r>
   12d32:	001df713          	and	a4,s11,1
   12d36:	7362                	ld	t1,56(sp)
   12d38:	8d2a                	mv	s10,a0
   12d3a:	e40706e3          	beqz	a4,12b86 <_vfprintf_r+0x1692>
   12d3e:	016d0833          	add	a6,s10,s6
   12d42:	04700c13          	li	s8,71
   12d46:	b5f1                	j	12c12 <_vfprintf_r+0x171e>
   12d48:	57ea                	lw	a5,184(sp)
   12d4a:	f83e                	sd	a5,48(sp)
   12d4c:	87c2                	mv	a5,a6
   12d4e:	bded                	j	12c48 <_vfprintf_r+0x1754>
   12d50:	6522                	ld	a0,8(sp)
   12d52:	1190                	add	a2,sp,224
   12d54:	85ca                	mv	a1,s2
   12d56:	442000ef          	jal	13198 <__sprint_r>
   12d5a:	c0051263          	bnez	a0,1215e <_vfprintf_r+0xc6a>
   12d5e:	56ea                	lw	a3,184(sp)
   12d60:	77e2                	ld	a5,56(sp)
   12d62:	74ce                	ld	s1,240(sp)
   12d64:	8452                	mv	s0,s4
   12d66:	40d786bb          	subw	a3,a5,a3
   12d6a:	df6ff06f          	j	12360 <_vfprintf_r+0xe6c>
   12d6e:	67e5                	lui	a5,0x19
   12d70:	22078d13          	add	s10,a5,544 # 19220 <__clzdi2+0x7e>
   12d74:	b481                	j	127b4 <_vfprintf_r+0x12c0>
   12d76:	68e5                	lui	a7,0x19
   12d78:	55c1                	li	a1,-16
   12d7a:	40e00b3b          	negw	s6,a4
   12d7e:	4a888893          	add	a7,a7,1192 # 194a8 <zeroes.0>
   12d82:	0ab75163          	bge	a4,a1,12e24 <_vfprintf_r+0x1930>
   12d86:	f84e                	sd	s3,48(sp)
   12d88:	4cc1                	li	s9,16
   12d8a:	449d                	li	s1,7
   12d8c:	89c6                	mv	s3,a7
   12d8e:	a021                	j	12d96 <_vfprintf_r+0x18a2>
   12d90:	3b41                	addw	s6,s6,-16
   12d92:	096cd763          	bge	s9,s6,12e20 <_vfprintf_r+0x192c>
   12d96:	2685                	addw	a3,a3,1
   12d98:	0641                	add	a2,a2,16
   12d9a:	01343023          	sd	s3,0(s0)
   12d9e:	01943423          	sd	s9,8(s0)
   12da2:	f9b2                	sd	a2,240(sp)
   12da4:	d5b6                	sw	a3,232(sp)
   12da6:	0441                	add	s0,s0,16
   12da8:	fed4d4e3          	bge	s1,a3,12d90 <_vfprintf_r+0x189c>
   12dac:	6522                	ld	a0,8(sp)
   12dae:	1190                	add	a2,sp,224
   12db0:	85ca                	mv	a1,s2
   12db2:	3e6000ef          	jal	13198 <__sprint_r>
   12db6:	ba051463          	bnez	a0,1215e <_vfprintf_r+0xc6a>
   12dba:	764e                	ld	a2,240(sp)
   12dbc:	56ae                	lw	a3,232(sp)
   12dbe:	8452                	mv	s0,s4
   12dc0:	bfc1                	j	12d90 <_vfprintf_r+0x189c>
   12dc2:	67c6                	ld	a5,80(sp)
   12dc4:	7762                	ld	a4,56(sp)
   12dc6:	06700313          	li	t1,103
   12dca:	00e786bb          	addw	a3,a5,a4
   12dce:	77c2                	ld	a5,48(sp)
   12dd0:	16f05d63          	blez	a5,12f4a <_vfprintf_r+0x1a56>
   12dd4:	400dfe13          	and	t3,s11,1024
   12dd8:	0c0e1b63          	bnez	t3,12eae <_vfprintf_r+0x19ba>
   12ddc:	fff6c813          	not	a6,a3
   12de0:	43f85813          	sra	a6,a6,0x3f
   12de4:	0106f833          	and	a6,a3,a6
   12de8:	00080c1b          	sext.w	s8,a6
   12dec:	8da6                	mv	s11,s1
   12dee:	bd5d                	j	12ca4 <_vfprintf_r+0x17b0>
   12df0:	77c2                	ld	a5,48(sp)
   12df2:	001df713          	and	a4,s11,1
   12df6:	00eb6733          	or	a4,s6,a4
   12dfa:	1cf05363          	blez	a5,12fc0 <_vfprintf_r+0x1acc>
   12dfe:	12071f63          	bnez	a4,12f3c <_vfprintf_r+0x1a48>
   12e02:	76c2                	ld	a3,48(sp)
   12e04:	06600313          	li	t1,102
   12e08:	b7f1                	j	12dd4 <_vfprintf_r+0x18e0>
   12e0a:	57fd                	li	a5,-1
   12e0c:	e83e                	sd	a5,16(sp)
   12e0e:	989fe06f          	j	11796 <_vfprintf_r+0x2a2>
   12e12:	8cee                	mv	s9,s11
   12e14:	b68ff06f          	j	1217c <_vfprintf_r+0xc88>
   12e18:	001b071b          	addw	a4,s6,1
   12e1c:	4689                	li	a3,2
   12e1e:	bb5d                	j	12bd4 <_vfprintf_r+0x16e0>
   12e20:	88ce                	mv	a7,s3
   12e22:	79c2                	ld	s3,48(sp)
   12e24:	2685                	addw	a3,a3,1
   12e26:	965a                	add	a2,a2,s6
   12e28:	01143023          	sd	a7,0(s0)
   12e2c:	01643423          	sd	s6,8(s0)
   12e30:	f9b2                	sd	a2,240(sp)
   12e32:	d5b6                	sw	a3,232(sp)
   12e34:	471d                	li	a4,7
   12e36:	8ed75de3          	bge	a4,a3,12730 <_vfprintf_r+0x123c>
   12e3a:	6522                	ld	a0,8(sp)
   12e3c:	1190                	add	a2,sp,224
   12e3e:	85ca                	mv	a1,s2
   12e40:	358000ef          	jal	13198 <__sprint_r>
   12e44:	b0051d63          	bnez	a0,1215e <_vfprintf_r+0xc6a>
   12e48:	764e                	ld	a2,240(sp)
   12e4a:	56ae                	lw	a3,232(sp)
   12e4c:	8452                	mv	s0,s4
   12e4e:	b2c5                	j	1282e <_vfprintf_r+0x133a>
   12e50:	0c210693          	add	a3,sp,194
   12e54:	e619                	bnez	a2,12e62 <_vfprintf_r+0x196e>
   12e56:	03000693          	li	a3,48
   12e5a:	0cd10123          	sb	a3,194(sp)
   12e5e:	0c310693          	add	a3,sp,195
   12e62:	139c                	add	a5,sp,480
   12e64:	40f68633          	sub	a2,a3,a5
   12e68:	0307071b          	addw	a4,a4,48
   12e6c:	1216079b          	addw	a5,a2,289
   12e70:	00e68023          	sb	a4,0(a3)
   12e74:	f8be                	sd	a5,112(sp)
   12e76:	cfffe06f          	j	11b74 <_vfprintf_r+0x680>
   12e7a:	ec02                	sd	zero,24(sp)
   12e7c:	4b19                	li	s6,6
   12e7e:	ab1fe06f          	j	1192e <_vfprintf_r+0x43a>
   12e82:	000b0463          	beqz	s6,12e8a <_vfprintf_r+0x1996>
   12e86:	aa9fe06f          	j	1192e <_vfprintf_r+0x43a>
   12e8a:	4b05                	li	s6,1
   12e8c:	aa3fe06f          	j	1192e <_vfprintf_r+0x43a>
   12e90:	001df613          	and	a2,s11,1
   12e94:	e219                	bnez	a2,12e9a <_vfprintf_r+0x19a6>
   12e96:	cf9fe06f          	j	11b8e <_vfprintf_r+0x69a>
   12e9a:	ceffe06f          	j	11b88 <_vfprintf_r+0x694>
   12e9e:	f03a                	sd	a4,32(sp)
   12ea0:	adcff06f          	j	1217c <_vfprintf_r+0xc88>
   12ea4:	c31c                	sw	a5,0(a4)
   12ea6:	84cff06f          	j	11ef2 <_vfprintf_r+0x9fe>
   12eaa:	06700313          	li	t1,103
   12eae:	678a                	ld	a5,128(sp)
   12eb0:	0ff00613          	li	a2,255
   12eb4:	0007c703          	lbu	a4,0(a5)
   12eb8:	16c70863          	beq	a4,a2,13028 <_vfprintf_r+0x1b34>
   12ebc:	863e                	mv	a2,a5
   12ebe:	77c2                	ld	a5,48(sp)
   12ec0:	4881                	li	a7,0
   12ec2:	4801                	li	a6,0
   12ec4:	0ff00593          	li	a1,255
   12ec8:	0007051b          	sext.w	a0,a4
   12ecc:	00f75a63          	bge	a4,a5,12ee0 <_vfprintf_r+0x19ec>
   12ed0:	00164703          	lbu	a4,1(a2)
   12ed4:	9f89                	subw	a5,a5,a0
   12ed6:	cb1d                	beqz	a4,12f0c <_vfprintf_r+0x1a18>
   12ed8:	2805                	addw	a6,a6,1
   12eda:	0605                	add	a2,a2,1
   12edc:	feb716e3          	bne	a4,a1,12ec8 <_vfprintf_r+0x19d4>
   12ee0:	e132                	sd	a2,128(sp)
   12ee2:	e0c2                	sd	a6,64(sp)
   12ee4:	e4c6                	sd	a7,72(sp)
   12ee6:	f83e                	sd	a5,48(sp)
   12ee8:	67a6                	ld	a5,72(sp)
   12eea:	6706                	ld	a4,64(sp)
   12eec:	8da6                	mv	s11,s1
   12eee:	9f3d                	addw	a4,a4,a5
   12ef0:	67aa                	ld	a5,136(sp)
   12ef2:	02f7073b          	mulw	a4,a4,a5
   12ef6:	9f35                	addw	a4,a4,a3
   12ef8:	0007069b          	sext.w	a3,a4
   12efc:	fff6c613          	not	a2,a3
   12f00:	967d                	sra	a2,a2,0x3f
   12f02:	8f71                	and	a4,a4,a2
   12f04:	00070c1b          	sext.w	s8,a4
   12f08:	ca7fe06f          	j	11bae <_vfprintf_r+0x6ba>
   12f0c:	00064703          	lbu	a4,0(a2)
   12f10:	2885                	addw	a7,a7,1
   12f12:	b7e9                	j	12edc <_vfprintf_r+0x19e8>
   12f14:	7542                	ld	a0,48(sp)
   12f16:	4601                	li	a2,0
   12f18:	4681                	li	a3,0
   12f1a:	85e6                	mv	a1,s9
   12f1c:	e4c2                	sd	a6,72(sp)
   12f1e:	e09a                	sd	t1,64(sp)
   12f20:	fc3a                	sd	a4,56(sp)
   12f22:	0b2050ef          	jal	17fd4 <__eqtf2>
   12f26:	7762                	ld	a4,56(sp)
   12f28:	6306                	ld	t1,64(sp)
   12f2a:	6826                	ld	a6,72(sp)
   12f2c:	e551                	bnez	a0,12fb8 <_vfprintf_r+0x1ac4>
   12f2e:	57ea                	lw	a5,184(sp)
   12f30:	983e                	add	a6,a6,a5
   12f32:	f83e                	sd	a5,48(sp)
   12f34:	41a807bb          	subw	a5,a6,s10
   12f38:	fc3e                	sd	a5,56(sp)
   12f3a:	bb31                	j	12c56 <_vfprintf_r+0x1762>
   12f3c:	6746                	ld	a4,80(sp)
   12f3e:	06600313          	li	t1,102
   12f42:	016706bb          	addw	a3,a4,s6
   12f46:	9ebd                	addw	a3,a3,a5
   12f48:	b571                	j	12dd4 <_vfprintf_r+0x18e0>
   12f4a:	40f6873b          	subw	a4,a3,a5
   12f4e:	2705                	addw	a4,a4,1
   12f50:	0007069b          	sext.w	a3,a4
   12f54:	fff6c613          	not	a2,a3
   12f58:	967d                	sra	a2,a2,0x3f
   12f5a:	8f71                	and	a4,a4,a2
   12f5c:	00070c1b          	sext.w	s8,a4
   12f60:	8da6                	mv	s11,s1
   12f62:	b389                	j	12ca4 <_vfprintf_r+0x17b0>
   12f64:	684a                	ld	a6,144(sp)
   12f66:	8962                	mv	s2,s8
   12f68:	8c4e                	mv	s8,s3
   12f6a:	010d06bb          	addw	a3,s10,a6
   12f6e:	418686bb          	subw	a3,a3,s8
   12f72:	02069613          	sll	a2,a3,0x20
   12f76:	6306                	ld	t1,64(sp)
   12f78:	6ba6                	ld	s7,72(sp)
   12f7a:	7446                	ld	s0,112(sp)
   12f7c:	79e2                	ld	s3,56(sp)
   12f7e:	00065463          	bgez	a2,12f86 <_vfprintf_r+0x1a92>
   12f82:	b45fe06f          	j	11ac6 <_vfprintf_r+0x5d2>
   12f86:	2685                	addw	a3,a3,1
   12f88:	96e2                	add	a3,a3,s8
   12f8a:	03000613          	li	a2,48
   12f8e:	0c05                	add	s8,s8,1
   12f90:	fecc0fa3          	sb	a2,-1(s8)
   12f94:	fedc1de3          	bne	s8,a3,12f8e <_vfprintf_r+0x1a9a>
   12f98:	b31fe06f          	j	11ac8 <_vfprintf_r+0x5d4>
   12f9c:	65e2                	ld	a1,24(sp)
   12f9e:	894e                	mv	s2,s3
   12fa0:	9c0ff06f          	j	12160 <_vfprintf_r+0xc6c>
   12fa4:	6765                	lui	a4,0x19
   12fa6:	22870793          	add	a5,a4,552 # 19228 <__clzdi2+0x86>
   12faa:	f83e                	sd	a5,48(sp)
   12fac:	a1bfe06f          	j	119c6 <_vfprintf_r+0x4d2>
   12fb0:	07000693          	li	a3,112
   12fb4:	b41fe06f          	j	11af4 <_vfprintf_r+0x600>
   12fb8:	4685                	li	a3,1
   12fba:	9e99                	subw	a3,a3,a4
   12fbc:	dd36                	sw	a3,184(sp)
   12fbe:	b989                	j	12c10 <_vfprintf_r+0x171c>
   12fc0:	e719                	bnez	a4,12fce <_vfprintf_r+0x1ada>
   12fc2:	8da6                	mv	s11,s1
   12fc4:	4c05                	li	s8,1
   12fc6:	06600313          	li	t1,102
   12fca:	4685                	li	a3,1
   12fcc:	b9e1                	j	12ca4 <_vfprintf_r+0x17b0>
   12fce:	67c6                	ld	a5,80(sp)
   12fd0:	8da6                	mv	s11,s1
   12fd2:	06600313          	li	t1,102
   12fd6:	0017871b          	addw	a4,a5,1
   12fda:	0167073b          	addw	a4,a4,s6
   12fde:	0007069b          	sext.w	a3,a4
   12fe2:	fff6c613          	not	a2,a3
   12fe6:	967d                	sra	a2,a2,0x3f
   12fe8:	8f71                	and	a4,a4,a2
   12fea:	00070c1b          	sext.w	s8,a4
   12fee:	b95d                	j	12ca4 <_vfprintf_r+0x17b0>
   12ff0:	4789                	li	a5,2
   12ff2:	f8be                	sd	a5,112(sp)
   12ff4:	b81fe06f          	j	11b74 <_vfprintf_r+0x680>
   12ff8:	7682                	ld	a3,32(sp)
   12ffa:	429c                	lw	a5,0(a3)
   12ffc:	06a1                	add	a3,a3,8
   12ffe:	00078b1b          	sext.w	s6,a5
   13002:	0007d363          	bgez	a5,13008 <_vfprintf_r+0x1b14>
   13006:	5b7d                	li	s6,-1
   13008:	0019c303          	lbu	t1,1(s3)
   1300c:	f036                	sd	a3,32(sp)
   1300e:	89ba                	mv	s3,a4
   13010:	e0cfe06f          	j	1161c <_vfprintf_r+0x128>
   13014:	01095783          	lhu	a5,16(s2)
   13018:	0407e793          	or	a5,a5,64
   1301c:	00f91823          	sh	a5,16(s2)
   13020:	f48fe06f          	j	11768 <_vfprintf_r+0x274>
   13024:	875a                	mv	a4,s6
   13026:	b6f1                	j	12bf2 <_vfprintf_r+0x16fe>
   13028:	e482                	sd	zero,72(sp)
   1302a:	e082                	sd	zero,64(sp)
   1302c:	bd75                	j	12ee8 <_vfprintf_r+0x19f4>

000000000001302e <vfprintf>:
   1302e:	87aa                	mv	a5,a0
   13030:	2201b503          	ld	a0,544(gp) # 1b560 <_impure_ptr>
   13034:	86b2                	mv	a3,a2
   13036:	862e                	mv	a2,a1
   13038:	85be                	mv	a1,a5
   1303a:	cbafe06f          	j	114f4 <_vfprintf_r>

000000000001303e <__sbprintf>:
   1303e:	b3010113          	add	sp,sp,-1232
   13042:	0125d703          	lhu	a4,18(a1)
   13046:	0105d783          	lhu	a5,16(a1)
   1304a:	4c813023          	sd	s0,1216(sp)
   1304e:	842e                	mv	s0,a1
   13050:	65c1                	lui	a1,0x10
   13052:	35f5                	addw	a1,a1,-3 # fffd <exit-0xeb>
   13054:	0ac42e03          	lw	t3,172(s0)
   13058:	03043303          	ld	t1,48(s0)
   1305c:	04043883          	ld	a7,64(s0)
   13060:	0107171b          	sllw	a4,a4,0x10
   13064:	8fed                	and	a5,a5,a1
   13066:	8fd9                	or	a5,a5,a4
   13068:	40000813          	li	a6,1024
   1306c:	c83e                	sw	a5,16(sp)
   1306e:	858a                	mv	a1,sp
   13070:	191c                	add	a5,sp,176
   13072:	4a913c23          	sd	s1,1208(sp)
   13076:	4b213823          	sd	s2,1200(sp)
   1307a:	4c113423          	sd	ra,1224(sp)
   1307e:	892a                	mv	s2,a0
   13080:	d772                	sw	t3,172(sp)
   13082:	f81a                	sd	t1,48(sp)
   13084:	e0c6                	sd	a7,64(sp)
   13086:	e03e                	sd	a5,0(sp)
   13088:	ec3e                	sd	a5,24(sp)
   1308a:	c642                	sw	a6,12(sp)
   1308c:	d042                	sw	a6,32(sp)
   1308e:	d402                	sw	zero,40(sp)
   13090:	c64fe0ef          	jal	114f4 <_vfprintf_r>
   13094:	84aa                	mv	s1,a0
   13096:	02055963          	bgez	a0,130c8 <__sbprintf+0x8a>
   1309a:	01015783          	lhu	a5,16(sp)
   1309e:	0407f793          	and	a5,a5,64
   130a2:	c799                	beqz	a5,130b0 <__sbprintf+0x72>
   130a4:	01045783          	lhu	a5,16(s0)
   130a8:	0407e793          	or	a5,a5,64
   130ac:	00f41823          	sh	a5,16(s0)
   130b0:	4c813083          	ld	ra,1224(sp)
   130b4:	4c013403          	ld	s0,1216(sp)
   130b8:	4b013903          	ld	s2,1200(sp)
   130bc:	8526                	mv	a0,s1
   130be:	4b813483          	ld	s1,1208(sp)
   130c2:	4d010113          	add	sp,sp,1232
   130c6:	8082                	ret
   130c8:	858a                	mv	a1,sp
   130ca:	854a                	mv	a0,s2
   130cc:	08e010ef          	jal	1415a <_fflush_r>
   130d0:	d569                	beqz	a0,1309a <__sbprintf+0x5c>
   130d2:	54fd                	li	s1,-1
   130d4:	b7d9                	j	1309a <__sbprintf+0x5c>

00000000000130d6 <__sprint_r.part.0>:
   130d6:	0ac5a783          	lw	a5,172(a1)
   130da:	715d                	add	sp,sp,-80
   130dc:	ec56                	sd	s5,24(sp)
   130de:	e486                	sd	ra,72(sp)
   130e0:	03279713          	sll	a4,a5,0x32
   130e4:	8ab2                	mv	s5,a2
   130e6:	08075f63          	bgez	a4,13184 <__sprint_r.part.0+0xae>
   130ea:	6a1c                	ld	a5,16(a2)
   130ec:	f84a                	sd	s2,48(sp)
   130ee:	f44e                	sd	s3,40(sp)
   130f0:	f052                	sd	s4,32(sp)
   130f2:	e85a                	sd	s6,16(sp)
   130f4:	892e                	mv	s2,a1
   130f6:	00063b03          	ld	s6,0(a2)
   130fa:	89aa                	mv	s3,a0
   130fc:	5a7d                	li	s4,-1
   130fe:	cfad                	beqz	a5,13178 <__sprint_r.part.0+0xa2>
   13100:	e0a2                	sd	s0,64(sp)
   13102:	fc26                	sd	s1,56(sp)
   13104:	e45e                	sd	s7,8(sp)
   13106:	008b3483          	ld	s1,8(s6)
   1310a:	000b3403          	ld	s0,0(s6)
   1310e:	8089                	srl	s1,s1,0x2
   13110:	00048b9b          	sext.w	s7,s1
   13114:	05705863          	blez	s7,13164 <__sprint_r.part.0+0x8e>
   13118:	34fd                	addw	s1,s1,-1
   1311a:	02049793          	sll	a5,s1,0x20
   1311e:	01e7d493          	srl	s1,a5,0x1e
   13122:	00440793          	add	a5,s0,4
   13126:	94be                	add	s1,s1,a5
   13128:	a019                	j	1312e <__sprint_r.part.0+0x58>
   1312a:	02848b63          	beq	s1,s0,13160 <__sprint_r.part.0+0x8a>
   1312e:	400c                	lw	a1,0(s0)
   13130:	864a                	mv	a2,s2
   13132:	854e                	mv	a0,s3
   13134:	760010ef          	jal	14894 <_fputwc_r>
   13138:	2501                	sext.w	a0,a0
   1313a:	0411                	add	s0,s0,4
   1313c:	ff4517e3          	bne	a0,s4,1312a <__sprint_r.part.0+0x54>
   13140:	6406                	ld	s0,64(sp)
   13142:	74e2                	ld	s1,56(sp)
   13144:	7942                	ld	s2,48(sp)
   13146:	79a2                	ld	s3,40(sp)
   13148:	7a02                	ld	s4,32(sp)
   1314a:	6b42                	ld	s6,16(sp)
   1314c:	6ba2                	ld	s7,8(sp)
   1314e:	557d                	li	a0,-1
   13150:	60a6                	ld	ra,72(sp)
   13152:	000ab823          	sd	zero,16(s5)
   13156:	000aa423          	sw	zero,8(s5)
   1315a:	6ae2                	ld	s5,24(sp)
   1315c:	6161                	add	sp,sp,80
   1315e:	8082                	ret
   13160:	010ab783          	ld	a5,16(s5)
   13164:	0b8a                	sll	s7,s7,0x2
   13166:	417787b3          	sub	a5,a5,s7
   1316a:	00fab823          	sd	a5,16(s5)
   1316e:	0b41                	add	s6,s6,16
   13170:	fbd9                	bnez	a5,13106 <__sprint_r.part.0+0x30>
   13172:	6406                	ld	s0,64(sp)
   13174:	74e2                	ld	s1,56(sp)
   13176:	6ba2                	ld	s7,8(sp)
   13178:	7942                	ld	s2,48(sp)
   1317a:	79a2                	ld	s3,40(sp)
   1317c:	7a02                	ld	s4,32(sp)
   1317e:	6b42                	ld	s6,16(sp)
   13180:	4501                	li	a0,0
   13182:	b7f9                	j	13150 <__sprint_r.part.0+0x7a>
   13184:	05c010ef          	jal	141e0 <__sfvwrite_r>
   13188:	60a6                	ld	ra,72(sp)
   1318a:	000ab823          	sd	zero,16(s5)
   1318e:	000aa423          	sw	zero,8(s5)
   13192:	6ae2                	ld	s5,24(sp)
   13194:	6161                	add	sp,sp,80
   13196:	8082                	ret

0000000000013198 <__sprint_r>:
   13198:	6a18                	ld	a4,16(a2)
   1319a:	c311                	beqz	a4,1319e <__sprint_r+0x6>
   1319c:	bf2d                	j	130d6 <__sprint_r.part.0>
   1319e:	00062423          	sw	zero,8(a2)
   131a2:	4501                	li	a0,0
   131a4:	8082                	ret

00000000000131a6 <_vfiprintf_r>:
   131a6:	7105                	add	sp,sp,-480
   131a8:	fb52                	sd	s4,432(sp)
   131aa:	f756                	sd	s5,424(sp)
   131ac:	ef5e                	sd	s7,408(sp)
   131ae:	e36a                	sd	s10,384(sp)
   131b0:	ef86                	sd	ra,472(sp)
   131b2:	eb62                	sd	s8,400(sp)
   131b4:	8aaa                	mv	s5,a0
   131b6:	8a2e                	mv	s4,a1
   131b8:	8d32                	mv	s10,a2
   131ba:	8bb6                	mv	s7,a3
   131bc:	c501                	beqz	a0,131c4 <_vfiprintf_r+0x1e>
   131be:	653c                	ld	a5,72(a0)
   131c0:	38078ae3          	beqz	a5,13d54 <_vfiprintf_r+0xbae>
   131c4:	010a1783          	lh	a5,16(s4)
   131c8:	03279693          	sll	a3,a5,0x32
   131cc:	0206c163          	bltz	a3,131ee <_vfiprintf_r+0x48>
   131d0:	0aca2683          	lw	a3,172(s4)
   131d4:	6589                	lui	a1,0x2
   131d6:	7679                	lui	a2,0xffffe
   131d8:	8fcd                	or	a5,a5,a1
   131da:	167d                	add	a2,a2,-1 # ffffffffffffdfff <__BSS_END__+0xfffffffffffe24bf>
   131dc:	0107979b          	sllw	a5,a5,0x10
   131e0:	4107d79b          	sraw	a5,a5,0x10
   131e4:	8ef1                	and	a3,a3,a2
   131e6:	00fa1823          	sh	a5,16(s4)
   131ea:	0ada2623          	sw	a3,172(s4)
   131ee:	0087f693          	and	a3,a5,8
   131f2:	caf1                	beqz	a3,132c6 <_vfiprintf_r+0x120>
   131f4:	018a3683          	ld	a3,24(s4)
   131f8:	c6f9                	beqz	a3,132c6 <_vfiprintf_r+0x120>
   131fa:	8be9                	and	a5,a5,26
   131fc:	46a9                	li	a3,10
   131fe:	0ed78063          	beq	a5,a3,132de <_vfiprintf_r+0x138>
   13202:	67e5                	lui	a5,0x19
   13204:	ff4e                	sd	s3,440(sp)
   13206:	f35a                	sd	s6,416(sp)
   13208:	0f010993          	add	s3,sp,240
   1320c:	4c878793          	add	a5,a5,1224 # 194c8 <blanks.1+0x10>
   13210:	6b65                	lui	s6,0x19
   13212:	eba2                	sd	s0,464(sp)
   13214:	e3ca                	sd	s2,448(sp)
   13216:	e7a6                	sd	s1,456(sp)
   13218:	e766                	sd	s9,392(sp)
   1321a:	feee                	sd	s11,376(sp)
   1321c:	f8ce                	sd	s3,112(sp)
   1321e:	e102                	sd	zero,128(sp)
   13220:	dc82                	sw	zero,120(sp)
   13222:	844e                	mv	s0,s3
   13224:	e802                	sd	zero,16(sp)
   13226:	fc02                	sd	zero,56(sp)
   13228:	f802                	sd	zero,48(sp)
   1322a:	e082                	sd	zero,64(sp)
   1322c:	4c01                	li	s8,0
   1322e:	e43e                	sd	a5,8(sp)
   13230:	4941                	li	s2,16
   13232:	638b0b13          	add	s6,s6,1592 # 19638 <zeroes.0>
   13236:	000d4783          	lbu	a5,0(s10)
   1323a:	c3f9                	beqz	a5,13300 <_vfiprintf_r+0x15a>
   1323c:	84ea                	mv	s1,s10
   1323e:	02500713          	li	a4,37
   13242:	26e78f63          	beq	a5,a4,134c0 <_vfiprintf_r+0x31a>
   13246:	0014c783          	lbu	a5,1(s1)
   1324a:	0485                	add	s1,s1,1
   1324c:	fbfd                	bnez	a5,13242 <_vfiprintf_r+0x9c>
   1324e:	41a48dbb          	subw	s11,s1,s10
   13252:	0a0d8763          	beqz	s11,13300 <_vfiprintf_r+0x15a>
   13256:	57e6                	lw	a5,120(sp)
   13258:	670a                	ld	a4,128(sp)
   1325a:	01a43023          	sd	s10,0(s0)
   1325e:	0017869b          	addw	a3,a5,1
   13262:	976e                	add	a4,a4,s11
   13264:	01b43423          	sd	s11,8(s0)
   13268:	e13a                	sd	a4,128(sp)
   1326a:	dcb6                	sw	a3,120(sp)
   1326c:	479d                	li	a5,7
   1326e:	0441                	add	s0,s0,16
   13270:	00d7db63          	bge	a5,a3,13286 <_vfiprintf_r+0xe0>
   13274:	0e0702e3          	beqz	a4,13b58 <_vfiprintf_r+0x9b2>
   13278:	1890                	add	a2,sp,112
   1327a:	85d2                	mv	a1,s4
   1327c:	8556                	mv	a0,s5
   1327e:	e59ff0ef          	jal	130d6 <__sprint_r.part.0>
   13282:	e151                	bnez	a0,13306 <_vfiprintf_r+0x160>
   13284:	844e                	mv	s0,s3
   13286:	0004c783          	lbu	a5,0(s1)
   1328a:	018d8c3b          	addw	s8,s11,s8
   1328e:	cbad                	beqz	a5,13300 <_vfiprintf_r+0x15a>
   13290:	0014c783          	lbu	a5,1(s1)
   13294:	00148d13          	add	s10,s1,1
   13298:	060103a3          	sb	zero,103(sp)
   1329c:	54fd                	li	s1,-1
   1329e:	4881                	li	a7,0
   132a0:	4c81                	li	s9,0
   132a2:	05a00d93          	li	s11,90
   132a6:	0d05                	add	s10,s10,1
   132a8:	2781                	sext.w	a5,a5
   132aa:	fe07871b          	addw	a4,a5,-32
   132ae:	0007069b          	sext.w	a3,a4
   132b2:	0addeb63          	bltu	s11,a3,13368 <_vfiprintf_r+0x1c2>
   132b6:	02071693          	sll	a3,a4,0x20
   132ba:	01e6d713          	srl	a4,a3,0x1e
   132be:	66a2                	ld	a3,8(sp)
   132c0:	9736                	add	a4,a4,a3
   132c2:	4318                	lw	a4,0(a4)
   132c4:	8702                	jr	a4
   132c6:	85d2                	mv	a1,s4
   132c8:	8556                	mv	a0,s5
   132ca:	44a010ef          	jal	14714 <__swsetup_r>
   132ce:	360519e3          	bnez	a0,13e40 <_vfiprintf_r+0xc9a>
   132d2:	010a1783          	lh	a5,16(s4)
   132d6:	46a9                	li	a3,10
   132d8:	8be9                	and	a5,a5,26
   132da:	f2d794e3          	bne	a5,a3,13202 <_vfiprintf_r+0x5c>
   132de:	012a1783          	lh	a5,18(s4)
   132e2:	f207c0e3          	bltz	a5,13202 <_vfiprintf_r+0x5c>
   132e6:	60fe                	ld	ra,472(sp)
   132e8:	6c5a                	ld	s8,400(sp)
   132ea:	86de                	mv	a3,s7
   132ec:	866a                	mv	a2,s10
   132ee:	6bfa                	ld	s7,408(sp)
   132f0:	6d1a                	ld	s10,384(sp)
   132f2:	85d2                	mv	a1,s4
   132f4:	8556                	mv	a0,s5
   132f6:	7a5a                	ld	s4,432(sp)
   132f8:	7aba                	ld	s5,424(sp)
   132fa:	613d                	add	sp,sp,480
   132fc:	37f0006f          	j	13e7a <__sbprintf>
   13300:	678a                	ld	a5,128(sp)
   13302:	300794e3          	bnez	a5,13e0a <_vfiprintf_r+0xc64>
   13306:	010a5783          	lhu	a5,16(s4)
   1330a:	645e                	ld	s0,464(sp)
   1330c:	64be                	ld	s1,456(sp)
   1330e:	0407f793          	and	a5,a5,64
   13312:	691e                	ld	s2,448(sp)
   13314:	79fa                	ld	s3,440(sp)
   13316:	7b1a                	ld	s6,416(sp)
   13318:	6cba                	ld	s9,392(sp)
   1331a:	7df6                	ld	s11,376(sp)
   1331c:	320792e3          	bnez	a5,13e40 <_vfiprintf_r+0xc9a>
   13320:	60fe                	ld	ra,472(sp)
   13322:	7a5a                	ld	s4,432(sp)
   13324:	7aba                	ld	s5,424(sp)
   13326:	6bfa                	ld	s7,408(sp)
   13328:	6d1a                	ld	s10,384(sp)
   1332a:	8562                	mv	a0,s8
   1332c:	6c5a                	ld	s8,400(sp)
   1332e:	613d                	add	sp,sp,480
   13330:	8082                	ret
   13332:	4881                	li	a7,0
   13334:	4625                	li	a2,9
   13336:	000d4683          	lbu	a3,0(s10)
   1333a:	0028971b          	sllw	a4,a7,0x2
   1333e:	011708bb          	addw	a7,a4,a7
   13342:	fd07879b          	addw	a5,a5,-48
   13346:	0018989b          	sllw	a7,a7,0x1
   1334a:	fd06871b          	addw	a4,a3,-48
   1334e:	011788bb          	addw	a7,a5,a7
   13352:	0d05                	add	s10,s10,1
   13354:	0006879b          	sext.w	a5,a3
   13358:	fce67fe3          	bgeu	a2,a4,13336 <_vfiprintf_r+0x190>
   1335c:	fe07871b          	addw	a4,a5,-32
   13360:	0007069b          	sext.w	a3,a4
   13364:	f4ddf9e3          	bgeu	s11,a3,132b6 <_vfiprintf_r+0x110>
   13368:	dfc1                	beqz	a5,13300 <_vfiprintf_r+0x15a>
   1336a:	08f10423          	sb	a5,136(sp)
   1336e:	060103a3          	sb	zero,103(sp)
   13372:	4305                	li	t1,1
   13374:	4e05                	li	t3,1
   13376:	08810d93          	add	s11,sp,136
   1337a:	4481                	li	s1,0
   1337c:	4f81                	li	t6,0
   1337e:	56e6                	lw	a3,120(sp)
   13380:	084cf293          	and	t0,s9,132
   13384:	678a                	ld	a5,128(sp)
   13386:	0016859b          	addw	a1,a3,1
   1338a:	862e                	mv	a2,a1
   1338c:	00029663          	bnez	t0,13398 <_vfiprintf_r+0x1f2>
   13390:	4068873b          	subw	a4,a7,t1
   13394:	62e04b63          	bgtz	a4,139ca <_vfiprintf_r+0x824>
   13398:	06714703          	lbu	a4,103(sp)
   1339c:	cf19                	beqz	a4,133ba <_vfiprintf_r+0x214>
   1339e:	06710713          	add	a4,sp,103
   133a2:	0785                	add	a5,a5,1
   133a4:	e018                	sd	a4,0(s0)
   133a6:	4705                	li	a4,1
   133a8:	e418                	sd	a4,8(s0)
   133aa:	e13e                	sd	a5,128(sp)
   133ac:	dcae                	sw	a1,120(sp)
   133ae:	471d                	li	a4,7
   133b0:	58b74e63          	blt	a4,a1,1394c <_vfiprintf_r+0x7a6>
   133b4:	86ae                	mv	a3,a1
   133b6:	0441                	add	s0,s0,16
   133b8:	2585                	addw	a1,a1,1 # 2001 <exit-0xe0e7>
   133ba:	040f8163          	beqz	t6,133fc <_vfiprintf_r+0x256>
   133be:	10b8                	add	a4,sp,104
   133c0:	0789                	add	a5,a5,2
   133c2:	e018                	sd	a4,0(s0)
   133c4:	4709                	li	a4,2
   133c6:	e418                	sd	a4,8(s0)
   133c8:	e13e                	sd	a5,128(sp)
   133ca:	dcae                	sw	a1,120(sp)
   133cc:	471d                	li	a4,7
   133ce:	5ab75f63          	bge	a4,a1,1398c <_vfiprintf_r+0x7e6>
   133d2:	78078763          	beqz	a5,13b60 <_vfiprintf_r+0x9ba>
   133d6:	1890                	add	a2,sp,112
   133d8:	85d2                	mv	a1,s4
   133da:	8556                	mv	a0,s5
   133dc:	e49a                	sd	t1,72(sp)
   133de:	f446                	sd	a7,40(sp)
   133e0:	f072                	sd	t3,32(sp)
   133e2:	ec16                	sd	t0,24(sp)
   133e4:	cf3ff0ef          	jal	130d6 <__sprint_r.part.0>
   133e8:	fd19                	bnez	a0,13306 <_vfiprintf_r+0x160>
   133ea:	56e6                	lw	a3,120(sp)
   133ec:	678a                	ld	a5,128(sp)
   133ee:	6326                	ld	t1,72(sp)
   133f0:	78a2                	ld	a7,40(sp)
   133f2:	7e02                	ld	t3,32(sp)
   133f4:	62e2                	ld	t0,24(sp)
   133f6:	844e                	mv	s0,s3
   133f8:	0016859b          	addw	a1,a3,1
   133fc:	08000713          	li	a4,128
   13400:	3ee28463          	beq	t0,a4,137e8 <_vfiprintf_r+0x642>
   13404:	41c484bb          	subw	s1,s1,t3
   13408:	4a904063          	bgtz	s1,138a8 <_vfiprintf_r+0x702>
   1340c:	97f2                	add	a5,a5,t3
   1340e:	01b43023          	sd	s11,0(s0)
   13412:	01c43423          	sd	t3,8(s0)
   13416:	e13e                	sd	a5,128(sp)
   13418:	dcae                	sw	a1,120(sp)
   1341a:	471d                	li	a4,7
   1341c:	3cb75463          	bge	a4,a1,137e4 <_vfiprintf_r+0x63e>
   13420:	64078763          	beqz	a5,13a6e <_vfiprintf_r+0x8c8>
   13424:	1890                	add	a2,sp,112
   13426:	85d2                	mv	a1,s4
   13428:	8556                	mv	a0,s5
   1342a:	f01a                	sd	t1,32(sp)
   1342c:	ec46                	sd	a7,24(sp)
   1342e:	ca9ff0ef          	jal	130d6 <__sprint_r.part.0>
   13432:	ec051ae3          	bnez	a0,13306 <_vfiprintf_r+0x160>
   13436:	678a                	ld	a5,128(sp)
   13438:	7302                	ld	t1,32(sp)
   1343a:	68e2                	ld	a7,24(sp)
   1343c:	844e                	mv	s0,s3
   1343e:	004cf813          	and	a6,s9,4
   13442:	00080663          	beqz	a6,1344e <_vfiprintf_r+0x2a8>
   13446:	406884bb          	subw	s1,a7,t1
   1344a:	62904c63          	bgtz	s1,13a82 <_vfiprintf_r+0x8dc>
   1344e:	8746                	mv	a4,a7
   13450:	0068d363          	bge	a7,t1,13456 <_vfiprintf_r+0x2b0>
   13454:	871a                	mv	a4,t1
   13456:	01870c3b          	addw	s8,a4,s8
   1345a:	4c079d63          	bnez	a5,13934 <_vfiprintf_r+0x78e>
   1345e:	dc82                	sw	zero,120(sp)
   13460:	844e                	mv	s0,s3
   13462:	bbd1                	j	13236 <_vfiprintf_r+0x90>
   13464:	010cec93          	or	s9,s9,16
   13468:	000d4783          	lbu	a5,0(s10)
   1346c:	2c81                	sext.w	s9,s9
   1346e:	bd25                	j	132a6 <_vfiprintf_r+0x100>
   13470:	010ce813          	or	a6,s9,16
   13474:	00080c9b          	sext.w	s9,a6
   13478:	020cf793          	and	a5,s9,32
   1347c:	008b8e93          	add	t4,s7,8
   13480:	c7b9                	beqz	a5,134ce <_vfiprintf_r+0x328>
   13482:	000bb783          	ld	a5,0(s7)
   13486:	8bbe                	mv	s7,a5
   13488:	0607c363          	bltz	a5,134ee <_vfiprintf_r+0x348>
   1348c:	0604cd63          	bltz	s1,13506 <_vfiprintf_r+0x360>
   13490:	f7fcf813          	and	a6,s9,-129
   13494:	00080c9b          	sext.w	s9,a6
   13498:	060b9763          	bnez	s7,13506 <_vfiprintf_r+0x360>
   1349c:	180492e3          	bnez	s1,13e20 <_vfiprintf_r+0xc7a>
   134a0:	06714783          	lbu	a5,103(sp)
   134a4:	4301                	li	t1,0
   134a6:	4e01                	li	t3,0
   134a8:	8bf6                	mv	s7,t4
   134aa:	0ec10d93          	add	s11,sp,236
   134ae:	c391                	beqz	a5,134b2 <_vfiprintf_r+0x30c>
   134b0:	2305                	addw	t1,t1,1
   134b2:	002cff93          	and	t6,s9,2
   134b6:	ec0f84e3          	beqz	t6,1337e <_vfiprintf_r+0x1d8>
   134ba:	2309                	addw	t1,t1,2
   134bc:	4f89                	li	t6,2
   134be:	b5c1                	j	1337e <_vfiprintf_r+0x1d8>
   134c0:	41a48dbb          	subw	s11,s1,s10
   134c4:	d80d99e3          	bnez	s11,13256 <_vfiprintf_r+0xb0>
   134c8:	0004c783          	lbu	a5,0(s1)
   134cc:	b3c9                	j	1328e <_vfiprintf_r+0xe8>
   134ce:	010cf793          	and	a5,s9,16
   134d2:	fbc5                	bnez	a5,13482 <_vfiprintf_r+0x2dc>
   134d4:	040cf793          	and	a5,s9,64
   134d8:	000bab83          	lw	s7,0(s7)
   134dc:	0c0787e3          	beqz	a5,13daa <_vfiprintf_r+0xc04>
   134e0:	010b9b9b          	sllw	s7,s7,0x10
   134e4:	410bdb9b          	sraw	s7,s7,0x10
   134e8:	87de                	mv	a5,s7
   134ea:	fa07d1e3          	bgez	a5,1348c <_vfiprintf_r+0x2e6>
   134ee:	02d00793          	li	a5,45
   134f2:	06f103a3          	sb	a5,103(sp)
   134f6:	41700bb3          	neg	s7,s7
   134fa:	0004c663          	bltz	s1,13506 <_vfiprintf_r+0x360>
   134fe:	f7fcf813          	and	a6,s9,-129
   13502:	00080c9b          	sext.w	s9,a6
   13506:	47a5                	li	a5,9
   13508:	6977ef63          	bltu	a5,s7,13ba6 <_vfiprintf_r+0xa00>
   1350c:	030b879b          	addw	a5,s7,48
   13510:	0ff7f793          	zext.b	a5,a5
   13514:	8bf6                	mv	s7,t4
   13516:	0ef105a3          	sb	a5,235(sp)
   1351a:	0004831b          	sext.w	t1,s1
   1351e:	00904363          	bgtz	s1,13524 <_vfiprintf_r+0x37e>
   13522:	4305                	li	t1,1
   13524:	4e05                	li	t3,1
   13526:	0eb10d93          	add	s11,sp,235
   1352a:	06714783          	lbu	a5,103(sp)
   1352e:	f3c9                	bnez	a5,134b0 <_vfiprintf_r+0x30a>
   13530:	b749                	j	134b2 <_vfiprintf_r+0x30c>
   13532:	000bbd83          	ld	s11,0(s7)
   13536:	060103a3          	sb	zero,103(sp)
   1353a:	0ba1                	add	s7,s7,8
   1353c:	040d80e3          	beqz	s11,13d7c <_vfiprintf_r+0xbd6>
   13540:	ec46                	sd	a7,24(sp)
   13542:	7a04c163          	bltz	s1,13ce4 <_vfiprintf_r+0xb3e>
   13546:	8626                	mv	a2,s1
   13548:	4581                	li	a1,0
   1354a:	856e                	mv	a0,s11
   1354c:	3b8010ef          	jal	14904 <memchr>
   13550:	68e2                	ld	a7,24(sp)
   13552:	8e26                	mv	t3,s1
   13554:	c119                	beqz	a0,1355a <_vfiprintf_r+0x3b4>
   13556:	41b50e3b          	subw	t3,a0,s11
   1355a:	fffe4313          	not	t1,t3
   1355e:	06714783          	lbu	a5,103(sp)
   13562:	43f35313          	sra	t1,t1,0x3f
   13566:	006e7333          	and	t1,t3,t1
   1356a:	2301                	sext.w	t1,t1
   1356c:	4481                	li	s1,0
   1356e:	4f81                	li	t6,0
   13570:	f3a1                	bnez	a5,134b0 <_vfiprintf_r+0x30a>
   13572:	b531                	j	1337e <_vfiprintf_r+0x1d8>
   13574:	000ba783          	lw	a5,0(s7)
   13578:	060103a3          	sb	zero,103(sp)
   1357c:	0ba1                	add	s7,s7,8
   1357e:	08f10423          	sb	a5,136(sp)
   13582:	4305                	li	t1,1
   13584:	4e05                	li	t3,1
   13586:	08810d93          	add	s11,sp,136
   1358a:	bbc5                	j	1337a <_vfiprintf_r+0x1d4>
   1358c:	000ba883          	lw	a7,0(s7)
   13590:	0ba1                	add	s7,s7,8
   13592:	0808df63          	bgez	a7,13630 <_vfiprintf_r+0x48a>
   13596:	411008bb          	negw	a7,a7
   1359a:	004cec93          	or	s9,s9,4
   1359e:	000d4783          	lbu	a5,0(s10)
   135a2:	2c81                	sext.w	s9,s9
   135a4:	b309                	j	132a6 <_vfiprintf_r+0x100>
   135a6:	02b00713          	li	a4,43
   135aa:	000d4783          	lbu	a5,0(s10)
   135ae:	06e103a3          	sb	a4,103(sp)
   135b2:	b9d5                	j	132a6 <_vfiprintf_r+0x100>
   135b4:	080cec93          	or	s9,s9,128
   135b8:	000d4783          	lbu	a5,0(s10)
   135bc:	2c81                	sext.w	s9,s9
   135be:	b1e5                	j	132a6 <_vfiprintf_r+0x100>
   135c0:	000d4783          	lbu	a5,0(s10)
   135c4:	02a00613          	li	a2,42
   135c8:	001d0693          	add	a3,s10,1
   135cc:	08c782e3          	beq	a5,a2,13e50 <_vfiprintf_r+0xcaa>
   135d0:	fd07871b          	addw	a4,a5,-48
   135d4:	4525                	li	a0,9
   135d6:	4601                	li	a2,0
   135d8:	45a5                	li	a1,9
   135da:	8d36                	mv	s10,a3
   135dc:	4481                	li	s1,0
   135de:	cce566e3          	bltu	a0,a4,132aa <_vfiprintf_r+0x104>
   135e2:	0006c783          	lbu	a5,0(a3)
   135e6:	0026149b          	sllw	s1,a2,0x2
   135ea:	9cb1                	addw	s1,s1,a2
   135ec:	0014949b          	sllw	s1,s1,0x1
   135f0:	00e4863b          	addw	a2,s1,a4
   135f4:	fd07871b          	addw	a4,a5,-48
   135f8:	84b2                	mv	s1,a2
   135fa:	0685                	add	a3,a3,1
   135fc:	fee5f3e3          	bgeu	a1,a4,135e2 <_vfiprintf_r+0x43c>
   13600:	66064663          	bltz	a2,13c6c <_vfiprintf_r+0xac6>
   13604:	8d36                	mv	s10,a3
   13606:	b155                	j	132aa <_vfiprintf_r+0x104>
   13608:	8556                	mv	a0,s5
   1360a:	ec46                	sd	a7,24(sp)
   1360c:	4e2010ef          	jal	14aee <_localeconv_r>
   13610:	651c                	ld	a5,8(a0)
   13612:	853e                	mv	a0,a5
   13614:	e0be                	sd	a5,64(sp)
   13616:	766010ef          	jal	14d7c <strlen>
   1361a:	87aa                	mv	a5,a0
   1361c:	8556                	mv	a0,s5
   1361e:	f83e                	sd	a5,48(sp)
   13620:	4ce010ef          	jal	14aee <_localeconv_r>
   13624:	6918                	ld	a4,16(a0)
   13626:	77c2                	ld	a5,48(sp)
   13628:	68e2                	ld	a7,24(sp)
   1362a:	fc3a                	sd	a4,56(sp)
   1362c:	60079a63          	bnez	a5,13c40 <_vfiprintf_r+0xa9a>
   13630:	000d4783          	lbu	a5,0(s10)
   13634:	b98d                	j	132a6 <_vfiprintf_r+0x100>
   13636:	001cec93          	or	s9,s9,1
   1363a:	000d4783          	lbu	a5,0(s10)
   1363e:	2c81                	sext.w	s9,s9
   13640:	b19d                	j	132a6 <_vfiprintf_r+0x100>
   13642:	06714703          	lbu	a4,103(sp)
   13646:	000d4783          	lbu	a5,0(s10)
   1364a:	c4071ee3          	bnez	a4,132a6 <_vfiprintf_r+0x100>
   1364e:	02000713          	li	a4,32
   13652:	06e103a3          	sb	a4,103(sp)
   13656:	b981                	j	132a6 <_vfiprintf_r+0x100>
   13658:	010ce793          	or	a5,s9,16
   1365c:	2781                	sext.w	a5,a5
   1365e:	0207f713          	and	a4,a5,32
   13662:	008b8693          	add	a3,s7,8
   13666:	e709                	bnez	a4,13670 <_vfiprintf_r+0x4ca>
   13668:	0107f713          	and	a4,a5,16
   1366c:	5c070163          	beqz	a4,13c2e <_vfiprintf_r+0xa88>
   13670:	000bb703          	ld	a4,0(s7)
   13674:	bff7f813          	and	a6,a5,-1025
   13678:	060103a3          	sb	zero,103(sp)
   1367c:	00080c9b          	sext.w	s9,a6
   13680:	8bb6                	mv	s7,a3
   13682:	0804c563          	bltz	s1,1370c <_vfiprintf_r+0x566>
   13686:	b7f7f793          	and	a5,a5,-1153
   1368a:	2781                	sext.w	a5,a5
   1368c:	6a071f63          	bnez	a4,13d4a <_vfiprintf_r+0xba4>
   13690:	8e66                	mv	t3,s9
   13692:	8cbe                	mv	s9,a5
   13694:	e4ad                	bnez	s1,136fe <_vfiprintf_r+0x558>
   13696:	50071363          	bnez	a4,13b9c <_vfiprintf_r+0x9f6>
   1369a:	001e7e13          	and	t3,t3,1
   1369e:	560e0463          	beqz	t3,13c06 <_vfiprintf_r+0xa60>
   136a2:	03000793          	li	a5,48
   136a6:	0ef105a3          	sb	a5,235(sp)
   136aa:	8372                	mv	t1,t3
   136ac:	0eb10d93          	add	s11,sp,235
   136b0:	bdad                	j	1352a <_vfiprintf_r+0x384>
   136b2:	000d4783          	lbu	a5,0(s10)
   136b6:	06c00713          	li	a4,108
   136ba:	6ae78963          	beq	a5,a4,13d6c <_vfiprintf_r+0xbc6>
   136be:	010cec93          	or	s9,s9,16
   136c2:	2c81                	sext.w	s9,s9
   136c4:	b6cd                	j	132a6 <_vfiprintf_r+0x100>
   136c6:	010cee13          	or	t3,s9,16
   136ca:	2e01                	sext.w	t3,t3
   136cc:	020e7793          	and	a5,t3,32
   136d0:	008b8e93          	add	t4,s7,8
   136d4:	e789                	bnez	a5,136de <_vfiprintf_r+0x538>
   136d6:	010e7793          	and	a5,t3,16
   136da:	54078063          	beqz	a5,13c1a <_vfiprintf_r+0xa74>
   136de:	000bbb83          	ld	s7,0(s7)
   136e2:	060103a3          	sb	zero,103(sp)
   136e6:	8cf2                	mv	s9,t3
   136e8:	e004cfe3          	bltz	s1,13506 <_vfiprintf_r+0x360>
   136ec:	f7fe7813          	and	a6,t3,-129
   136f0:	00080c9b          	sext.w	s9,a6
   136f4:	e00b99e3          	bnez	s7,13506 <_vfiprintf_r+0x360>
   136f8:	8bf6                	mv	s7,t4
   136fa:	4705                	li	a4,1
   136fc:	dcc9                	beqz	s1,13696 <_vfiprintf_r+0x4f0>
   136fe:	4785                	li	a5,1
   13700:	72f70163          	beq	a4,a5,13e22 <_vfiprintf_r+0xc7c>
   13704:	4789                	li	a5,2
   13706:	6cf70263          	beq	a4,a5,13dca <_vfiprintf_r+0xc24>
   1370a:	4701                	li	a4,0
   1370c:	0ec10e13          	add	t3,sp,236
   13710:	8df2                	mv	s11,t3
   13712:	00777793          	and	a5,a4,7
   13716:	03078793          	add	a5,a5,48
   1371a:	fefd8fa3          	sb	a5,-1(s11)
   1371e:	830d                	srl	a4,a4,0x3
   13720:	86ee                	mv	a3,s11
   13722:	1dfd                	add	s11,s11,-1
   13724:	f77d                	bnez	a4,13712 <_vfiprintf_r+0x56c>
   13726:	001cf713          	and	a4,s9,1
   1372a:	28070763          	beqz	a4,139b8 <_vfiprintf_r+0x812>
   1372e:	03000713          	li	a4,48
   13732:	28e78363          	beq	a5,a4,139b8 <_vfiprintf_r+0x812>
   13736:	16f9                	add	a3,a3,-2
   13738:	feed8fa3          	sb	a4,-1(s11)
   1373c:	40de0e3b          	subw	t3,t3,a3
   13740:	0004831b          	sext.w	t1,s1
   13744:	53c4c063          	blt	s1,t3,13c64 <_vfiprintf_r+0xabe>
   13748:	8db6                	mv	s11,a3
   1374a:	b3c5                	j	1352a <_vfiprintf_r+0x384>
   1374c:	000d4783          	lbu	a5,0(s10)
   13750:	06800713          	li	a4,104
   13754:	60e78463          	beq	a5,a4,13d5c <_vfiprintf_r+0xbb6>
   13758:	040cec93          	or	s9,s9,64
   1375c:	2c81                	sext.w	s9,s9
   1375e:	b6a1                	j	132a6 <_vfiprintf_r+0x100>
   13760:	020cec93          	or	s9,s9,32
   13764:	000d4783          	lbu	a5,0(s10)
   13768:	2c81                	sext.w	s9,s9
   1376a:	be35                	j	132a6 <_vfiprintf_r+0x100>
   1376c:	67a1                	lui	a5,0x8
   1376e:	83078793          	add	a5,a5,-2000 # 7830 <exit-0x88b8>
   13772:	06f11423          	sh	a5,104(sp)
   13776:	67e5                	lui	a5,0x19
   13778:	002ce813          	or	a6,s9,2
   1377c:	22878793          	add	a5,a5,552 # 19228 <__clzdi2+0x86>
   13780:	000bb703          	ld	a4,0(s7)
   13784:	00080c9b          	sext.w	s9,a6
   13788:	0ba1                	add	s7,s7,8
   1378a:	e83e                	sd	a5,16(sp)
   1378c:	060103a3          	sb	zero,103(sp)
   13790:	2004c663          	bltz	s1,1399c <_vfiprintf_r+0x7f6>
   13794:	f7fcf793          	and	a5,s9,-129
   13798:	2781                	sext.w	a5,a5
   1379a:	1e071d63          	bnez	a4,13994 <_vfiprintf_r+0x7ee>
   1379e:	8e66                	mv	t3,s9
   137a0:	4709                	li	a4,2
   137a2:	8cbe                	mv	s9,a5
   137a4:	bdc5                	j	13694 <_vfiprintf_r+0x4ee>
   137a6:	020cf793          	and	a5,s9,32
   137aa:	000bb703          	ld	a4,0(s7)
   137ae:	e385                	bnez	a5,137ce <_vfiprintf_r+0x628>
   137b0:	010cf793          	and	a5,s9,16
   137b4:	ef89                	bnez	a5,137ce <_vfiprintf_r+0x628>
   137b6:	040cf793          	and	a5,s9,64
   137ba:	62079663          	bnez	a5,13de6 <_vfiprintf_r+0xc40>
   137be:	200cf813          	and	a6,s9,512
   137c2:	68080263          	beqz	a6,13e46 <_vfiprintf_r+0xca0>
   137c6:	01870023          	sb	s8,0(a4)
   137ca:	0ba1                	add	s7,s7,8
   137cc:	b4ad                	j	13236 <_vfiprintf_r+0x90>
   137ce:	01873023          	sd	s8,0(a4)
   137d2:	0ba1                	add	s7,s7,8
   137d4:	b48d                	j	13236 <_vfiprintf_r+0x90>
   137d6:	4705                	li	a4,1
   137d8:	87f2                	mv	a5,t3
   137da:	f9ee                	sd	s11,240(sp)
   137dc:	fdf2                	sd	t3,248(sp)
   137de:	e172                	sd	t3,128(sp)
   137e0:	dcba                	sw	a4,120(sp)
   137e2:	844e                	mv	s0,s3
   137e4:	0441                	add	s0,s0,16
   137e6:	b9a1                	j	1343e <_vfiprintf_r+0x298>
   137e8:	4068873b          	subw	a4,a7,t1
   137ec:	c0e05ce3          	blez	a4,13404 <_vfiprintf_r+0x25e>
   137f0:	4641                	li	a2,16
   137f2:	64e65263          	bge	a2,a4,13e36 <_vfiprintf_r+0xc90>
   137f6:	6ee5                	lui	t4,0x19
   137f8:	638e8e93          	add	t4,t4,1592 # 19638 <zeroes.0>
   137fc:	f426                	sd	s1,40(sp)
   137fe:	85a2                	mv	a1,s0
   13800:	4f41                	li	t5,16
   13802:	4f9d                	li	t6,7
   13804:	ec72                	sd	t3,24(sp)
   13806:	f046                	sd	a7,32(sp)
   13808:	e49a                	sd	t1,72(sp)
   1380a:	843a                	mv	s0,a4
   1380c:	84f6                	mv	s1,t4
   1380e:	a801                	j	1381e <_vfiprintf_r+0x678>
   13810:	0026861b          	addw	a2,a3,2
   13814:	05c1                	add	a1,a1,16
   13816:	86aa                	mv	a3,a0
   13818:	3441                	addw	s0,s0,-16
   1381a:	028f5f63          	bge	t5,s0,13858 <_vfiprintf_r+0x6b2>
   1381e:	0016851b          	addw	a0,a3,1
   13822:	07c1                	add	a5,a5,16
   13824:	e184                	sd	s1,0(a1)
   13826:	01e5b423          	sd	t5,8(a1)
   1382a:	e13e                	sd	a5,128(sp)
   1382c:	dcaa                	sw	a0,120(sp)
   1382e:	feafd1e3          	bge	t6,a0,13810 <_vfiprintf_r+0x66a>
   13832:	10078963          	beqz	a5,13944 <_vfiprintf_r+0x79e>
   13836:	1890                	add	a2,sp,112
   13838:	85d2                	mv	a1,s4
   1383a:	8556                	mv	a0,s5
   1383c:	89bff0ef          	jal	130d6 <__sprint_r.part.0>
   13840:	ac0513e3          	bnez	a0,13306 <_vfiprintf_r+0x160>
   13844:	56e6                	lw	a3,120(sp)
   13846:	4f41                	li	t5,16
   13848:	3441                	addw	s0,s0,-16
   1384a:	678a                	ld	a5,128(sp)
   1384c:	85ce                	mv	a1,s3
   1384e:	0016861b          	addw	a2,a3,1
   13852:	4f9d                	li	t6,7
   13854:	fc8f45e3          	blt	t5,s0,1381e <_vfiprintf_r+0x678>
   13858:	8ea6                	mv	t4,s1
   1385a:	6e62                	ld	t3,24(sp)
   1385c:	7882                	ld	a7,32(sp)
   1385e:	6326                	ld	t1,72(sp)
   13860:	74a2                	ld	s1,40(sp)
   13862:	8722                	mv	a4,s0
   13864:	842e                	mv	s0,a1
   13866:	97ba                	add	a5,a5,a4
   13868:	e418                	sd	a4,8(s0)
   1386a:	01d43023          	sd	t4,0(s0)
   1386e:	e13e                	sd	a5,128(sp)
   13870:	dcb2                	sw	a2,120(sp)
   13872:	471d                	li	a4,7
   13874:	38c75d63          	bge	a4,a2,13c0e <_vfiprintf_r+0xa68>
   13878:	54078b63          	beqz	a5,13dce <_vfiprintf_r+0xc28>
   1387c:	1890                	add	a2,sp,112
   1387e:	85d2                	mv	a1,s4
   13880:	8556                	mv	a0,s5
   13882:	f41a                	sd	t1,40(sp)
   13884:	f046                	sd	a7,32(sp)
   13886:	ec72                	sd	t3,24(sp)
   13888:	84fff0ef          	jal	130d6 <__sprint_r.part.0>
   1388c:	a6051de3          	bnez	a0,13306 <_vfiprintf_r+0x160>
   13890:	6e62                	ld	t3,24(sp)
   13892:	56e6                	lw	a3,120(sp)
   13894:	678a                	ld	a5,128(sp)
   13896:	41c484bb          	subw	s1,s1,t3
   1389a:	7322                	ld	t1,40(sp)
   1389c:	7882                	ld	a7,32(sp)
   1389e:	844e                	mv	s0,s3
   138a0:	0016859b          	addw	a1,a3,1
   138a4:	b69054e3          	blez	s1,1340c <_vfiprintf_r+0x266>
   138a8:	6ee5                	lui	t4,0x19
   138aa:	638e8e93          	add	t4,t4,1592 # 19638 <zeroes.0>
   138ae:	06995363          	bge	s2,s1,13914 <_vfiprintf_r+0x76e>
   138b2:	8722                	mv	a4,s0
   138b4:	4f1d                	li	t5,7
   138b6:	8426                	mv	s0,s1
   138b8:	ec72                	sd	t3,24(sp)
   138ba:	f046                	sd	a7,32(sp)
   138bc:	f41a                	sd	t1,40(sp)
   138be:	84da                	mv	s1,s6
   138c0:	a801                	j	138d0 <_vfiprintf_r+0x72a>
   138c2:	0026859b          	addw	a1,a3,2
   138c6:	0741                	add	a4,a4,16
   138c8:	86aa                	mv	a3,a0
   138ca:	3441                	addw	s0,s0,-16
   138cc:	02895e63          	bge	s2,s0,13908 <_vfiprintf_r+0x762>
   138d0:	0016851b          	addw	a0,a3,1
   138d4:	07c1                	add	a5,a5,16
   138d6:	01673023          	sd	s6,0(a4)
   138da:	01273423          	sd	s2,8(a4)
   138de:	e13e                	sd	a5,128(sp)
   138e0:	dcaa                	sw	a0,120(sp)
   138e2:	feaf50e3          	bge	t5,a0,138c2 <_vfiprintf_r+0x71c>
   138e6:	c3b9                	beqz	a5,1392c <_vfiprintf_r+0x786>
   138e8:	1890                	add	a2,sp,112
   138ea:	85d2                	mv	a1,s4
   138ec:	8556                	mv	a0,s5
   138ee:	fe8ff0ef          	jal	130d6 <__sprint_r.part.0>
   138f2:	a0051ae3          	bnez	a0,13306 <_vfiprintf_r+0x160>
   138f6:	56e6                	lw	a3,120(sp)
   138f8:	3441                	addw	s0,s0,-16
   138fa:	678a                	ld	a5,128(sp)
   138fc:	874e                	mv	a4,s3
   138fe:	0016859b          	addw	a1,a3,1
   13902:	4f1d                	li	t5,7
   13904:	fc8946e3          	blt	s2,s0,138d0 <_vfiprintf_r+0x72a>
   13908:	6e62                	ld	t3,24(sp)
   1390a:	7882                	ld	a7,32(sp)
   1390c:	7322                	ld	t1,40(sp)
   1390e:	8ea6                	mv	t4,s1
   13910:	84a2                	mv	s1,s0
   13912:	843a                	mv	s0,a4
   13914:	97a6                	add	a5,a5,s1
   13916:	01d43023          	sd	t4,0(s0)
   1391a:	e404                	sd	s1,8(s0)
   1391c:	e13e                	sd	a5,128(sp)
   1391e:	dcae                	sw	a1,120(sp)
   13920:	471d                	li	a4,7
   13922:	20b74763          	blt	a4,a1,13b30 <_vfiprintf_r+0x98a>
   13926:	0441                	add	s0,s0,16
   13928:	2585                	addw	a1,a1,1
   1392a:	b4cd                	j	1340c <_vfiprintf_r+0x266>
   1392c:	4585                	li	a1,1
   1392e:	4681                	li	a3,0
   13930:	874e                	mv	a4,s3
   13932:	bf61                	j	138ca <_vfiprintf_r+0x724>
   13934:	1890                	add	a2,sp,112
   13936:	85d2                	mv	a1,s4
   13938:	8556                	mv	a0,s5
   1393a:	f9cff0ef          	jal	130d6 <__sprint_r.part.0>
   1393e:	b20500e3          	beqz	a0,1345e <_vfiprintf_r+0x2b8>
   13942:	b2d1                	j	13306 <_vfiprintf_r+0x160>
   13944:	4605                	li	a2,1
   13946:	4681                	li	a3,0
   13948:	85ce                	mv	a1,s3
   1394a:	b5f9                	j	13818 <_vfiprintf_r+0x672>
   1394c:	cb85                	beqz	a5,1397c <_vfiprintf_r+0x7d6>
   1394e:	1890                	add	a2,sp,112
   13950:	85d2                	mv	a1,s4
   13952:	8556                	mv	a0,s5
   13954:	e89a                	sd	t1,80(sp)
   13956:	e4c6                	sd	a7,72(sp)
   13958:	f472                	sd	t3,40(sp)
   1395a:	f016                	sd	t0,32(sp)
   1395c:	ec7e                	sd	t6,24(sp)
   1395e:	f78ff0ef          	jal	130d6 <__sprint_r.part.0>
   13962:	9a0512e3          	bnez	a0,13306 <_vfiprintf_r+0x160>
   13966:	56e6                	lw	a3,120(sp)
   13968:	678a                	ld	a5,128(sp)
   1396a:	6346                	ld	t1,80(sp)
   1396c:	68a6                	ld	a7,72(sp)
   1396e:	7e22                	ld	t3,40(sp)
   13970:	7282                	ld	t0,32(sp)
   13972:	6fe2                	ld	t6,24(sp)
   13974:	844e                	mv	s0,s3
   13976:	0016859b          	addw	a1,a3,1
   1397a:	b481                	j	133ba <_vfiprintf_r+0x214>
   1397c:	2c0f8f63          	beqz	t6,13c5a <_vfiprintf_r+0xab4>
   13980:	10bc                	add	a5,sp,104
   13982:	f9be                	sd	a5,240(sp)
   13984:	4789                	li	a5,2
   13986:	fdbe                	sd	a5,248(sp)
   13988:	4585                	li	a1,1
   1398a:	844e                	mv	s0,s3
   1398c:	86ae                	mv	a3,a1
   1398e:	0441                	add	s0,s0,16
   13990:	2585                	addw	a1,a1,1
   13992:	b4ad                	j	133fc <_vfiprintf_r+0x256>
   13994:	8cbe                	mv	s9,a5
   13996:	4789                	li	a5,2
   13998:	d6078ae3          	beqz	a5,1370c <_vfiprintf_r+0x566>
   1399c:	66c2                	ld	a3,16(sp)
   1399e:	0ec10e13          	add	t3,sp,236
   139a2:	8df2                	mv	s11,t3
   139a4:	00f77793          	and	a5,a4,15
   139a8:	97b6                	add	a5,a5,a3
   139aa:	0007c783          	lbu	a5,0(a5)
   139ae:	8311                	srl	a4,a4,0x4
   139b0:	1dfd                	add	s11,s11,-1
   139b2:	00fd8023          	sb	a5,0(s11)
   139b6:	f77d                	bnez	a4,139a4 <_vfiprintf_r+0x7fe>
   139b8:	41be0e3b          	subw	t3,t3,s11
   139bc:	0004831b          	sext.w	t1,s1
   139c0:	b7c4d5e3          	bge	s1,t3,1352a <_vfiprintf_r+0x384>
   139c4:	000e031b          	sext.w	t1,t3
   139c8:	b68d                	j	1352a <_vfiprintf_r+0x384>
   139ca:	4541                	li	a0,16
   139cc:	44e55663          	bge	a0,a4,13e18 <_vfiprintf_r+0xc72>
   139d0:	6ee5                	lui	t4,0x19
   139d2:	648e8e93          	add	t4,t4,1608 # 19648 <blanks.1>
   139d6:	e8a6                	sd	s1,80(sp)
   139d8:	85a2                	mv	a1,s0
   139da:	4f41                	li	t5,16
   139dc:	439d                	li	t2,7
   139de:	ec7e                	sd	t6,24(sp)
   139e0:	f016                	sd	t0,32(sp)
   139e2:	f472                	sd	t3,40(sp)
   139e4:	e4c6                	sd	a7,72(sp)
   139e6:	ec9a                	sd	t1,88(sp)
   139e8:	843a                	mv	s0,a4
   139ea:	84f6                	mv	s1,t4
   139ec:	a811                	j	13a00 <_vfiprintf_r+0x85a>
   139ee:	0026861b          	addw	a2,a3,2
   139f2:	05c1                	add	a1,a1,16
   139f4:	86aa                	mv	a3,a0
   139f6:	3441                	addw	s0,s0,-16
   139f8:	048f5063          	bge	t5,s0,13a38 <_vfiprintf_r+0x892>
   139fc:	0016861b          	addw	a2,a3,1
   13a00:	07c1                	add	a5,a5,16
   13a02:	e184                	sd	s1,0(a1)
   13a04:	01e5b423          	sd	t5,8(a1)
   13a08:	e13e                	sd	a5,128(sp)
   13a0a:	0006051b          	sext.w	a0,a2
   13a0e:	dcb2                	sw	a2,120(sp)
   13a10:	fca3dfe3          	bge	t2,a0,139ee <_vfiprintf_r+0x848>
   13a14:	cba9                	beqz	a5,13a66 <_vfiprintf_r+0x8c0>
   13a16:	1890                	add	a2,sp,112
   13a18:	85d2                	mv	a1,s4
   13a1a:	8556                	mv	a0,s5
   13a1c:	ebaff0ef          	jal	130d6 <__sprint_r.part.0>
   13a20:	8e0513e3          	bnez	a0,13306 <_vfiprintf_r+0x160>
   13a24:	56e6                	lw	a3,120(sp)
   13a26:	4f41                	li	t5,16
   13a28:	3441                	addw	s0,s0,-16
   13a2a:	678a                	ld	a5,128(sp)
   13a2c:	85ce                	mv	a1,s3
   13a2e:	0016861b          	addw	a2,a3,1
   13a32:	439d                	li	t2,7
   13a34:	fc8f44e3          	blt	t5,s0,139fc <_vfiprintf_r+0x856>
   13a38:	8ea6                	mv	t4,s1
   13a3a:	6fe2                	ld	t6,24(sp)
   13a3c:	7282                	ld	t0,32(sp)
   13a3e:	7e22                	ld	t3,40(sp)
   13a40:	68a6                	ld	a7,72(sp)
   13a42:	6366                	ld	t1,88(sp)
   13a44:	64c6                	ld	s1,80(sp)
   13a46:	8722                	mv	a4,s0
   13a48:	842e                	mv	s0,a1
   13a4a:	97ba                	add	a5,a5,a4
   13a4c:	e418                	sd	a4,8(s0)
   13a4e:	01d43023          	sd	t4,0(s0)
   13a52:	e13e                	sd	a5,128(sp)
   13a54:	dcb2                	sw	a2,120(sp)
   13a56:	471d                	li	a4,7
   13a58:	10c74863          	blt	a4,a2,13b68 <_vfiprintf_r+0x9c2>
   13a5c:	0441                	add	s0,s0,16
   13a5e:	0016059b          	addw	a1,a2,1
   13a62:	86b2                	mv	a3,a2
   13a64:	ba15                	j	13398 <_vfiprintf_r+0x1f2>
   13a66:	4681                	li	a3,0
   13a68:	4605                	li	a2,1
   13a6a:	85ce                	mv	a1,s3
   13a6c:	b769                	j	139f6 <_vfiprintf_r+0x850>
   13a6e:	dc82                	sw	zero,120(sp)
   13a70:	004cf813          	and	a6,s9,4
   13a74:	0a080763          	beqz	a6,13b22 <_vfiprintf_r+0x97c>
   13a78:	406884bb          	subw	s1,a7,t1
   13a7c:	0a905363          	blez	s1,13b22 <_vfiprintf_r+0x97c>
   13a80:	844e                	mv	s0,s3
   13a82:	4741                	li	a4,16
   13a84:	56e6                	lw	a3,120(sp)
   13a86:	3a975263          	bge	a4,s1,13e2a <_vfiprintf_r+0xc84>
   13a8a:	6ee5                	lui	t4,0x19
   13a8c:	648e8e93          	add	t4,t4,1608 # 19648 <blanks.1>
   13a90:	8622                	mv	a2,s0
   13a92:	4dc1                	li	s11,16
   13a94:	8426                	mv	s0,s1
   13a96:	4c9d                	li	s9,7
   13a98:	ec46                	sd	a7,24(sp)
   13a9a:	f01a                	sd	t1,32(sp)
   13a9c:	84f6                	mv	s1,t4
   13a9e:	a801                	j	13aae <_vfiprintf_r+0x908>
   13aa0:	0026871b          	addw	a4,a3,2
   13aa4:	0641                	add	a2,a2,16
   13aa6:	86ae                	mv	a3,a1
   13aa8:	3441                	addw	s0,s0,-16
   13aaa:	028ddc63          	bge	s11,s0,13ae2 <_vfiprintf_r+0x93c>
   13aae:	0016859b          	addw	a1,a3,1
   13ab2:	07c1                	add	a5,a5,16
   13ab4:	e204                	sd	s1,0(a2)
   13ab6:	01b63423          	sd	s11,8(a2)
   13aba:	e13e                	sd	a5,128(sp)
   13abc:	dcae                	sw	a1,120(sp)
   13abe:	febcd1e3          	bge	s9,a1,13aa0 <_vfiprintf_r+0x8fa>
   13ac2:	cfa1                	beqz	a5,13b1a <_vfiprintf_r+0x974>
   13ac4:	1890                	add	a2,sp,112
   13ac6:	85d2                	mv	a1,s4
   13ac8:	8556                	mv	a0,s5
   13aca:	e0cff0ef          	jal	130d6 <__sprint_r.part.0>
   13ace:	82051ce3          	bnez	a0,13306 <_vfiprintf_r+0x160>
   13ad2:	56e6                	lw	a3,120(sp)
   13ad4:	3441                	addw	s0,s0,-16
   13ad6:	678a                	ld	a5,128(sp)
   13ad8:	864e                	mv	a2,s3
   13ada:	0016871b          	addw	a4,a3,1
   13ade:	fc8dc8e3          	blt	s11,s0,13aae <_vfiprintf_r+0x908>
   13ae2:	68e2                	ld	a7,24(sp)
   13ae4:	7302                	ld	t1,32(sp)
   13ae6:	8ea6                	mv	t4,s1
   13ae8:	84a2                	mv	s1,s0
   13aea:	8432                	mv	s0,a2
   13aec:	97a6                	add	a5,a5,s1
   13aee:	01d43023          	sd	t4,0(s0)
   13af2:	e404                	sd	s1,8(s0)
   13af4:	e13e                	sd	a5,128(sp)
   13af6:	dcba                	sw	a4,120(sp)
   13af8:	469d                	li	a3,7
   13afa:	94e6dae3          	bge	a3,a4,1344e <_vfiprintf_r+0x2a8>
   13afe:	c395                	beqz	a5,13b22 <_vfiprintf_r+0x97c>
   13b00:	1890                	add	a2,sp,112
   13b02:	85d2                	mv	a1,s4
   13b04:	8556                	mv	a0,s5
   13b06:	f01a                	sd	t1,32(sp)
   13b08:	ec46                	sd	a7,24(sp)
   13b0a:	dccff0ef          	jal	130d6 <__sprint_r.part.0>
   13b0e:	fe051c63          	bnez	a0,13306 <_vfiprintf_r+0x160>
   13b12:	678a                	ld	a5,128(sp)
   13b14:	7302                	ld	t1,32(sp)
   13b16:	68e2                	ld	a7,24(sp)
   13b18:	ba1d                	j	1344e <_vfiprintf_r+0x2a8>
   13b1a:	4705                	li	a4,1
   13b1c:	4681                	li	a3,0
   13b1e:	864e                	mv	a2,s3
   13b20:	b761                	j	13aa8 <_vfiprintf_r+0x902>
   13b22:	87c6                	mv	a5,a7
   13b24:	0068d363          	bge	a7,t1,13b2a <_vfiprintf_r+0x984>
   13b28:	879a                	mv	a5,t1
   13b2a:	01878c3b          	addw	s8,a5,s8
   13b2e:	ba05                	j	1345e <_vfiprintf_r+0x2b8>
   13b30:	ca0783e3          	beqz	a5,137d6 <_vfiprintf_r+0x630>
   13b34:	1890                	add	a2,sp,112
   13b36:	85d2                	mv	a1,s4
   13b38:	8556                	mv	a0,s5
   13b3a:	f41a                	sd	t1,40(sp)
   13b3c:	f046                	sd	a7,32(sp)
   13b3e:	ec72                	sd	t3,24(sp)
   13b40:	d96ff0ef          	jal	130d6 <__sprint_r.part.0>
   13b44:	fc051163          	bnez	a0,13306 <_vfiprintf_r+0x160>
   13b48:	55e6                	lw	a1,120(sp)
   13b4a:	678a                	ld	a5,128(sp)
   13b4c:	7322                	ld	t1,40(sp)
   13b4e:	7882                	ld	a7,32(sp)
   13b50:	6e62                	ld	t3,24(sp)
   13b52:	844e                	mv	s0,s3
   13b54:	2585                	addw	a1,a1,1
   13b56:	b85d                	j	1340c <_vfiprintf_r+0x266>
   13b58:	dc82                	sw	zero,120(sp)
   13b5a:	844e                	mv	s0,s3
   13b5c:	f2aff06f          	j	13286 <_vfiprintf_r+0xe0>
   13b60:	4585                	li	a1,1
   13b62:	4681                	li	a3,0
   13b64:	844e                	mv	s0,s3
   13b66:	b859                	j	133fc <_vfiprintf_r+0x256>
   13b68:	18078563          	beqz	a5,13cf2 <_vfiprintf_r+0xb4c>
   13b6c:	1890                	add	a2,sp,112
   13b6e:	85d2                	mv	a1,s4
   13b70:	8556                	mv	a0,s5
   13b72:	e89a                	sd	t1,80(sp)
   13b74:	e4c6                	sd	a7,72(sp)
   13b76:	f472                	sd	t3,40(sp)
   13b78:	f016                	sd	t0,32(sp)
   13b7a:	ec7e                	sd	t6,24(sp)
   13b7c:	d5aff0ef          	jal	130d6 <__sprint_r.part.0>
   13b80:	f8051363          	bnez	a0,13306 <_vfiprintf_r+0x160>
   13b84:	56e6                	lw	a3,120(sp)
   13b86:	678a                	ld	a5,128(sp)
   13b88:	6346                	ld	t1,80(sp)
   13b8a:	68a6                	ld	a7,72(sp)
   13b8c:	7e22                	ld	t3,40(sp)
   13b8e:	7282                	ld	t0,32(sp)
   13b90:	6fe2                	ld	t6,24(sp)
   13b92:	844e                	mv	s0,s3
   13b94:	0016859b          	addw	a1,a3,1
   13b98:	801ff06f          	j	13398 <_vfiprintf_r+0x1f2>
   13b9c:	4301                	li	t1,0
   13b9e:	4e01                	li	t3,0
   13ba0:	0ec10d93          	add	s11,sp,236
   13ba4:	b259                	j	1352a <_vfiprintf_r+0x384>
   13ba6:	0ec10e13          	add	t3,sp,236
   13baa:	7862                	ld	a6,56(sp)
   13bac:	400cff13          	and	t5,s9,1024
   13bb0:	4601                	li	a2,0
   13bb2:	8772                	mv	a4,t3
   13bb4:	46a9                	li	a3,10
   13bb6:	4325                	li	t1,9
   13bb8:	0ff00f93          	li	t6,255
   13bbc:	a039                	j	13bca <_vfiprintf_r+0xa24>
   13bbe:	02dbd7b3          	divu	a5,s7,a3
   13bc2:	03737763          	bgeu	t1,s7,13bf0 <_vfiprintf_r+0xa4a>
   13bc6:	8bbe                	mv	s7,a5
   13bc8:	876e                	mv	a4,s11
   13bca:	fff70d93          	add	s11,a4,-1
   13bce:	2605                	addw	a2,a2,1
   13bd0:	02dbf7b3          	remu	a5,s7,a3
   13bd4:	0307879b          	addw	a5,a5,48
   13bd8:	fef70fa3          	sb	a5,-1(a4)
   13bdc:	fe0f01e3          	beqz	t5,13bbe <_vfiprintf_r+0xa18>
   13be0:	00084783          	lbu	a5,0(a6)
   13be4:	fcc79de3          	bne	a5,a2,13bbe <_vfiprintf_r+0xa18>
   13be8:	fdf78be3          	beq	a5,t6,13bbe <_vfiprintf_r+0xa18>
   13bec:	11736f63          	bltu	t1,s7,13d0a <_vfiprintf_r+0xb64>
   13bf0:	fc42                	sd	a6,56(sp)
   13bf2:	41be0e3b          	subw	t3,t3,s11
   13bf6:	0004831b          	sext.w	t1,s1
   13bfa:	01c4d463          	bge	s1,t3,13c02 <_vfiprintf_r+0xa5c>
   13bfe:	000e031b          	sext.w	t1,t3
   13c02:	8bf6                	mv	s7,t4
   13c04:	b21d                	j	1352a <_vfiprintf_r+0x384>
   13c06:	4301                	li	t1,0
   13c08:	0ec10d93          	add	s11,sp,236
   13c0c:	ba39                	j	1352a <_vfiprintf_r+0x384>
   13c0e:	0441                	add	s0,s0,16
   13c10:	0016059b          	addw	a1,a2,1
   13c14:	86b2                	mv	a3,a2
   13c16:	feeff06f          	j	13404 <_vfiprintf_r+0x25e>
   13c1a:	040e7793          	and	a5,t3,64
   13c1e:	000bab83          	lw	s7,0(s7)
   13c22:	18078e63          	beqz	a5,13dbe <_vfiprintf_r+0xc18>
   13c26:	1bc2                	sll	s7,s7,0x30
   13c28:	030bdb93          	srl	s7,s7,0x30
   13c2c:	bc5d                	j	136e2 <_vfiprintf_r+0x53c>
   13c2e:	0407f613          	and	a2,a5,64
   13c32:	000ba703          	lw	a4,0(s7)
   13c36:	16060463          	beqz	a2,13d9e <_vfiprintf_r+0xbf8>
   13c3a:	1742                	sll	a4,a4,0x30
   13c3c:	9341                	srl	a4,a4,0x30
   13c3e:	bc1d                	j	13674 <_vfiprintf_r+0x4ce>
   13c40:	000d4783          	lbu	a5,0(s10)
   13c44:	e6070163          	beqz	a4,132a6 <_vfiprintf_r+0x100>
   13c48:	00074703          	lbu	a4,0(a4)
   13c4c:	e4070d63          	beqz	a4,132a6 <_vfiprintf_r+0x100>
   13c50:	400cec93          	or	s9,s9,1024
   13c54:	2c81                	sext.w	s9,s9
   13c56:	e50ff06f          	j	132a6 <_vfiprintf_r+0x100>
   13c5a:	4681                	li	a3,0
   13c5c:	4585                	li	a1,1
   13c5e:	844e                	mv	s0,s3
   13c60:	f9cff06f          	j	133fc <_vfiprintf_r+0x256>
   13c64:	000e031b          	sext.w	t1,t3
   13c68:	8db6                	mv	s11,a3
   13c6a:	b0c1                	j	1352a <_vfiprintf_r+0x384>
   13c6c:	54fd                	li	s1,-1
   13c6e:	8d36                	mv	s10,a3
   13c70:	e3aff06f          	j	132aa <_vfiprintf_r+0x104>
   13c74:	6765                	lui	a4,0x19
   13c76:	24070713          	add	a4,a4,576 # 19240 <__clzdi2+0x9e>
   13c7a:	e83a                	sd	a4,16(sp)
   13c7c:	020cf713          	and	a4,s9,32
   13c80:	008b8693          	add	a3,s7,8
   13c84:	ef29                	bnez	a4,13cde <_vfiprintf_r+0xb38>
   13c86:	010cf713          	and	a4,s9,16
   13c8a:	eb31                	bnez	a4,13cde <_vfiprintf_r+0xb38>
   13c8c:	040cf613          	and	a2,s9,64
   13c90:	000ba703          	lw	a4,0(s7)
   13c94:	0e060f63          	beqz	a2,13d92 <_vfiprintf_r+0xbec>
   13c98:	1742                	sll	a4,a4,0x30
   13c9a:	9341                	srl	a4,a4,0x30
   13c9c:	001cf613          	and	a2,s9,1
   13ca0:	ce01                	beqz	a2,13cb8 <_vfiprintf_r+0xb12>
   13ca2:	cb19                	beqz	a4,13cb8 <_vfiprintf_r+0xb12>
   13ca4:	002ce813          	or	a6,s9,2
   13ca8:	03000613          	li	a2,48
   13cac:	06c10423          	sb	a2,104(sp)
   13cb0:	06f104a3          	sb	a5,105(sp)
   13cb4:	00080c9b          	sext.w	s9,a6
   13cb8:	bffcf813          	and	a6,s9,-1025
   13cbc:	00080c9b          	sext.w	s9,a6
   13cc0:	8bb6                	mv	s7,a3
   13cc2:	b4e9                	j	1378c <_vfiprintf_r+0x5e6>
   13cc4:	8e66                	mv	t3,s9
   13cc6:	b419                	j	136cc <_vfiprintf_r+0x526>
   13cc8:	87e6                	mv	a5,s9
   13cca:	ba51                	j	1365e <_vfiprintf_r+0x4b8>
   13ccc:	6765                	lui	a4,0x19
   13cce:	22870713          	add	a4,a4,552 # 19228 <__clzdi2+0x86>
   13cd2:	e83a                	sd	a4,16(sp)
   13cd4:	020cf713          	and	a4,s9,32
   13cd8:	008b8693          	add	a3,s7,8
   13cdc:	d74d                	beqz	a4,13c86 <_vfiprintf_r+0xae0>
   13cde:	000bb703          	ld	a4,0(s7)
   13ce2:	bf6d                	j	13c9c <_vfiprintf_r+0xaf6>
   13ce4:	856e                	mv	a0,s11
   13ce6:	096010ef          	jal	14d7c <strlen>
   13cea:	68e2                	ld	a7,24(sp)
   13cec:	00050e1b          	sext.w	t3,a0
   13cf0:	b0ad                	j	1355a <_vfiprintf_r+0x3b4>
   13cf2:	06714703          	lbu	a4,103(sp)
   13cf6:	c37d                	beqz	a4,13ddc <_vfiprintf_r+0xc36>
   13cf8:	06710793          	add	a5,sp,103
   13cfc:	f9be                	sd	a5,240(sp)
   13cfe:	4785                	li	a5,1
   13d00:	fdbe                	sd	a5,248(sp)
   13d02:	4585                	li	a1,1
   13d04:	844e                	mv	s0,s3
   13d06:	eaeff06f          	j	133b4 <_vfiprintf_r+0x20e>
   13d0a:	77c2                	ld	a5,48(sp)
   13d0c:	6586                	ld	a1,64(sp)
   13d0e:	e4f2                	sd	t3,72(sp)
   13d10:	40fd8db3          	sub	s11,s11,a5
   13d14:	863e                	mv	a2,a5
   13d16:	856e                	mv	a0,s11
   13d18:	fc76                	sd	t4,56(sp)
   13d1a:	f47a                	sd	t5,40(sp)
   13d1c:	f046                	sd	a7,32(sp)
   13d1e:	ec42                	sd	a6,24(sp)
   13d20:	493000ef          	jal	149b2 <strncpy>
   13d24:	6862                	ld	a6,24(sp)
   13d26:	47a9                	li	a5,10
   13d28:	02fbd7b3          	divu	a5,s7,a5
   13d2c:	00184703          	lbu	a4,1(a6)
   13d30:	7882                	ld	a7,32(sp)
   13d32:	7f22                	ld	t5,40(sp)
   13d34:	00e03733          	snez	a4,a4
   13d38:	7ee2                	ld	t4,56(sp)
   13d3a:	6e26                	ld	t3,72(sp)
   13d3c:	983a                	add	a6,a6,a4
   13d3e:	4601                	li	a2,0
   13d40:	46a9                	li	a3,10
   13d42:	4325                	li	t1,9
   13d44:	0ff00f93          	li	t6,255
   13d48:	bdbd                	j	13bc6 <_vfiprintf_r+0xa20>
   13d4a:	8cbe                	mv	s9,a5
   13d4c:	4781                	li	a5,0
   13d4e:	9a078fe3          	beqz	a5,1370c <_vfiprintf_r+0x566>
   13d52:	b1a9                	j	1399c <_vfiprintf_r+0x7f6>
   13d54:	935fc0ef          	jal	10688 <__sinit>
   13d58:	c6cff06f          	j	131c4 <_vfiprintf_r+0x1e>
   13d5c:	200cec93          	or	s9,s9,512
   13d60:	001d4783          	lbu	a5,1(s10)
   13d64:	2c81                	sext.w	s9,s9
   13d66:	0d05                	add	s10,s10,1
   13d68:	d3eff06f          	j	132a6 <_vfiprintf_r+0x100>
   13d6c:	020cec93          	or	s9,s9,32
   13d70:	001d4783          	lbu	a5,1(s10)
   13d74:	2c81                	sext.w	s9,s9
   13d76:	0d05                	add	s10,s10,1
   13d78:	d2eff06f          	j	132a6 <_vfiprintf_r+0x100>
   13d7c:	4799                	li	a5,6
   13d7e:	00048e1b          	sext.w	t3,s1
   13d82:	0497eb63          	bltu	a5,s1,13dd8 <_vfiprintf_r+0xc32>
   13d86:	6de5                	lui	s11,0x19
   13d88:	8372                	mv	t1,t3
   13d8a:	258d8d93          	add	s11,s11,600 # 19258 <__clzdi2+0xb6>
   13d8e:	decff06f          	j	1337a <_vfiprintf_r+0x1d4>
   13d92:	200cf613          	and	a2,s9,512
   13d96:	c63d                	beqz	a2,13e04 <_vfiprintf_r+0xc5e>
   13d98:	0ff77713          	zext.b	a4,a4
   13d9c:	b701                	j	13c9c <_vfiprintf_r+0xaf6>
   13d9e:	2007f613          	and	a2,a5,512
   13da2:	ce31                	beqz	a2,13dfe <_vfiprintf_r+0xc58>
   13da4:	0ff77713          	zext.b	a4,a4
   13da8:	b0f1                	j	13674 <_vfiprintf_r+0x4ce>
   13daa:	200cf793          	and	a5,s9,512
   13dae:	c7a9                	beqz	a5,13df8 <_vfiprintf_r+0xc52>
   13db0:	018b9b9b          	sllw	s7,s7,0x18
   13db4:	418bdb9b          	sraw	s7,s7,0x18
   13db8:	87de                	mv	a5,s7
   13dba:	eceff06f          	j	13488 <_vfiprintf_r+0x2e2>
   13dbe:	200e7793          	and	a5,t3,512
   13dc2:	c79d                	beqz	a5,13df0 <_vfiprintf_r+0xc4a>
   13dc4:	0ffbfb93          	zext.b	s7,s7
   13dc8:	ba29                	j	136e2 <_vfiprintf_r+0x53c>
   13dca:	4701                	li	a4,0
   13dcc:	bec1                	j	1399c <_vfiprintf_r+0x7f6>
   13dce:	4585                	li	a1,1
   13dd0:	4681                	li	a3,0
   13dd2:	844e                	mv	s0,s3
   13dd4:	e30ff06f          	j	13404 <_vfiprintf_r+0x25e>
   13dd8:	4e19                	li	t3,6
   13dda:	b775                	j	13d86 <_vfiprintf_r+0xbe0>
   13ddc:	4681                	li	a3,0
   13dde:	4585                	li	a1,1
   13de0:	844e                	mv	s0,s3
   13de2:	dd8ff06f          	j	133ba <_vfiprintf_r+0x214>
   13de6:	01871023          	sh	s8,0(a4)
   13dea:	0ba1                	add	s7,s7,8
   13dec:	c4aff06f          	j	13236 <_vfiprintf_r+0x90>
   13df0:	1b82                	sll	s7,s7,0x20
   13df2:	020bdb93          	srl	s7,s7,0x20
   13df6:	b0f5                	j	136e2 <_vfiprintf_r+0x53c>
   13df8:	87de                	mv	a5,s7
   13dfa:	e8eff06f          	j	13488 <_vfiprintf_r+0x2e2>
   13dfe:	1702                	sll	a4,a4,0x20
   13e00:	9301                	srl	a4,a4,0x20
   13e02:	b88d                	j	13674 <_vfiprintf_r+0x4ce>
   13e04:	1702                	sll	a4,a4,0x20
   13e06:	9301                	srl	a4,a4,0x20
   13e08:	bd51                	j	13c9c <_vfiprintf_r+0xaf6>
   13e0a:	1890                	add	a2,sp,112
   13e0c:	85d2                	mv	a1,s4
   13e0e:	8556                	mv	a0,s5
   13e10:	ac6ff0ef          	jal	130d6 <__sprint_r.part.0>
   13e14:	cf2ff06f          	j	13306 <_vfiprintf_r+0x160>
   13e18:	6ee5                	lui	t4,0x19
   13e1a:	648e8e93          	add	t4,t4,1608 # 19648 <blanks.1>
   13e1e:	b135                	j	13a4a <_vfiprintf_r+0x8a4>
   13e20:	8bf6                	mv	s7,t4
   13e22:	03000793          	li	a5,48
   13e26:	ef0ff06f          	j	13516 <_vfiprintf_r+0x370>
   13e2a:	6ee5                	lui	t4,0x19
   13e2c:	0016871b          	addw	a4,a3,1
   13e30:	648e8e93          	add	t4,t4,1608 # 19648 <blanks.1>
   13e34:	b965                	j	13aec <_vfiprintf_r+0x946>
   13e36:	6ee5                	lui	t4,0x19
   13e38:	862e                	mv	a2,a1
   13e3a:	638e8e93          	add	t4,t4,1592 # 19638 <zeroes.0>
   13e3e:	b425                	j	13866 <_vfiprintf_r+0x6c0>
   13e40:	5c7d                	li	s8,-1
   13e42:	cdeff06f          	j	13320 <_vfiprintf_r+0x17a>
   13e46:	01872023          	sw	s8,0(a4)
   13e4a:	0ba1                	add	s7,s7,8
   13e4c:	beaff06f          	j	13236 <_vfiprintf_r+0x90>
   13e50:	000ba783          	lw	a5,0(s7)
   13e54:	0ba1                	add	s7,s7,8
   13e56:	0007849b          	sext.w	s1,a5
   13e5a:	0007d363          	bgez	a5,13e60 <_vfiprintf_r+0xcba>
   13e5e:	54fd                	li	s1,-1
   13e60:	001d4783          	lbu	a5,1(s10)
   13e64:	8d36                	mv	s10,a3
   13e66:	c40ff06f          	j	132a6 <_vfiprintf_r+0x100>

0000000000013e6a <vfiprintf>:
   13e6a:	87aa                	mv	a5,a0
   13e6c:	2201b503          	ld	a0,544(gp) # 1b560 <_impure_ptr>
   13e70:	86b2                	mv	a3,a2
   13e72:	862e                	mv	a2,a1
   13e74:	85be                	mv	a1,a5
   13e76:	b30ff06f          	j	131a6 <_vfiprintf_r>

0000000000013e7a <__sbprintf>:
   13e7a:	b3010113          	add	sp,sp,-1232
   13e7e:	0125d703          	lhu	a4,18(a1)
   13e82:	0105d783          	lhu	a5,16(a1)
   13e86:	4c813023          	sd	s0,1216(sp)
   13e8a:	842e                	mv	s0,a1
   13e8c:	65c1                	lui	a1,0x10
   13e8e:	35f5                	addw	a1,a1,-3 # fffd <exit-0xeb>
   13e90:	0ac42e03          	lw	t3,172(s0)
   13e94:	03043303          	ld	t1,48(s0)
   13e98:	04043883          	ld	a7,64(s0)
   13e9c:	0107171b          	sllw	a4,a4,0x10
   13ea0:	8fed                	and	a5,a5,a1
   13ea2:	8fd9                	or	a5,a5,a4
   13ea4:	40000813          	li	a6,1024
   13ea8:	c83e                	sw	a5,16(sp)
   13eaa:	858a                	mv	a1,sp
   13eac:	191c                	add	a5,sp,176
   13eae:	4a913c23          	sd	s1,1208(sp)
   13eb2:	4b213823          	sd	s2,1200(sp)
   13eb6:	4c113423          	sd	ra,1224(sp)
   13eba:	892a                	mv	s2,a0
   13ebc:	d772                	sw	t3,172(sp)
   13ebe:	f81a                	sd	t1,48(sp)
   13ec0:	e0c6                	sd	a7,64(sp)
   13ec2:	e03e                	sd	a5,0(sp)
   13ec4:	ec3e                	sd	a5,24(sp)
   13ec6:	c642                	sw	a6,12(sp)
   13ec8:	d042                	sw	a6,32(sp)
   13eca:	d402                	sw	zero,40(sp)
   13ecc:	adaff0ef          	jal	131a6 <_vfiprintf_r>
   13ed0:	84aa                	mv	s1,a0
   13ed2:	02055963          	bgez	a0,13f04 <__sbprintf+0x8a>
   13ed6:	01015783          	lhu	a5,16(sp)
   13eda:	0407f793          	and	a5,a5,64
   13ede:	c799                	beqz	a5,13eec <__sbprintf+0x72>
   13ee0:	01045783          	lhu	a5,16(s0)
   13ee4:	0407e793          	or	a5,a5,64
   13ee8:	00f41823          	sh	a5,16(s0)
   13eec:	4c813083          	ld	ra,1224(sp)
   13ef0:	4c013403          	ld	s0,1216(sp)
   13ef4:	4b013903          	ld	s2,1200(sp)
   13ef8:	8526                	mv	a0,s1
   13efa:	4b813483          	ld	s1,1208(sp)
   13efe:	4d010113          	add	sp,sp,1232
   13f02:	8082                	ret
   13f04:	858a                	mv	a1,sp
   13f06:	854a                	mv	a0,s2
   13f08:	252000ef          	jal	1415a <_fflush_r>
   13f0c:	d569                	beqz	a0,13ed6 <__sbprintf+0x5c>
   13f0e:	54fd                	li	s1,-1
   13f10:	b7d9                	j	13ed6 <__sbprintf+0x5c>

0000000000013f12 <_fclose_r>:
   13f12:	1101                	add	sp,sp,-32
   13f14:	ec06                	sd	ra,24(sp)
   13f16:	e04a                	sd	s2,0(sp)
   13f18:	cd89                	beqz	a1,13f32 <_fclose_r+0x20>
   13f1a:	e822                	sd	s0,16(sp)
   13f1c:	e426                	sd	s1,8(sp)
   13f1e:	842e                	mv	s0,a1
   13f20:	84aa                	mv	s1,a0
   13f22:	c119                	beqz	a0,13f28 <_fclose_r+0x16>
   13f24:	653c                	ld	a5,72(a0)
   13f26:	c7d9                	beqz	a5,13fb4 <_fclose_r+0xa2>
   13f28:	01041783          	lh	a5,16(s0)
   13f2c:	eb89                	bnez	a5,13f3e <_fclose_r+0x2c>
   13f2e:	6442                	ld	s0,16(sp)
   13f30:	64a2                	ld	s1,8(sp)
   13f32:	60e2                	ld	ra,24(sp)
   13f34:	4901                	li	s2,0
   13f36:	854a                	mv	a0,s2
   13f38:	6902                	ld	s2,0(sp)
   13f3a:	6105                	add	sp,sp,32
   13f3c:	8082                	ret
   13f3e:	85a2                	mv	a1,s0
   13f40:	8526                	mv	a0,s1
   13f42:	080000ef          	jal	13fc2 <__sflush_r>
   13f46:	683c                	ld	a5,80(s0)
   13f48:	892a                	mv	s2,a0
   13f4a:	c791                	beqz	a5,13f56 <_fclose_r+0x44>
   13f4c:	780c                	ld	a1,48(s0)
   13f4e:	8526                	mv	a0,s1
   13f50:	9782                	jalr	a5
   13f52:	04054663          	bltz	a0,13f9e <_fclose_r+0x8c>
   13f56:	01045783          	lhu	a5,16(s0)
   13f5a:	0807f793          	and	a5,a5,128
   13f5e:	e7b1                	bnez	a5,13faa <_fclose_r+0x98>
   13f60:	6c2c                	ld	a1,88(s0)
   13f62:	c991                	beqz	a1,13f76 <_fclose_r+0x64>
   13f64:	07440793          	add	a5,s0,116
   13f68:	00f58563          	beq	a1,a5,13f72 <_fclose_r+0x60>
   13f6c:	8526                	mv	a0,s1
   13f6e:	d3dfc0ef          	jal	10caa <_free_r>
   13f72:	04043c23          	sd	zero,88(s0)
   13f76:	7c2c                	ld	a1,120(s0)
   13f78:	c591                	beqz	a1,13f84 <_fclose_r+0x72>
   13f7a:	8526                	mv	a0,s1
   13f7c:	d2ffc0ef          	jal	10caa <_free_r>
   13f80:	06043c23          	sd	zero,120(s0)
   13f84:	f1afc0ef          	jal	1069e <__sfp_lock_acquire>
   13f88:	00041823          	sh	zero,16(s0)
   13f8c:	f14fc0ef          	jal	106a0 <__sfp_lock_release>
   13f90:	60e2                	ld	ra,24(sp)
   13f92:	6442                	ld	s0,16(sp)
   13f94:	64a2                	ld	s1,8(sp)
   13f96:	854a                	mv	a0,s2
   13f98:	6902                	ld	s2,0(sp)
   13f9a:	6105                	add	sp,sp,32
   13f9c:	8082                	ret
   13f9e:	01045783          	lhu	a5,16(s0)
   13fa2:	597d                	li	s2,-1
   13fa4:	0807f793          	and	a5,a5,128
   13fa8:	dfc5                	beqz	a5,13f60 <_fclose_r+0x4e>
   13faa:	6c0c                	ld	a1,24(s0)
   13fac:	8526                	mv	a0,s1
   13fae:	cfdfc0ef          	jal	10caa <_free_r>
   13fb2:	b77d                	j	13f60 <_fclose_r+0x4e>
   13fb4:	ed4fc0ef          	jal	10688 <__sinit>
   13fb8:	bf85                	j	13f28 <_fclose_r+0x16>

0000000000013fba <fclose>:
   13fba:	85aa                	mv	a1,a0
   13fbc:	2201b503          	ld	a0,544(gp) # 1b560 <_impure_ptr>
   13fc0:	bf89                	j	13f12 <_fclose_r>

0000000000013fc2 <__sflush_r>:
   13fc2:	01059703          	lh	a4,16(a1)
   13fc6:	7179                	add	sp,sp,-48
   13fc8:	f022                	sd	s0,32(sp)
   13fca:	e44e                	sd	s3,8(sp)
   13fcc:	f406                	sd	ra,40(sp)
   13fce:	00877793          	and	a5,a4,8
   13fd2:	842e                	mv	s0,a1
   13fd4:	89aa                	mv	s3,a0
   13fd6:	e7f1                	bnez	a5,140a2 <__sflush_r+0xe0>
   13fd8:	6785                	lui	a5,0x1
   13fda:	80078793          	add	a5,a5,-2048 # 800 <exit-0xf8e8>
   13fde:	4594                	lw	a3,8(a1)
   13fe0:	8fd9                	or	a5,a5,a4
   13fe2:	00f59823          	sh	a5,16(a1)
   13fe6:	10d05763          	blez	a3,140f4 <__sflush_r+0x132>
   13fea:	04843803          	ld	a6,72(s0)
   13fee:	0a080463          	beqz	a6,14096 <__sflush_r+0xd4>
   13ff2:	ec26                	sd	s1,24(sp)
   13ff4:	03371693          	sll	a3,a4,0x33
   13ff8:	0009a483          	lw	s1,0(s3)
   13ffc:	0009a023          	sw	zero,0(s3)
   14000:	780c                	ld	a1,48(s0)
   14002:	1006c063          	bltz	a3,14102 <__sflush_r+0x140>
   14006:	4601                	li	a2,0
   14008:	4685                	li	a3,1
   1400a:	854e                	mv	a0,s3
   1400c:	9802                	jalr	a6
   1400e:	57fd                	li	a5,-1
   14010:	862a                	mv	a2,a0
   14012:	12f50163          	beq	a0,a5,14134 <__sflush_r+0x172>
   14016:	01041783          	lh	a5,16(s0)
   1401a:	04843803          	ld	a6,72(s0)
   1401e:	780c                	ld	a1,48(s0)
   14020:	8b91                	and	a5,a5,4
   14022:	c799                	beqz	a5,14030 <__sflush_r+0x6e>
   14024:	4418                	lw	a4,8(s0)
   14026:	6c3c                	ld	a5,88(s0)
   14028:	8e19                	sub	a2,a2,a4
   1402a:	c399                	beqz	a5,14030 <__sflush_r+0x6e>
   1402c:	583c                	lw	a5,112(s0)
   1402e:	8e1d                	sub	a2,a2,a5
   14030:	4681                	li	a3,0
   14032:	854e                	mv	a0,s3
   14034:	9802                	jalr	a6
   14036:	57fd                	li	a5,-1
   14038:	0cf51763          	bne	a0,a5,14106 <__sflush_r+0x144>
   1403c:	0009a683          	lw	a3,0(s3)
   14040:	47f5                	li	a5,29
   14042:	01041703          	lh	a4,16(s0)
   14046:	0006861b          	sext.w	a2,a3
   1404a:	10d7e163          	bltu	a5,a3,1414c <__sflush_r+0x18a>
   1404e:	204007b7          	lui	a5,0x20400
   14052:	0785                	add	a5,a5,1 # 20400001 <__BSS_END__+0x203e44c1>
   14054:	00c7d7b3          	srl	a5,a5,a2
   14058:	8b85                	and	a5,a5,1
   1405a:	cbed                	beqz	a5,1414c <__sflush_r+0x18a>
   1405c:	6c10                	ld	a2,24(s0)
   1405e:	77fd                	lui	a5,0xfffff
   14060:	7ff78793          	add	a5,a5,2047 # fffffffffffff7ff <__BSS_END__+0xfffffffffffe3cbf>
   14064:	8ff9                	and	a5,a5,a4
   14066:	00f41823          	sh	a5,16(s0)
   1406a:	00042423          	sw	zero,8(s0)
   1406e:	e010                	sd	a2,0(s0)
   14070:	03371793          	sll	a5,a4,0x33
   14074:	0007d363          	bgez	a5,1407a <__sflush_r+0xb8>
   14078:	c6dd                	beqz	a3,14126 <__sflush_r+0x164>
   1407a:	6c2c                	ld	a1,88(s0)
   1407c:	0099a023          	sw	s1,0(s3)
   14080:	c9c5                	beqz	a1,14130 <__sflush_r+0x16e>
   14082:	07440793          	add	a5,s0,116
   14086:	00f58563          	beq	a1,a5,14090 <__sflush_r+0xce>
   1408a:	854e                	mv	a0,s3
   1408c:	c1ffc0ef          	jal	10caa <_free_r>
   14090:	64e2                	ld	s1,24(sp)
   14092:	04043c23          	sd	zero,88(s0)
   14096:	4501                	li	a0,0
   14098:	70a2                	ld	ra,40(sp)
   1409a:	7402                	ld	s0,32(sp)
   1409c:	69a2                	ld	s3,8(sp)
   1409e:	6145                	add	sp,sp,48
   140a0:	8082                	ret
   140a2:	e84a                	sd	s2,16(sp)
   140a4:	0185b903          	ld	s2,24(a1)
   140a8:	04090b63          	beqz	s2,140fe <__sflush_r+0x13c>
   140ac:	ec26                	sd	s1,24(sp)
   140ae:	6184                	ld	s1,0(a1)
   140b0:	8b0d                	and	a4,a4,3
   140b2:	0125b023          	sd	s2,0(a1)
   140b6:	412484bb          	subw	s1,s1,s2
   140ba:	4781                	li	a5,0
   140bc:	e311                	bnez	a4,140c0 <__sflush_r+0xfe>
   140be:	519c                	lw	a5,32(a1)
   140c0:	c45c                	sw	a5,12(s0)
   140c2:	00904663          	bgtz	s1,140ce <__sflush_r+0x10c>
   140c6:	a81d                	j	140fc <__sflush_r+0x13a>
   140c8:	992a                	add	s2,s2,a0
   140ca:	02905963          	blez	s1,140fc <__sflush_r+0x13a>
   140ce:	603c                	ld	a5,64(s0)
   140d0:	780c                	ld	a1,48(s0)
   140d2:	86a6                	mv	a3,s1
   140d4:	864a                	mv	a2,s2
   140d6:	854e                	mv	a0,s3
   140d8:	9782                	jalr	a5
   140da:	9c89                	subw	s1,s1,a0
   140dc:	fea046e3          	bgtz	a0,140c8 <__sflush_r+0x106>
   140e0:	01041703          	lh	a4,16(s0)
   140e4:	6942                	ld	s2,16(sp)
   140e6:	04076713          	or	a4,a4,64
   140ea:	64e2                	ld	s1,24(sp)
   140ec:	00e41823          	sh	a4,16(s0)
   140f0:	557d                	li	a0,-1
   140f2:	b75d                	j	14098 <__sflush_r+0xd6>
   140f4:	59b4                	lw	a3,112(a1)
   140f6:	eed04ae3          	bgtz	a3,13fea <__sflush_r+0x28>
   140fa:	bf71                	j	14096 <__sflush_r+0xd4>
   140fc:	64e2                	ld	s1,24(sp)
   140fe:	6942                	ld	s2,16(sp)
   14100:	bf59                	j	14096 <__sflush_r+0xd4>
   14102:	6850                	ld	a2,144(s0)
   14104:	bf31                	j	14020 <__sflush_r+0x5e>
   14106:	01041703          	lh	a4,16(s0)
   1410a:	6c14                	ld	a3,24(s0)
   1410c:	77fd                	lui	a5,0xfffff
   1410e:	7ff78793          	add	a5,a5,2047 # fffffffffffff7ff <__BSS_END__+0xfffffffffffe3cbf>
   14112:	8ff9                	and	a5,a5,a4
   14114:	00f41823          	sh	a5,16(s0)
   14118:	00042423          	sw	zero,8(s0)
   1411c:	e014                	sd	a3,0(s0)
   1411e:	03371793          	sll	a5,a4,0x33
   14122:	f407dce3          	bgez	a5,1407a <__sflush_r+0xb8>
   14126:	6c2c                	ld	a1,88(s0)
   14128:	e848                	sd	a0,144(s0)
   1412a:	0099a023          	sw	s1,0(s3)
   1412e:	f9b1                	bnez	a1,14082 <__sflush_r+0xc0>
   14130:	64e2                	ld	s1,24(sp)
   14132:	b795                	j	14096 <__sflush_r+0xd4>
   14134:	0009a783          	lw	a5,0(s3)
   14138:	ec078fe3          	beqz	a5,14016 <__sflush_r+0x54>
   1413c:	4775                	li	a4,29
   1413e:	00e78a63          	beq	a5,a4,14152 <__sflush_r+0x190>
   14142:	4759                	li	a4,22
   14144:	00e78763          	beq	a5,a4,14152 <__sflush_r+0x190>
   14148:	01041703          	lh	a4,16(s0)
   1414c:	04076713          	or	a4,a4,64
   14150:	bf69                	j	140ea <__sflush_r+0x128>
   14152:	0099a023          	sw	s1,0(s3)
   14156:	64e2                	ld	s1,24(sp)
   14158:	bf3d                	j	14096 <__sflush_r+0xd4>

000000000001415a <_fflush_r>:
   1415a:	1101                	add	sp,sp,-32
   1415c:	e822                	sd	s0,16(sp)
   1415e:	ec06                	sd	ra,24(sp)
   14160:	842a                	mv	s0,a0
   14162:	c119                	beqz	a0,14168 <_fflush_r+0xe>
   14164:	653c                	ld	a5,72(a0)
   14166:	cf91                	beqz	a5,14182 <_fflush_r+0x28>
   14168:	01059783          	lh	a5,16(a1)
   1416c:	e791                	bnez	a5,14178 <_fflush_r+0x1e>
   1416e:	60e2                	ld	ra,24(sp)
   14170:	6442                	ld	s0,16(sp)
   14172:	4501                	li	a0,0
   14174:	6105                	add	sp,sp,32
   14176:	8082                	ret
   14178:	8522                	mv	a0,s0
   1417a:	6442                	ld	s0,16(sp)
   1417c:	60e2                	ld	ra,24(sp)
   1417e:	6105                	add	sp,sp,32
   14180:	b589                	j	13fc2 <__sflush_r>
   14182:	e42e                	sd	a1,8(sp)
   14184:	d04fc0ef          	jal	10688 <__sinit>
   14188:	65a2                	ld	a1,8(sp)
   1418a:	bff9                	j	14168 <_fflush_r+0xe>

000000000001418c <fflush>:
   1418c:	cd05                	beqz	a0,141c4 <fflush+0x38>
   1418e:	85aa                	mv	a1,a0
   14190:	2201b503          	ld	a0,544(gp) # 1b560 <_impure_ptr>
   14194:	c119                	beqz	a0,1419a <fflush+0xe>
   14196:	653c                	ld	a5,72(a0)
   14198:	c799                	beqz	a5,141a6 <fflush+0x1a>
   1419a:	01059783          	lh	a5,16(a1)
   1419e:	e399                	bnez	a5,141a4 <fflush+0x18>
   141a0:	4501                	li	a0,0
   141a2:	8082                	ret
   141a4:	bd39                	j	13fc2 <__sflush_r>
   141a6:	1101                	add	sp,sp,-32
   141a8:	e42e                	sd	a1,8(sp)
   141aa:	e02a                	sd	a0,0(sp)
   141ac:	ec06                	sd	ra,24(sp)
   141ae:	cdafc0ef          	jal	10688 <__sinit>
   141b2:	65a2                	ld	a1,8(sp)
   141b4:	6502                	ld	a0,0(sp)
   141b6:	01059783          	lh	a5,16(a1)
   141ba:	e385                	bnez	a5,141da <fflush+0x4e>
   141bc:	60e2                	ld	ra,24(sp)
   141be:	4501                	li	a0,0
   141c0:	6105                	add	sp,sp,32
   141c2:	8082                	ret
   141c4:	666d                	lui	a2,0x1b
   141c6:	65d1                	lui	a1,0x14
   141c8:	656d                	lui	a0,0x1b
   141ca:	9c060613          	add	a2,a2,-1600 # 1a9c0 <__sglue>
   141ce:	15a58593          	add	a1,a1,346 # 1415a <_fflush_r>
   141d2:	9d850513          	add	a0,a0,-1576 # 1a9d8 <_impure_data>
   141d6:	cecfc06f          	j	106c2 <_fwalk_sglue>
   141da:	60e2                	ld	ra,24(sp)
   141dc:	6105                	add	sp,sp,32
   141de:	b3d5                	j	13fc2 <__sflush_r>

00000000000141e0 <__sfvwrite_r>:
   141e0:	6a1c                	ld	a5,16(a2)
   141e2:	1c078b63          	beqz	a5,143b8 <__sfvwrite_r+0x1d8>
   141e6:	01059703          	lh	a4,16(a1)
   141ea:	711d                	add	sp,sp,-96
   141ec:	e8a2                	sd	s0,80(sp)
   141ee:	f456                	sd	s5,40(sp)
   141f0:	ec5e                	sd	s7,24(sp)
   141f2:	ec86                	sd	ra,88(sp)
   141f4:	00877793          	and	a5,a4,8
   141f8:	8bb2                	mv	s7,a2
   141fa:	8aaa                	mv	s5,a0
   141fc:	842e                	mv	s0,a1
   141fe:	c7b5                	beqz	a5,1426a <__sfvwrite_r+0x8a>
   14200:	6d9c                	ld	a5,24(a1)
   14202:	c7a5                	beqz	a5,1426a <__sfvwrite_r+0x8a>
   14204:	e4a6                	sd	s1,72(sp)
   14206:	e0ca                	sd	s2,64(sp)
   14208:	fc4e                	sd	s3,56(sp)
   1420a:	f852                	sd	s4,48(sp)
   1420c:	00277793          	and	a5,a4,2
   14210:	000bb483          	ld	s1,0(s7)
   14214:	cfa5                	beqz	a5,1428c <__sfvwrite_r+0xac>
   14216:	603c                	ld	a5,64(s0)
   14218:	780c                	ld	a1,48(s0)
   1421a:	80000a37          	lui	s4,0x80000
   1421e:	4981                	li	s3,0
   14220:	4901                	li	s2,0
   14222:	c00a4a13          	xor	s4,s4,-1024
   14226:	864e                	mv	a2,s3
   14228:	8556                	mv	a0,s5
   1422a:	02090a63          	beqz	s2,1425e <__sfvwrite_r+0x7e>
   1422e:	86ca                	mv	a3,s2
   14230:	012a7363          	bgeu	s4,s2,14236 <__sfvwrite_r+0x56>
   14234:	86d2                	mv	a3,s4
   14236:	2681                	sext.w	a3,a3
   14238:	9782                	jalr	a5
   1423a:	2ea05863          	blez	a0,1452a <__sfvwrite_r+0x34a>
   1423e:	010bb783          	ld	a5,16(s7)
   14242:	99aa                	add	s3,s3,a0
   14244:	40a90933          	sub	s2,s2,a0
   14248:	8f89                	sub	a5,a5,a0
   1424a:	00fbb823          	sd	a5,16(s7)
   1424e:	12078163          	beqz	a5,14370 <__sfvwrite_r+0x190>
   14252:	603c                	ld	a5,64(s0)
   14254:	780c                	ld	a1,48(s0)
   14256:	864e                	mv	a2,s3
   14258:	8556                	mv	a0,s5
   1425a:	fc091ae3          	bnez	s2,1422e <__sfvwrite_r+0x4e>
   1425e:	0004b983          	ld	s3,0(s1)
   14262:	0084b903          	ld	s2,8(s1)
   14266:	04c1                	add	s1,s1,16
   14268:	bf7d                	j	14226 <__sfvwrite_r+0x46>
   1426a:	85a2                	mv	a1,s0
   1426c:	8556                	mv	a0,s5
   1426e:	4a6000ef          	jal	14714 <__swsetup_r>
   14272:	12051c63          	bnez	a0,143aa <__sfvwrite_r+0x1ca>
   14276:	01041703          	lh	a4,16(s0)
   1427a:	e4a6                	sd	s1,72(sp)
   1427c:	e0ca                	sd	s2,64(sp)
   1427e:	fc4e                	sd	s3,56(sp)
   14280:	f852                	sd	s4,48(sp)
   14282:	00277793          	and	a5,a4,2
   14286:	000bb483          	ld	s1,0(s7)
   1428a:	f7d1                	bnez	a5,14216 <__sfvwrite_r+0x36>
   1428c:	f05a                	sd	s6,32(sp)
   1428e:	e862                	sd	s8,16(sp)
   14290:	e466                	sd	s9,8(sp)
   14292:	00177793          	and	a5,a4,1
   14296:	ebad                	bnez	a5,14308 <__sfvwrite_r+0x128>
   14298:	00c42a03          	lw	s4,12(s0)
   1429c:	601c                	ld	a5,0(s0)
   1429e:	80000b37          	lui	s6,0x80000
   142a2:	4c01                	li	s8,0
   142a4:	4901                	li	s2,0
   142a6:	fffb4b13          	not	s6,s6
   142aa:	853e                	mv	a0,a5
   142ac:	04090863          	beqz	s2,142fc <__sfvwrite_r+0x11c>
   142b0:	20077693          	and	a3,a4,512
   142b4:	14068663          	beqz	a3,14400 <__sfvwrite_r+0x220>
   142b8:	1b497563          	bgeu	s2,s4,14462 <__sfvwrite_r+0x282>
   142bc:	8cca                	mv	s9,s2
   142be:	8a4a                	mv	s4,s2
   142c0:	8652                	mv	a2,s4
   142c2:	85e2                	mv	a1,s8
   142c4:	0a1000ef          	jal	14b64 <memmove>
   142c8:	4458                	lw	a4,12(s0)
   142ca:	601c                	ld	a5,0(s0)
   142cc:	89ca                	mv	s3,s2
   142ce:	4197073b          	subw	a4,a4,s9
   142d2:	9a3e                	add	s4,s4,a5
   142d4:	c458                	sw	a4,12(s0)
   142d6:	01443023          	sd	s4,0(s0)
   142da:	4901                	li	s2,0
   142dc:	010bb783          	ld	a5,16(s7)
   142e0:	9c4e                	add	s8,s8,s3
   142e2:	413787b3          	sub	a5,a5,s3
   142e6:	00fbb823          	sd	a5,16(s7)
   142ea:	c3c1                	beqz	a5,1436a <__sfvwrite_r+0x18a>
   142ec:	601c                	ld	a5,0(s0)
   142ee:	01041703          	lh	a4,16(s0)
   142f2:	00c42a03          	lw	s4,12(s0)
   142f6:	853e                	mv	a0,a5
   142f8:	fa091ce3          	bnez	s2,142b0 <__sfvwrite_r+0xd0>
   142fc:	0004bc03          	ld	s8,0(s1)
   14300:	0084b903          	ld	s2,8(s1)
   14304:	04c1                	add	s1,s1,16
   14306:	b755                	j	142aa <__sfvwrite_r+0xca>
   14308:	4b01                	li	s6,0
   1430a:	4501                	li	a0,0
   1430c:	4c81                	li	s9,0
   1430e:	4c01                	li	s8,0
   14310:	0a0c0663          	beqz	s8,143bc <__sfvwrite_r+0x1dc>
   14314:	cd45                	beqz	a0,143cc <__sfvwrite_r+0x1ec>
   14316:	8a5a                	mv	s4,s6
   14318:	016c7363          	bgeu	s8,s6,1431e <__sfvwrite_r+0x13e>
   1431c:	8a62                	mv	s4,s8
   1431e:	6008                	ld	a0,0(s0)
   14320:	6c18                	ld	a4,24(s0)
   14322:	445c                	lw	a5,12(s0)
   14324:	5014                	lw	a3,32(s0)
   14326:	8952                	mv	s2,s4
   14328:	00a77663          	bgeu	a4,a0,14334 <__sfvwrite_r+0x154>
   1432c:	00d789bb          	addw	s3,a5,a3
   14330:	0b49c963          	blt	s3,s4,143e2 <__sfvwrite_r+0x202>
   14334:	1ada4363          	blt	s4,a3,144da <__sfvwrite_r+0x2fa>
   14338:	603c                	ld	a5,64(s0)
   1433a:	780c                	ld	a1,48(s0)
   1433c:	8666                	mv	a2,s9
   1433e:	8556                	mv	a0,s5
   14340:	9782                	jalr	a5
   14342:	892a                	mv	s2,a0
   14344:	04a05663          	blez	a0,14390 <__sfvwrite_r+0x1b0>
   14348:	0005079b          	sext.w	a5,a0
   1434c:	40fb0b3b          	subw	s6,s6,a5
   14350:	4505                	li	a0,1
   14352:	020b0a63          	beqz	s6,14386 <__sfvwrite_r+0x1a6>
   14356:	010bb783          	ld	a5,16(s7)
   1435a:	9cca                	add	s9,s9,s2
   1435c:	412c0c33          	sub	s8,s8,s2
   14360:	412787b3          	sub	a5,a5,s2
   14364:	00fbb823          	sd	a5,16(s7)
   14368:	f7c5                	bnez	a5,14310 <__sfvwrite_r+0x130>
   1436a:	7b02                	ld	s6,32(sp)
   1436c:	6c42                	ld	s8,16(sp)
   1436e:	6ca2                	ld	s9,8(sp)
   14370:	60e6                	ld	ra,88(sp)
   14372:	6446                	ld	s0,80(sp)
   14374:	64a6                	ld	s1,72(sp)
   14376:	6906                	ld	s2,64(sp)
   14378:	79e2                	ld	s3,56(sp)
   1437a:	7a42                	ld	s4,48(sp)
   1437c:	7aa2                	ld	s5,40(sp)
   1437e:	6be2                	ld	s7,24(sp)
   14380:	4501                	li	a0,0
   14382:	6125                	add	sp,sp,96
   14384:	8082                	ret
   14386:	85a2                	mv	a1,s0
   14388:	8556                	mv	a0,s5
   1438a:	dd1ff0ef          	jal	1415a <_fflush_r>
   1438e:	d561                	beqz	a0,14356 <__sfvwrite_r+0x176>
   14390:	01041783          	lh	a5,16(s0)
   14394:	7b02                	ld	s6,32(sp)
   14396:	6c42                	ld	s8,16(sp)
   14398:	6ca2                	ld	s9,8(sp)
   1439a:	64a6                	ld	s1,72(sp)
   1439c:	6906                	ld	s2,64(sp)
   1439e:	79e2                	ld	s3,56(sp)
   143a0:	7a42                	ld	s4,48(sp)
   143a2:	0407e793          	or	a5,a5,64
   143a6:	00f41823          	sh	a5,16(s0)
   143aa:	60e6                	ld	ra,88(sp)
   143ac:	6446                	ld	s0,80(sp)
   143ae:	7aa2                	ld	s5,40(sp)
   143b0:	6be2                	ld	s7,24(sp)
   143b2:	557d                	li	a0,-1
   143b4:	6125                	add	sp,sp,96
   143b6:	8082                	ret
   143b8:	4501                	li	a0,0
   143ba:	8082                	ret
   143bc:	0084bc03          	ld	s8,8(s1)
   143c0:	87a6                	mv	a5,s1
   143c2:	04c1                	add	s1,s1,16
   143c4:	fe0c0ce3          	beqz	s8,143bc <__sfvwrite_r+0x1dc>
   143c8:	0007bc83          	ld	s9,0(a5)
   143cc:	8662                	mv	a2,s8
   143ce:	45a9                	li	a1,10
   143d0:	8566                	mv	a0,s9
   143d2:	532000ef          	jal	14904 <memchr>
   143d6:	14050763          	beqz	a0,14524 <__sfvwrite_r+0x344>
   143da:	0505                	add	a0,a0,1
   143dc:	41950b3b          	subw	s6,a0,s9
   143e0:	bf1d                	j	14316 <__sfvwrite_r+0x136>
   143e2:	85e6                	mv	a1,s9
   143e4:	864e                	mv	a2,s3
   143e6:	77e000ef          	jal	14b64 <memmove>
   143ea:	601c                	ld	a5,0(s0)
   143ec:	85a2                	mv	a1,s0
   143ee:	8556                	mv	a0,s5
   143f0:	97ce                	add	a5,a5,s3
   143f2:	e01c                	sd	a5,0(s0)
   143f4:	d67ff0ef          	jal	1415a <_fflush_r>
   143f8:	fd41                	bnez	a0,14390 <__sfvwrite_r+0x1b0>
   143fa:	87ce                	mv	a5,s3
   143fc:	894e                	mv	s2,s3
   143fe:	b7b9                	j	1434c <__sfvwrite_r+0x16c>
   14400:	6c18                	ld	a4,24(s0)
   14402:	02f76763          	bltu	a4,a5,14430 <__sfvwrite_r+0x250>
   14406:	5018                	lw	a4,32(s0)
   14408:	02e96463          	bltu	s2,a4,14430 <__sfvwrite_r+0x250>
   1440c:	86ca                	mv	a3,s2
   1440e:	012b7363          	bgeu	s6,s2,14414 <__sfvwrite_r+0x234>
   14412:	86da                	mv	a3,s6
   14414:	02e6e73b          	remw	a4,a3,a4
   14418:	603c                	ld	a5,64(s0)
   1441a:	780c                	ld	a1,48(s0)
   1441c:	8662                	mv	a2,s8
   1441e:	8556                	mv	a0,s5
   14420:	9e99                	subw	a3,a3,a4
   14422:	9782                	jalr	a5
   14424:	89aa                	mv	s3,a0
   14426:	f6a055e3          	blez	a0,14390 <__sfvwrite_r+0x1b0>
   1442a:	41390933          	sub	s2,s2,s3
   1442e:	b57d                	j	142dc <__sfvwrite_r+0xfc>
   14430:	89d2                	mv	s3,s4
   14432:	01497363          	bgeu	s2,s4,14438 <__sfvwrite_r+0x258>
   14436:	89ca                	mv	s3,s2
   14438:	853e                	mv	a0,a5
   1443a:	864e                	mv	a2,s3
   1443c:	85e2                	mv	a1,s8
   1443e:	726000ef          	jal	14b64 <memmove>
   14442:	4458                	lw	a4,12(s0)
   14444:	601c                	ld	a5,0(s0)
   14446:	413706bb          	subw	a3,a4,s3
   1444a:	97ce                	add	a5,a5,s3
   1444c:	c454                	sw	a3,12(s0)
   1444e:	e01c                	sd	a5,0(s0)
   14450:	fee9                	bnez	a3,1442a <__sfvwrite_r+0x24a>
   14452:	85a2                	mv	a1,s0
   14454:	8556                	mv	a0,s5
   14456:	d05ff0ef          	jal	1415a <_fflush_r>
   1445a:	f91d                	bnez	a0,14390 <__sfvwrite_r+0x1b0>
   1445c:	41390933          	sub	s2,s2,s3
   14460:	bdb5                	j	142dc <__sfvwrite_r+0xfc>
   14462:	48077693          	and	a3,a4,1152
   14466:	cac1                	beqz	a3,144f6 <__sfvwrite_r+0x316>
   14468:	5010                	lw	a2,32(s0)
   1446a:	6c0c                	ld	a1,24(s0)
   1446c:	0016169b          	sllw	a3,a2,0x1
   14470:	9eb1                	addw	a3,a3,a2
   14472:	8f8d                	sub	a5,a5,a1
   14474:	01f6d99b          	srlw	s3,a3,0x1f
   14478:	00078c9b          	sext.w	s9,a5
   1447c:	00d989bb          	addw	s3,s3,a3
   14480:	001c8693          	add	a3,s9,1
   14484:	4019d99b          	sraw	s3,s3,0x1
   14488:	96ca                	add	a3,a3,s2
   1448a:	00d9f663          	bgeu	s3,a3,14496 <__sfvwrite_r+0x2b6>
   1448e:	0017869b          	addw	a3,a5,1
   14492:	012689bb          	addw	s3,a3,s2
   14496:	40077713          	and	a4,a4,1024
   1449a:	c325                	beqz	a4,144fa <__sfvwrite_r+0x31a>
   1449c:	85ce                	mv	a1,s3
   1449e:	8556                	mv	a0,s5
   144a0:	a4ffc0ef          	jal	10eee <_malloc_r>
   144a4:	8a2a                	mv	s4,a0
   144a6:	c549                	beqz	a0,14530 <__sfvwrite_r+0x350>
   144a8:	6c0c                	ld	a1,24(s0)
   144aa:	8666                	mv	a2,s9
   144ac:	78a000ef          	jal	14c36 <memcpy>
   144b0:	01045783          	lhu	a5,16(s0)
   144b4:	b7f7f793          	and	a5,a5,-1153
   144b8:	0807e793          	or	a5,a5,128
   144bc:	00f41823          	sh	a5,16(s0)
   144c0:	019a0533          	add	a0,s4,s9
   144c4:	419987bb          	subw	a5,s3,s9
   144c8:	01443c23          	sd	s4,24(s0)
   144cc:	e008                	sd	a0,0(s0)
   144ce:	03342023          	sw	s3,32(s0)
   144d2:	8cca                	mv	s9,s2
   144d4:	c45c                	sw	a5,12(s0)
   144d6:	8a4a                	mv	s4,s2
   144d8:	b3e5                	j	142c0 <__sfvwrite_r+0xe0>
   144da:	8652                	mv	a2,s4
   144dc:	85e6                	mv	a1,s9
   144de:	686000ef          	jal	14b64 <memmove>
   144e2:	4454                	lw	a3,12(s0)
   144e4:	6018                	ld	a4,0(s0)
   144e6:	000a079b          	sext.w	a5,s4
   144ea:	414686bb          	subw	a3,a3,s4
   144ee:	9752                	add	a4,a4,s4
   144f0:	c454                	sw	a3,12(s0)
   144f2:	e018                	sd	a4,0(s0)
   144f4:	bda1                	j	1434c <__sfvwrite_r+0x16c>
   144f6:	8cd2                	mv	s9,s4
   144f8:	b3e1                	j	142c0 <__sfvwrite_r+0xe0>
   144fa:	864e                	mv	a2,s3
   144fc:	8556                	mv	a0,s5
   144fe:	559020ef          	jal	17256 <_realloc_r>
   14502:	8a2a                	mv	s4,a0
   14504:	fd55                	bnez	a0,144c0 <__sfvwrite_r+0x2e0>
   14506:	6c0c                	ld	a1,24(s0)
   14508:	8556                	mv	a0,s5
   1450a:	fa0fc0ef          	jal	10caa <_free_r>
   1450e:	01041783          	lh	a5,16(s0)
   14512:	4731                	li	a4,12
   14514:	7b02                	ld	s6,32(sp)
   14516:	6c42                	ld	s8,16(sp)
   14518:	6ca2                	ld	s9,8(sp)
   1451a:	00eaa023          	sw	a4,0(s5)
   1451e:	f7f7f793          	and	a5,a5,-129
   14522:	bda5                	j	1439a <__sfvwrite_r+0x1ba>
   14524:	001c0b1b          	addw	s6,s8,1
   14528:	b3fd                	j	14316 <__sfvwrite_r+0x136>
   1452a:	01041783          	lh	a5,16(s0)
   1452e:	b5b5                	j	1439a <__sfvwrite_r+0x1ba>
   14530:	4731                	li	a4,12
   14532:	01041783          	lh	a5,16(s0)
   14536:	7b02                	ld	s6,32(sp)
   14538:	6c42                	ld	s8,16(sp)
   1453a:	6ca2                	ld	s9,8(sp)
   1453c:	00eaa023          	sw	a4,0(s5)
   14540:	bda9                	j	1439a <__sfvwrite_r+0x1ba>

0000000000014542 <_putc_r>:
   14542:	1101                	add	sp,sp,-32
   14544:	e822                	sd	s0,16(sp)
   14546:	ec06                	sd	ra,24(sp)
   14548:	842a                	mv	s0,a0
   1454a:	c119                	beqz	a0,14550 <_putc_r+0xe>
   1454c:	653c                	ld	a5,72(a0)
   1454e:	c3a1                	beqz	a5,1458e <_putc_r+0x4c>
   14550:	465c                	lw	a5,12(a2)
   14552:	fff7871b          	addw	a4,a5,-1
   14556:	c658                	sw	a4,12(a2)
   14558:	00075a63          	bgez	a4,1456c <_putc_r+0x2a>
   1455c:	561c                	lw	a5,40(a2)
   1455e:	02f74363          	blt	a4,a5,14584 <_putc_r+0x42>
   14562:	0ff5f793          	zext.b	a5,a1
   14566:	4729                	li	a4,10
   14568:	00e78e63          	beq	a5,a4,14584 <_putc_r+0x42>
   1456c:	621c                	ld	a5,0(a2)
   1456e:	0ff5f513          	zext.b	a0,a1
   14572:	00178713          	add	a4,a5,1
   14576:	e218                	sd	a4,0(a2)
   14578:	00b78023          	sb	a1,0(a5)
   1457c:	60e2                	ld	ra,24(sp)
   1457e:	6442                	ld	s0,16(sp)
   14580:	6105                	add	sp,sp,32
   14582:	8082                	ret
   14584:	8522                	mv	a0,s0
   14586:	6442                	ld	s0,16(sp)
   14588:	60e2                	ld	ra,24(sp)
   1458a:	6105                	add	sp,sp,32
   1458c:	a8ad                	j	14606 <__swbuf_r>
   1458e:	e432                	sd	a2,8(sp)
   14590:	e02e                	sd	a1,0(sp)
   14592:	8f6fc0ef          	jal	10688 <__sinit>
   14596:	6622                	ld	a2,8(sp)
   14598:	6582                	ld	a1,0(sp)
   1459a:	bf5d                	j	14550 <_putc_r+0xe>

000000000001459c <putc>:
   1459c:	7179                	add	sp,sp,-48
   1459e:	ec4a                	sd	s2,24(sp)
   145a0:	2201b903          	ld	s2,544(gp) # 1b560 <_impure_ptr>
   145a4:	f026                	sd	s1,32(sp)
   145a6:	f406                	sd	ra,40(sp)
   145a8:	84aa                	mv	s1,a0
   145aa:	00090563          	beqz	s2,145b4 <putc+0x18>
   145ae:	04893783          	ld	a5,72(s2)
   145b2:	c7a1                	beqz	a5,145fa <putc+0x5e>
   145b4:	45dc                	lw	a5,12(a1)
   145b6:	fff7871b          	addw	a4,a5,-1
   145ba:	c5d8                	sw	a4,12(a1)
   145bc:	00075a63          	bgez	a4,145d0 <putc+0x34>
   145c0:	559c                	lw	a5,40(a1)
   145c2:	02f74463          	blt	a4,a5,145ea <putc+0x4e>
   145c6:	0ff4f793          	zext.b	a5,s1
   145ca:	4729                	li	a4,10
   145cc:	00e78f63          	beq	a5,a4,145ea <putc+0x4e>
   145d0:	619c                	ld	a5,0(a1)
   145d2:	0ff4f513          	zext.b	a0,s1
   145d6:	00178713          	add	a4,a5,1
   145da:	e198                	sd	a4,0(a1)
   145dc:	00978023          	sb	s1,0(a5)
   145e0:	70a2                	ld	ra,40(sp)
   145e2:	7482                	ld	s1,32(sp)
   145e4:	6962                	ld	s2,24(sp)
   145e6:	6145                	add	sp,sp,48
   145e8:	8082                	ret
   145ea:	70a2                	ld	ra,40(sp)
   145ec:	862e                	mv	a2,a1
   145ee:	854a                	mv	a0,s2
   145f0:	85a6                	mv	a1,s1
   145f2:	6962                	ld	s2,24(sp)
   145f4:	7482                	ld	s1,32(sp)
   145f6:	6145                	add	sp,sp,48
   145f8:	a039                	j	14606 <__swbuf_r>
   145fa:	854a                	mv	a0,s2
   145fc:	e42e                	sd	a1,8(sp)
   145fe:	88afc0ef          	jal	10688 <__sinit>
   14602:	65a2                	ld	a1,8(sp)
   14604:	bf45                	j	145b4 <putc+0x18>

0000000000014606 <__swbuf_r>:
   14606:	7179                	add	sp,sp,-48
   14608:	f022                	sd	s0,32(sp)
   1460a:	ec26                	sd	s1,24(sp)
   1460c:	e84a                	sd	s2,16(sp)
   1460e:	f406                	sd	ra,40(sp)
   14610:	892a                	mv	s2,a0
   14612:	84ae                	mv	s1,a1
   14614:	8432                	mv	s0,a2
   14616:	c119                	beqz	a0,1461c <__swbuf_r+0x16>
   14618:	653c                	ld	a5,72(a0)
   1461a:	c7e5                	beqz	a5,14702 <__swbuf_r+0xfc>
   1461c:	541c                	lw	a5,40(s0)
   1461e:	01041703          	lh	a4,16(s0)
   14622:	c45c                	sw	a5,12(s0)
   14624:	00877793          	and	a5,a4,8
   14628:	cba9                	beqz	a5,1467a <__swbuf_r+0x74>
   1462a:	6c1c                	ld	a5,24(s0)
   1462c:	c7b9                	beqz	a5,1467a <__swbuf_r+0x74>
   1462e:	e44e                	sd	s3,8(sp)
   14630:	03271693          	sll	a3,a4,0x32
   14634:	0ff4f993          	zext.b	s3,s1
   14638:	84ce                	mv	s1,s3
   1463a:	0606d063          	bgez	a3,1469a <__swbuf_r+0x94>
   1463e:	6018                	ld	a4,0(s0)
   14640:	5014                	lw	a3,32(s0)
   14642:	40f707bb          	subw	a5,a4,a5
   14646:	06d7db63          	bge	a5,a3,146bc <__swbuf_r+0xb6>
   1464a:	4454                	lw	a3,12(s0)
   1464c:	00170613          	add	a2,a4,1
   14650:	e010                	sd	a2,0(s0)
   14652:	36fd                	addw	a3,a3,-1
   14654:	c454                	sw	a3,12(s0)
   14656:	01370023          	sb	s3,0(a4)
   1465a:	5018                	lw	a4,32(s0)
   1465c:	2785                	addw	a5,a5,1
   1465e:	08f70163          	beq	a4,a5,146e0 <__swbuf_r+0xda>
   14662:	01045783          	lhu	a5,16(s0)
   14666:	8b85                	and	a5,a5,1
   14668:	e7c1                	bnez	a5,146f0 <__swbuf_r+0xea>
   1466a:	69a2                	ld	s3,8(sp)
   1466c:	70a2                	ld	ra,40(sp)
   1466e:	7402                	ld	s0,32(sp)
   14670:	6942                	ld	s2,16(sp)
   14672:	8526                	mv	a0,s1
   14674:	64e2                	ld	s1,24(sp)
   14676:	6145                	add	sp,sp,48
   14678:	8082                	ret
   1467a:	85a2                	mv	a1,s0
   1467c:	854a                	mv	a0,s2
   1467e:	096000ef          	jal	14714 <__swsetup_r>
   14682:	e52d                	bnez	a0,146ec <__swbuf_r+0xe6>
   14684:	01041703          	lh	a4,16(s0)
   14688:	e44e                	sd	s3,8(sp)
   1468a:	0ff4f993          	zext.b	s3,s1
   1468e:	03271693          	sll	a3,a4,0x32
   14692:	6c1c                	ld	a5,24(s0)
   14694:	84ce                	mv	s1,s3
   14696:	fa06c4e3          	bltz	a3,1463e <__swbuf_r+0x38>
   1469a:	0ac42683          	lw	a3,172(s0)
   1469e:	7679                	lui	a2,0xffffe
   146a0:	6589                	lui	a1,0x2
   146a2:	8f4d                	or	a4,a4,a1
   146a4:	167d                	add	a2,a2,-1 # ffffffffffffdfff <__BSS_END__+0xfffffffffffe24bf>
   146a6:	8ef1                	and	a3,a3,a2
   146a8:	00e41823          	sh	a4,16(s0)
   146ac:	6018                	ld	a4,0(s0)
   146ae:	0ad42623          	sw	a3,172(s0)
   146b2:	5014                	lw	a3,32(s0)
   146b4:	40f707bb          	subw	a5,a4,a5
   146b8:	f8d7c9e3          	blt	a5,a3,1464a <__swbuf_r+0x44>
   146bc:	85a2                	mv	a1,s0
   146be:	854a                	mv	a0,s2
   146c0:	a9bff0ef          	jal	1415a <_fflush_r>
   146c4:	e11d                	bnez	a0,146ea <__swbuf_r+0xe4>
   146c6:	6018                	ld	a4,0(s0)
   146c8:	4454                	lw	a3,12(s0)
   146ca:	4785                	li	a5,1
   146cc:	00170613          	add	a2,a4,1
   146d0:	36fd                	addw	a3,a3,-1
   146d2:	e010                	sd	a2,0(s0)
   146d4:	c454                	sw	a3,12(s0)
   146d6:	01370023          	sb	s3,0(a4)
   146da:	5018                	lw	a4,32(s0)
   146dc:	f8f713e3          	bne	a4,a5,14662 <__swbuf_r+0x5c>
   146e0:	85a2                	mv	a1,s0
   146e2:	854a                	mv	a0,s2
   146e4:	a77ff0ef          	jal	1415a <_fflush_r>
   146e8:	d149                	beqz	a0,1466a <__swbuf_r+0x64>
   146ea:	69a2                	ld	s3,8(sp)
   146ec:	54fd                	li	s1,-1
   146ee:	bfbd                	j	1466c <__swbuf_r+0x66>
   146f0:	47a9                	li	a5,10
   146f2:	f6f49ce3          	bne	s1,a5,1466a <__swbuf_r+0x64>
   146f6:	85a2                	mv	a1,s0
   146f8:	854a                	mv	a0,s2
   146fa:	a61ff0ef          	jal	1415a <_fflush_r>
   146fe:	d535                	beqz	a0,1466a <__swbuf_r+0x64>
   14700:	b7ed                	j	146ea <__swbuf_r+0xe4>
   14702:	f87fb0ef          	jal	10688 <__sinit>
   14706:	bf19                	j	1461c <__swbuf_r+0x16>

0000000000014708 <__swbuf>:
   14708:	87aa                	mv	a5,a0
   1470a:	2201b503          	ld	a0,544(gp) # 1b560 <_impure_ptr>
   1470e:	862e                	mv	a2,a1
   14710:	85be                	mv	a1,a5
   14712:	bdd5                	j	14606 <__swbuf_r>

0000000000014714 <__swsetup_r>:
   14714:	2201b783          	ld	a5,544(gp) # 1b560 <_impure_ptr>
   14718:	1101                	add	sp,sp,-32
   1471a:	e822                	sd	s0,16(sp)
   1471c:	e426                	sd	s1,8(sp)
   1471e:	ec06                	sd	ra,24(sp)
   14720:	84aa                	mv	s1,a0
   14722:	842e                	mv	s0,a1
   14724:	c399                	beqz	a5,1472a <__swsetup_r+0x16>
   14726:	67b8                	ld	a4,72(a5)
   14728:	c75d                	beqz	a4,147d6 <__swsetup_r+0xc2>
   1472a:	01041783          	lh	a5,16(s0)
   1472e:	0087f713          	and	a4,a5,8
   14732:	c721                	beqz	a4,1477a <__swsetup_r+0x66>
   14734:	6c18                	ld	a4,24(s0)
   14736:	cf31                	beqz	a4,14792 <__swsetup_r+0x7e>
   14738:	0017f693          	and	a3,a5,1
   1473c:	ce91                	beqz	a3,14758 <__swsetup_r+0x44>
   1473e:	5014                	lw	a3,32(s0)
   14740:	00042623          	sw	zero,12(s0)
   14744:	4501                	li	a0,0
   14746:	40d006bb          	negw	a3,a3
   1474a:	d414                	sw	a3,40(s0)
   1474c:	cf11                	beqz	a4,14768 <__swsetup_r+0x54>
   1474e:	60e2                	ld	ra,24(sp)
   14750:	6442                	ld	s0,16(sp)
   14752:	64a2                	ld	s1,8(sp)
   14754:	6105                	add	sp,sp,32
   14756:	8082                	ret
   14758:	0027f693          	and	a3,a5,2
   1475c:	4601                	li	a2,0
   1475e:	e291                	bnez	a3,14762 <__swsetup_r+0x4e>
   14760:	5010                	lw	a2,32(s0)
   14762:	c450                	sw	a2,12(s0)
   14764:	4501                	li	a0,0
   14766:	f765                	bnez	a4,1474e <__swsetup_r+0x3a>
   14768:	0807f713          	and	a4,a5,128
   1476c:	d36d                	beqz	a4,1474e <__swsetup_r+0x3a>
   1476e:	0407e793          	or	a5,a5,64
   14772:	00f41823          	sh	a5,16(s0)
   14776:	557d                	li	a0,-1
   14778:	bfd9                	j	1474e <__swsetup_r+0x3a>
   1477a:	0107f713          	and	a4,a5,16
   1477e:	c325                	beqz	a4,147de <__swsetup_r+0xca>
   14780:	0047f713          	and	a4,a5,4
   14784:	e70d                	bnez	a4,147ae <__swsetup_r+0x9a>
   14786:	6c18                	ld	a4,24(s0)
   14788:	0087e793          	or	a5,a5,8
   1478c:	00f41823          	sh	a5,16(s0)
   14790:	f745                	bnez	a4,14738 <__swsetup_r+0x24>
   14792:	2807f693          	and	a3,a5,640
   14796:	20000613          	li	a2,512
   1479a:	f8c68fe3          	beq	a3,a2,14738 <__swsetup_r+0x24>
   1479e:	85a2                	mv	a1,s0
   147a0:	8526                	mv	a0,s1
   147a2:	76d020ef          	jal	1770e <__smakebuf_r>
   147a6:	01041783          	lh	a5,16(s0)
   147aa:	6c18                	ld	a4,24(s0)
   147ac:	b771                	j	14738 <__swsetup_r+0x24>
   147ae:	6c2c                	ld	a1,88(s0)
   147b0:	cd81                	beqz	a1,147c8 <__swsetup_r+0xb4>
   147b2:	07440713          	add	a4,s0,116
   147b6:	00e58763          	beq	a1,a4,147c4 <__swsetup_r+0xb0>
   147ba:	8526                	mv	a0,s1
   147bc:	ceefc0ef          	jal	10caa <_free_r>
   147c0:	01041783          	lh	a5,16(s0)
   147c4:	04043c23          	sd	zero,88(s0)
   147c8:	6c18                	ld	a4,24(s0)
   147ca:	fdb7f793          	and	a5,a5,-37
   147ce:	00042423          	sw	zero,8(s0)
   147d2:	e018                	sd	a4,0(s0)
   147d4:	bf55                	j	14788 <__swsetup_r+0x74>
   147d6:	853e                	mv	a0,a5
   147d8:	eb1fb0ef          	jal	10688 <__sinit>
   147dc:	b7b9                	j	1472a <__swsetup_r+0x16>
   147de:	4725                	li	a4,9
   147e0:	c098                	sw	a4,0(s1)
   147e2:	0407e793          	or	a5,a5,64
   147e6:	00f41823          	sh	a5,16(s0)
   147ea:	557d                	li	a0,-1
   147ec:	b78d                	j	1474e <__swsetup_r+0x3a>

00000000000147ee <__fputwc>:
   147ee:	7179                	add	sp,sp,-48
   147f0:	f022                	sd	s0,32(sp)
   147f2:	ec26                	sd	s1,24(sp)
   147f4:	e84a                	sd	s2,16(sp)
   147f6:	f406                	sd	ra,40(sp)
   147f8:	892a                	mv	s2,a0
   147fa:	84ae                	mv	s1,a1
   147fc:	8432                	mv	s0,a2
   147fe:	296000ef          	jal	14a94 <__locale_mb_cur_max>
   14802:	4785                	li	a5,1
   14804:	00f51b63          	bne	a0,a5,1481a <__fputwc+0x2c>
   14808:	fff4879b          	addw	a5,s1,-1
   1480c:	0fe00713          	li	a4,254
   14810:	00f76563          	bltu	a4,a5,1481a <__fputwc+0x2c>
   14814:	00910423          	sb	s1,8(sp)
   14818:	a821                	j	14830 <__fputwc+0x42>
   1481a:	0a440693          	add	a3,s0,164
   1481e:	8626                	mv	a2,s1
   14820:	002c                	add	a1,sp,8
   14822:	854a                	mv	a0,s2
   14824:	655020ef          	jal	17678 <_wcrtomb_r>
   14828:	57fd                	li	a5,-1
   1482a:	04f50d63          	beq	a0,a5,14884 <__fputwc+0x96>
   1482e:	c50d                	beqz	a0,14858 <__fputwc+0x6a>
   14830:	445c                	lw	a5,12(s0)
   14832:	00814583          	lbu	a1,8(sp)
   14836:	fff7871b          	addw	a4,a5,-1
   1483a:	c458                	sw	a4,12(s0)
   1483c:	00075863          	bgez	a4,1484c <__fputwc+0x5e>
   14840:	541c                	lw	a5,40(s0)
   14842:	02f74363          	blt	a4,a5,14868 <__fputwc+0x7a>
   14846:	47a9                	li	a5,10
   14848:	02f58063          	beq	a1,a5,14868 <__fputwc+0x7a>
   1484c:	601c                	ld	a5,0(s0)
   1484e:	00178713          	add	a4,a5,1
   14852:	e018                	sd	a4,0(s0)
   14854:	00b78023          	sb	a1,0(a5)
   14858:	70a2                	ld	ra,40(sp)
   1485a:	7402                	ld	s0,32(sp)
   1485c:	6942                	ld	s2,16(sp)
   1485e:	0004851b          	sext.w	a0,s1
   14862:	64e2                	ld	s1,24(sp)
   14864:	6145                	add	sp,sp,48
   14866:	8082                	ret
   14868:	8622                	mv	a2,s0
   1486a:	854a                	mv	a0,s2
   1486c:	d9bff0ef          	jal	14606 <__swbuf_r>
   14870:	57fd                	li	a5,-1
   14872:	fef513e3          	bne	a0,a5,14858 <__fputwc+0x6a>
   14876:	557d                	li	a0,-1
   14878:	70a2                	ld	ra,40(sp)
   1487a:	7402                	ld	s0,32(sp)
   1487c:	64e2                	ld	s1,24(sp)
   1487e:	6942                	ld	s2,16(sp)
   14880:	6145                	add	sp,sp,48
   14882:	8082                	ret
   14884:	01045783          	lhu	a5,16(s0)
   14888:	557d                	li	a0,-1
   1488a:	0407e793          	or	a5,a5,64
   1488e:	00f41823          	sh	a5,16(s0)
   14892:	b7dd                	j	14878 <__fputwc+0x8a>

0000000000014894 <_fputwc_r>:
   14894:	01061783          	lh	a5,16(a2)
   14898:	03279713          	sll	a4,a5,0x32
   1489c:	00074c63          	bltz	a4,148b4 <_fputwc_r+0x20>
   148a0:	0ac62703          	lw	a4,172(a2)
   148a4:	6689                	lui	a3,0x2
   148a6:	8fd5                	or	a5,a5,a3
   148a8:	6689                	lui	a3,0x2
   148aa:	8f55                	or	a4,a4,a3
   148ac:	00f61823          	sh	a5,16(a2)
   148b0:	0ae62623          	sw	a4,172(a2)
   148b4:	bf2d                	j	147ee <__fputwc>

00000000000148b6 <fputwc>:
   148b6:	1101                	add	sp,sp,-32
   148b8:	e822                	sd	s0,16(sp)
   148ba:	2201b403          	ld	s0,544(gp) # 1b560 <_impure_ptr>
   148be:	ec06                	sd	ra,24(sp)
   148c0:	862e                	mv	a2,a1
   148c2:	85aa                	mv	a1,a0
   148c4:	c019                	beqz	s0,148ca <fputwc+0x14>
   148c6:	643c                	ld	a5,72(s0)
   148c8:	c795                	beqz	a5,148f4 <fputwc+0x3e>
   148ca:	01061783          	lh	a5,16(a2)
   148ce:	03279713          	sll	a4,a5,0x32
   148d2:	00074c63          	bltz	a4,148ea <fputwc+0x34>
   148d6:	0ac62703          	lw	a4,172(a2)
   148da:	6689                	lui	a3,0x2
   148dc:	8fd5                	or	a5,a5,a3
   148de:	6689                	lui	a3,0x2
   148e0:	8f55                	or	a4,a4,a3
   148e2:	00f61823          	sh	a5,16(a2)
   148e6:	0ae62623          	sw	a4,172(a2)
   148ea:	8522                	mv	a0,s0
   148ec:	6442                	ld	s0,16(sp)
   148ee:	60e2                	ld	ra,24(sp)
   148f0:	6105                	add	sp,sp,32
   148f2:	bdf5                	j	147ee <__fputwc>
   148f4:	e02a                	sd	a0,0(sp)
   148f6:	8522                	mv	a0,s0
   148f8:	e432                	sd	a2,8(sp)
   148fa:	d8ffb0ef          	jal	10688 <__sinit>
   148fe:	6622                	ld	a2,8(sp)
   14900:	6582                	ld	a1,0(sp)
   14902:	b7e1                	j	148ca <fputwc+0x14>

0000000000014904 <memchr>:
   14904:	00757793          	and	a5,a0,7
   14908:	0ff5f693          	zext.b	a3,a1
   1490c:	c395                	beqz	a5,14930 <memchr+0x2c>
   1490e:	fff60793          	add	a5,a2,-1
   14912:	c605                	beqz	a2,1493a <memchr+0x36>
   14914:	567d                	li	a2,-1
   14916:	a801                	j	14926 <memchr+0x22>
   14918:	0505                	add	a0,a0,1
   1491a:	00757713          	and	a4,a0,7
   1491e:	cb11                	beqz	a4,14932 <memchr+0x2e>
   14920:	17fd                	add	a5,a5,-1
   14922:	00c78c63          	beq	a5,a2,1493a <memchr+0x36>
   14926:	00054703          	lbu	a4,0(a0)
   1492a:	fed717e3          	bne	a4,a3,14918 <memchr+0x14>
   1492e:	8082                	ret
   14930:	87b2                	mv	a5,a2
   14932:	471d                	li	a4,7
   14934:	00f76563          	bltu	a4,a5,1493e <memchr+0x3a>
   14938:	e3bd                	bnez	a5,1499e <memchr+0x9a>
   1493a:	4501                	li	a0,0
   1493c:	8082                	ret
   1493e:	0ff5f593          	zext.b	a1,a1
   14942:	f0101837          	lui	a6,0xf0101
   14946:	00859713          	sll	a4,a1,0x8
   1494a:	feff08b7          	lui	a7,0xfeff0
   1494e:	0812                	sll	a6,a6,0x4
   14950:	972e                	add	a4,a4,a1
   14952:	eff88893          	add	a7,a7,-257 # fffffffffefefeff <__BSS_END__+0xfffffffffefd43bf>
   14956:	10180813          	add	a6,a6,257 # fffffffff0101101 <__BSS_END__+0xfffffffff00e55c1>
   1495a:	01071593          	sll	a1,a4,0x10
   1495e:	08c2                	sll	a7,a7,0x10
   14960:	0842                	sll	a6,a6,0x10
   14962:	95ba                	add	a1,a1,a4
   14964:	eff88893          	add	a7,a7,-257
   14968:	10180813          	add	a6,a6,257
   1496c:	02059713          	sll	a4,a1,0x20
   14970:	08c2                	sll	a7,a7,0x10
   14972:	083e                	sll	a6,a6,0xf
   14974:	95ba                	add	a1,a1,a4
   14976:	eff88893          	add	a7,a7,-257
   1497a:	08080813          	add	a6,a6,128
   1497e:	431d                	li	t1,7
   14980:	a029                	j	1498a <memchr+0x86>
   14982:	17e1                	add	a5,a5,-8
   14984:	0521                	add	a0,a0,8
   14986:	faf379e3          	bgeu	t1,a5,14938 <memchr+0x34>
   1498a:	6118                	ld	a4,0(a0)
   1498c:	8f2d                	xor	a4,a4,a1
   1498e:	01170633          	add	a2,a4,a7
   14992:	fff74713          	not	a4,a4
   14996:	8f71                	and	a4,a4,a2
   14998:	01077733          	and	a4,a4,a6
   1499c:	d37d                	beqz	a4,14982 <memchr+0x7e>
   1499e:	97aa                	add	a5,a5,a0
   149a0:	a021                	j	149a8 <memchr+0xa4>
   149a2:	0505                	add	a0,a0,1
   149a4:	f8a78be3          	beq	a5,a0,1493a <memchr+0x36>
   149a8:	00054703          	lbu	a4,0(a0)
   149ac:	fed71be3          	bne	a4,a3,149a2 <memchr+0x9e>
   149b0:	8082                	ret

00000000000149b2 <strncpy>:
   149b2:	00a5e7b3          	or	a5,a1,a0
   149b6:	8b9d                	and	a5,a5,7
   149b8:	e781                	bnez	a5,149c0 <strncpy+0xe>
   149ba:	479d                	li	a5,7
   149bc:	02c7eb63          	bltu	a5,a2,149f2 <strncpy+0x40>
   149c0:	872a                	mv	a4,a0
   149c2:	a811                	j	149d6 <strncpy+0x24>
   149c4:	fff5c683          	lbu	a3,-1(a1) # 1fff <exit-0xe0e9>
   149c8:	fff60813          	add	a6,a2,-1
   149cc:	fed78fa3          	sb	a3,-1(a5)
   149d0:	ca81                	beqz	a3,149e0 <strncpy+0x2e>
   149d2:	873e                	mv	a4,a5
   149d4:	8642                	mv	a2,a6
   149d6:	0585                	add	a1,a1,1
   149d8:	00170793          	add	a5,a4,1
   149dc:	f665                	bnez	a2,149c4 <strncpy+0x12>
   149de:	8082                	ret
   149e0:	9732                	add	a4,a4,a2
   149e2:	06080163          	beqz	a6,14a44 <strncpy+0x92>
   149e6:	0785                	add	a5,a5,1
   149e8:	fe078fa3          	sb	zero,-1(a5)
   149ec:	fee79de3          	bne	a5,a4,149e6 <strncpy+0x34>
   149f0:	8082                	ret
   149f2:	f0101837          	lui	a6,0xf0101
   149f6:	feff08b7          	lui	a7,0xfeff0
   149fa:	0812                	sll	a6,a6,0x4
   149fc:	eff88893          	add	a7,a7,-257 # fffffffffefefeff <__BSS_END__+0xfffffffffefd43bf>
   14a00:	10180813          	add	a6,a6,257 # fffffffff0101101 <__BSS_END__+0xfffffffff00e55c1>
   14a04:	08c2                	sll	a7,a7,0x10
   14a06:	0842                	sll	a6,a6,0x10
   14a08:	eff88893          	add	a7,a7,-257
   14a0c:	10180813          	add	a6,a6,257
   14a10:	08c2                	sll	a7,a7,0x10
   14a12:	083e                	sll	a6,a6,0xf
   14a14:	872a                	mv	a4,a0
   14a16:	eff88893          	add	a7,a7,-257
   14a1a:	08080813          	add	a6,a6,128
   14a1e:	4e1d                	li	t3,7
   14a20:	a039                	j	14a2e <strncpy+0x7c>
   14a22:	e314                	sd	a3,0(a4)
   14a24:	1661                	add	a2,a2,-8
   14a26:	0721                	add	a4,a4,8
   14a28:	05a1                	add	a1,a1,8
   14a2a:	face76e3          	bgeu	t3,a2,149d6 <strncpy+0x24>
   14a2e:	6194                	ld	a3,0(a1)
   14a30:	011687b3          	add	a5,a3,a7
   14a34:	fff6c313          	not	t1,a3
   14a38:	0067f7b3          	and	a5,a5,t1
   14a3c:	0107f7b3          	and	a5,a5,a6
   14a40:	d3ed                	beqz	a5,14a22 <strncpy+0x70>
   14a42:	bf51                	j	149d6 <strncpy+0x24>
   14a44:	8082                	ret

0000000000014a46 <_setlocale_r>:
   14a46:	1101                	add	sp,sp,-32
   14a48:	ec06                	sd	ra,24(sp)
   14a4a:	e426                	sd	s1,8(sp)
   14a4c:	c215                	beqz	a2,14a70 <_setlocale_r+0x2a>
   14a4e:	65e5                	lui	a1,0x19
   14a50:	27058593          	add	a1,a1,624 # 19270 <__clzdi2+0xce>
   14a54:	8532                	mv	a0,a2
   14a56:	e822                	sd	s0,16(sp)
   14a58:	8432                	mv	s0,a2
   14a5a:	3c4000ef          	jal	14e1e <strcmp>
   14a5e:	64e5                	lui	s1,0x19
   14a60:	e911                	bnez	a0,14a74 <_setlocale_r+0x2e>
   14a62:	6442                	ld	s0,16(sp)
   14a64:	26848513          	add	a0,s1,616 # 19268 <__clzdi2+0xc6>
   14a68:	60e2                	ld	ra,24(sp)
   14a6a:	64a2                	ld	s1,8(sp)
   14a6c:	6105                	add	sp,sp,32
   14a6e:	8082                	ret
   14a70:	64e5                	lui	s1,0x19
   14a72:	bfcd                	j	14a64 <_setlocale_r+0x1e>
   14a74:	26848593          	add	a1,s1,616 # 19268 <__clzdi2+0xc6>
   14a78:	8522                	mv	a0,s0
   14a7a:	3a4000ef          	jal	14e1e <strcmp>
   14a7e:	d175                	beqz	a0,14a62 <_setlocale_r+0x1c>
   14a80:	65e5                	lui	a1,0x19
   14a82:	25058593          	add	a1,a1,592 # 19250 <__clzdi2+0xae>
   14a86:	8522                	mv	a0,s0
   14a88:	396000ef          	jal	14e1e <strcmp>
   14a8c:	d979                	beqz	a0,14a62 <_setlocale_r+0x1c>
   14a8e:	6442                	ld	s0,16(sp)
   14a90:	4501                	li	a0,0
   14a92:	bfd9                	j	14a68 <_setlocale_r+0x22>

0000000000014a94 <__locale_mb_cur_max>:
   14a94:	1601c503          	lbu	a0,352(gp) # 1b4a0 <__global_locale+0x160>
   14a98:	8082                	ret

0000000000014a9a <setlocale>:
   14a9a:	1101                	add	sp,sp,-32
   14a9c:	ec06                	sd	ra,24(sp)
   14a9e:	e426                	sd	s1,8(sp)
   14aa0:	c195                	beqz	a1,14ac4 <setlocale+0x2a>
   14aa2:	e822                	sd	s0,16(sp)
   14aa4:	842e                	mv	s0,a1
   14aa6:	65e5                	lui	a1,0x19
   14aa8:	27058593          	add	a1,a1,624 # 19270 <__clzdi2+0xce>
   14aac:	8522                	mv	a0,s0
   14aae:	370000ef          	jal	14e1e <strcmp>
   14ab2:	64e5                	lui	s1,0x19
   14ab4:	e911                	bnez	a0,14ac8 <setlocale+0x2e>
   14ab6:	6442                	ld	s0,16(sp)
   14ab8:	26848513          	add	a0,s1,616 # 19268 <__clzdi2+0xc6>
   14abc:	60e2                	ld	ra,24(sp)
   14abe:	64a2                	ld	s1,8(sp)
   14ac0:	6105                	add	sp,sp,32
   14ac2:	8082                	ret
   14ac4:	64e5                	lui	s1,0x19
   14ac6:	bfcd                	j	14ab8 <setlocale+0x1e>
   14ac8:	26848593          	add	a1,s1,616 # 19268 <__clzdi2+0xc6>
   14acc:	8522                	mv	a0,s0
   14ace:	350000ef          	jal	14e1e <strcmp>
   14ad2:	d175                	beqz	a0,14ab6 <setlocale+0x1c>
   14ad4:	65e5                	lui	a1,0x19
   14ad6:	25058593          	add	a1,a1,592 # 19250 <__clzdi2+0xae>
   14ada:	8522                	mv	a0,s0
   14adc:	342000ef          	jal	14e1e <strcmp>
   14ae0:	d979                	beqz	a0,14ab6 <setlocale+0x1c>
   14ae2:	6442                	ld	s0,16(sp)
   14ae4:	4501                	li	a0,0
   14ae6:	bfd9                	j	14abc <setlocale+0x22>

0000000000014ae8 <__localeconv_l>:
   14ae8:	10050513          	add	a0,a0,256
   14aec:	8082                	ret

0000000000014aee <_localeconv_r>:
   14aee:	10018513          	add	a0,gp,256 # 1b440 <__global_locale+0x100>
   14af2:	8082                	ret

0000000000014af4 <localeconv>:
   14af4:	10018513          	add	a0,gp,256 # 1b440 <__global_locale+0x100>
   14af8:	8082                	ret

0000000000014afa <_sbrk_r>:
   14afa:	1101                	add	sp,sp,-32
   14afc:	e822                	sd	s0,16(sp)
   14afe:	e426                	sd	s1,8(sp)
   14b00:	842a                	mv	s0,a0
   14b02:	852e                	mv	a0,a1
   14b04:	ec06                	sd	ra,24(sp)
   14b06:	2401a023          	sw	zero,576(gp) # 1b580 <errno>
   14b0a:	3fc030ef          	jal	17f06 <_sbrk>
   14b0e:	57fd                	li	a5,-1
   14b10:	00f50763          	beq	a0,a5,14b1e <_sbrk_r+0x24>
   14b14:	60e2                	ld	ra,24(sp)
   14b16:	6442                	ld	s0,16(sp)
   14b18:	64a2                	ld	s1,8(sp)
   14b1a:	6105                	add	sp,sp,32
   14b1c:	8082                	ret
   14b1e:	2401a783          	lw	a5,576(gp) # 1b580 <errno>
   14b22:	dbed                	beqz	a5,14b14 <_sbrk_r+0x1a>
   14b24:	60e2                	ld	ra,24(sp)
   14b26:	c01c                	sw	a5,0(s0)
   14b28:	6442                	ld	s0,16(sp)
   14b2a:	64a2                	ld	s1,8(sp)
   14b2c:	6105                	add	sp,sp,32
   14b2e:	8082                	ret

0000000000014b30 <__libc_fini_array>:
   14b30:	1101                	add	sp,sp,-32
   14b32:	e822                	sd	s0,16(sp)
   14b34:	67ed                	lui	a5,0x1b
   14b36:	646d                	lui	s0,0x1b
   14b38:	9b878793          	add	a5,a5,-1608 # 1a9b8 <__do_global_dtors_aux_fini_array_entry>
   14b3c:	9c040413          	add	s0,s0,-1600 # 1a9c0 <__sglue>
   14b40:	8c1d                	sub	s0,s0,a5
   14b42:	e426                	sd	s1,8(sp)
   14b44:	ec06                	sd	ra,24(sp)
   14b46:	40345493          	sra	s1,s0,0x3
   14b4a:	c881                	beqz	s1,14b5a <__libc_fini_array+0x2a>
   14b4c:	1461                	add	s0,s0,-8
   14b4e:	943e                	add	s0,s0,a5
   14b50:	601c                	ld	a5,0(s0)
   14b52:	14fd                	add	s1,s1,-1
   14b54:	1461                	add	s0,s0,-8
   14b56:	9782                	jalr	a5
   14b58:	fce5                	bnez	s1,14b50 <__libc_fini_array+0x20>
   14b5a:	60e2                	ld	ra,24(sp)
   14b5c:	6442                	ld	s0,16(sp)
   14b5e:	64a2                	ld	s1,8(sp)
   14b60:	6105                	add	sp,sp,32
   14b62:	8082                	ret

0000000000014b64 <memmove>:
   14b64:	02a5f263          	bgeu	a1,a0,14b88 <memmove+0x24>
   14b68:	00c58733          	add	a4,a1,a2
   14b6c:	00e57e63          	bgeu	a0,a4,14b88 <memmove+0x24>
   14b70:	00c507b3          	add	a5,a0,a2
   14b74:	ca1d                	beqz	a2,14baa <memmove+0x46>
   14b76:	fff74683          	lbu	a3,-1(a4)
   14b7a:	17fd                	add	a5,a5,-1
   14b7c:	177d                	add	a4,a4,-1
   14b7e:	00d78023          	sb	a3,0(a5)
   14b82:	fef51ae3          	bne	a0,a5,14b76 <memmove+0x12>
   14b86:	8082                	ret
   14b88:	47fd                	li	a5,31
   14b8a:	02c7e163          	bltu	a5,a2,14bac <memmove+0x48>
   14b8e:	87aa                	mv	a5,a0
   14b90:	fff60693          	add	a3,a2,-1
   14b94:	ce51                	beqz	a2,14c30 <memmove+0xcc>
   14b96:	0685                	add	a3,a3,1 # 2001 <exit-0xe0e7>
   14b98:	96be                	add	a3,a3,a5
   14b9a:	0005c703          	lbu	a4,0(a1)
   14b9e:	0785                	add	a5,a5,1
   14ba0:	0585                	add	a1,a1,1
   14ba2:	fee78fa3          	sb	a4,-1(a5)
   14ba6:	fed79ae3          	bne	a5,a3,14b9a <memmove+0x36>
   14baa:	8082                	ret
   14bac:	00b567b3          	or	a5,a0,a1
   14bb0:	8b9d                	and	a5,a5,7
   14bb2:	ebbd                	bnez	a5,14c28 <memmove+0xc4>
   14bb4:	fe060893          	add	a7,a2,-32
   14bb8:	fe08f893          	and	a7,a7,-32
   14bbc:	02088893          	add	a7,a7,32
   14bc0:	011506b3          	add	a3,a0,a7
   14bc4:	872e                	mv	a4,a1
   14bc6:	87aa                	mv	a5,a0
   14bc8:	00073803          	ld	a6,0(a4)
   14bcc:	02070713          	add	a4,a4,32
   14bd0:	02078793          	add	a5,a5,32
   14bd4:	ff07b023          	sd	a6,-32(a5)
   14bd8:	fe873803          	ld	a6,-24(a4)
   14bdc:	ff07b423          	sd	a6,-24(a5)
   14be0:	ff073803          	ld	a6,-16(a4)
   14be4:	ff07b823          	sd	a6,-16(a5)
   14be8:	ff873803          	ld	a6,-8(a4)
   14bec:	ff07bc23          	sd	a6,-8(a5)
   14bf0:	fcd79ce3          	bne	a5,a3,14bc8 <memmove+0x64>
   14bf4:	01867813          	and	a6,a2,24
   14bf8:	95c6                	add	a1,a1,a7
   14bfa:	01f67713          	and	a4,a2,31
   14bfe:	02080a63          	beqz	a6,14c32 <memmove+0xce>
   14c02:	ff870813          	add	a6,a4,-8
   14c06:	ff887813          	and	a6,a6,-8
   14c0a:	0821                	add	a6,a6,8
   14c0c:	010687b3          	add	a5,a3,a6
   14c10:	872e                	mv	a4,a1
   14c12:	00073883          	ld	a7,0(a4)
   14c16:	06a1                	add	a3,a3,8
   14c18:	0721                	add	a4,a4,8
   14c1a:	ff16bc23          	sd	a7,-8(a3)
   14c1e:	fef69ae3          	bne	a3,a5,14c12 <memmove+0xae>
   14c22:	8a1d                	and	a2,a2,7
   14c24:	95c2                	add	a1,a1,a6
   14c26:	b7ad                	j	14b90 <memmove+0x2c>
   14c28:	fff60693          	add	a3,a2,-1
   14c2c:	87aa                	mv	a5,a0
   14c2e:	b7a5                	j	14b96 <memmove+0x32>
   14c30:	8082                	ret
   14c32:	863a                	mv	a2,a4
   14c34:	bfb1                	j	14b90 <memmove+0x2c>

0000000000014c36 <memcpy>:
   14c36:	00a5c7b3          	xor	a5,a1,a0
   14c3a:	8b9d                	and	a5,a5,7
   14c3c:	00c508b3          	add	a7,a0,a2
   14c40:	e7b1                	bnez	a5,14c8c <memcpy+0x56>
   14c42:	479d                	li	a5,7
   14c44:	04c7f463          	bgeu	a5,a2,14c8c <memcpy+0x56>
   14c48:	00757793          	and	a5,a0,7
   14c4c:	872a                	mv	a4,a0
   14c4e:	ebb9                	bnez	a5,14ca4 <memcpy+0x6e>
   14c50:	ff88f613          	and	a2,a7,-8
   14c54:	40e606b3          	sub	a3,a2,a4
   14c58:	04000793          	li	a5,64
   14c5c:	06d7c863          	blt	a5,a3,14ccc <memcpy+0x96>
   14c60:	86ae                	mv	a3,a1
   14c62:	87ba                	mv	a5,a4
   14c64:	02c77163          	bgeu	a4,a2,14c86 <memcpy+0x50>
   14c68:	0006b803          	ld	a6,0(a3)
   14c6c:	07a1                	add	a5,a5,8
   14c6e:	06a1                	add	a3,a3,8
   14c70:	ff07bc23          	sd	a6,-8(a5)
   14c74:	fec7eae3          	bltu	a5,a2,14c68 <memcpy+0x32>
   14c78:	fff60793          	add	a5,a2,-1
   14c7c:	8f99                	sub	a5,a5,a4
   14c7e:	9be1                	and	a5,a5,-8
   14c80:	07a1                	add	a5,a5,8
   14c82:	973e                	add	a4,a4,a5
   14c84:	95be                	add	a1,a1,a5
   14c86:	01176663          	bltu	a4,a7,14c92 <memcpy+0x5c>
   14c8a:	8082                	ret
   14c8c:	872a                	mv	a4,a0
   14c8e:	03157e63          	bgeu	a0,a7,14cca <memcpy+0x94>
   14c92:	0005c783          	lbu	a5,0(a1)
   14c96:	0705                	add	a4,a4,1
   14c98:	0585                	add	a1,a1,1
   14c9a:	fef70fa3          	sb	a5,-1(a4)
   14c9e:	fee89ae3          	bne	a7,a4,14c92 <memcpy+0x5c>
   14ca2:	8082                	ret
   14ca4:	0005c683          	lbu	a3,0(a1)
   14ca8:	0705                	add	a4,a4,1
   14caa:	00777793          	and	a5,a4,7
   14cae:	fed70fa3          	sb	a3,-1(a4)
   14cb2:	0585                	add	a1,a1,1
   14cb4:	dfd1                	beqz	a5,14c50 <memcpy+0x1a>
   14cb6:	0005c683          	lbu	a3,0(a1)
   14cba:	0705                	add	a4,a4,1
   14cbc:	00777793          	and	a5,a4,7
   14cc0:	fed70fa3          	sb	a3,-1(a4)
   14cc4:	0585                	add	a1,a1,1
   14cc6:	fff9                	bnez	a5,14ca4 <memcpy+0x6e>
   14cc8:	b761                	j	14c50 <memcpy+0x1a>
   14cca:	8082                	ret
   14ccc:	1141                	add	sp,sp,-16
   14cce:	e422                	sd	s0,8(sp)
   14cd0:	04000413          	li	s0,64
   14cd4:	0005b383          	ld	t2,0(a1)
   14cd8:	0085b283          	ld	t0,8(a1)
   14cdc:	0105bf83          	ld	t6,16(a1)
   14ce0:	0185bf03          	ld	t5,24(a1)
   14ce4:	0205be83          	ld	t4,32(a1)
   14ce8:	0285be03          	ld	t3,40(a1)
   14cec:	0305b303          	ld	t1,48(a1)
   14cf0:	0385b803          	ld	a6,56(a1)
   14cf4:	61b4                	ld	a3,64(a1)
   14cf6:	04870713          	add	a4,a4,72
   14cfa:	40e607b3          	sub	a5,a2,a4
   14cfe:	fa773c23          	sd	t2,-72(a4)
   14d02:	fc573023          	sd	t0,-64(a4)
   14d06:	fdf73423          	sd	t6,-56(a4)
   14d0a:	fde73823          	sd	t5,-48(a4)
   14d0e:	fdd73c23          	sd	t4,-40(a4)
   14d12:	ffc73023          	sd	t3,-32(a4)
   14d16:	fe673423          	sd	t1,-24(a4)
   14d1a:	ff073823          	sd	a6,-16(a4)
   14d1e:	fed73c23          	sd	a3,-8(a4)
   14d22:	04858593          	add	a1,a1,72
   14d26:	faf447e3          	blt	s0,a5,14cd4 <memcpy+0x9e>
   14d2a:	86ae                	mv	a3,a1
   14d2c:	87ba                	mv	a5,a4
   14d2e:	02c77163          	bgeu	a4,a2,14d50 <memcpy+0x11a>
   14d32:	0006b803          	ld	a6,0(a3)
   14d36:	07a1                	add	a5,a5,8
   14d38:	06a1                	add	a3,a3,8
   14d3a:	ff07bc23          	sd	a6,-8(a5)
   14d3e:	fec7eae3          	bltu	a5,a2,14d32 <memcpy+0xfc>
   14d42:	fff60793          	add	a5,a2,-1
   14d46:	8f99                	sub	a5,a5,a4
   14d48:	9be1                	and	a5,a5,-8
   14d4a:	07a1                	add	a5,a5,8
   14d4c:	973e                	add	a4,a4,a5
   14d4e:	95be                	add	a1,a1,a5
   14d50:	01176563          	bltu	a4,a7,14d5a <memcpy+0x124>
   14d54:	6422                	ld	s0,8(sp)
   14d56:	0141                	add	sp,sp,16
   14d58:	8082                	ret
   14d5a:	0005c783          	lbu	a5,0(a1)
   14d5e:	0705                	add	a4,a4,1
   14d60:	0585                	add	a1,a1,1
   14d62:	fef70fa3          	sb	a5,-1(a4)
   14d66:	fee887e3          	beq	a7,a4,14d54 <memcpy+0x11e>
   14d6a:	0005c783          	lbu	a5,0(a1)
   14d6e:	0705                	add	a4,a4,1
   14d70:	0585                	add	a1,a1,1
   14d72:	fef70fa3          	sb	a5,-1(a4)
   14d76:	fee892e3          	bne	a7,a4,14d5a <memcpy+0x124>
   14d7a:	bfe9                	j	14d54 <memcpy+0x11e>

0000000000014d7c <strlen>:
   14d7c:	00757793          	and	a5,a0,7
   14d80:	872a                	mv	a4,a0
   14d82:	e3b5                	bnez	a5,14de6 <strlen+0x6a>
   14d84:	0feff6b7          	lui	a3,0xfeff
   14d88:	0692                	sll	a3,a3,0x4
   14d8a:	eff68693          	add	a3,a3,-257 # fefeeff <__BSS_END__+0xfee33bf>
   14d8e:	06c2                	sll	a3,a3,0x10
   14d90:	eff68693          	add	a3,a3,-257
   14d94:	06be                	sll	a3,a3,0xf
   14d96:	f7f68693          	add	a3,a3,-129
   14d9a:	55fd                	li	a1,-1
   14d9c:	6310                	ld	a2,0(a4)
   14d9e:	0721                	add	a4,a4,8
   14da0:	00d677b3          	and	a5,a2,a3
   14da4:	97b6                	add	a5,a5,a3
   14da6:	8fd1                	or	a5,a5,a2
   14da8:	8fd5                	or	a5,a5,a3
   14daa:	feb789e3          	beq	a5,a1,14d9c <strlen+0x20>
   14dae:	ff874683          	lbu	a3,-8(a4)
   14db2:	40a707b3          	sub	a5,a4,a0
   14db6:	c6a9                	beqz	a3,14e00 <strlen+0x84>
   14db8:	ff974683          	lbu	a3,-7(a4)
   14dbc:	ce9d                	beqz	a3,14dfa <strlen+0x7e>
   14dbe:	ffa74683          	lbu	a3,-6(a4)
   14dc2:	c6a9                	beqz	a3,14e0c <strlen+0x90>
   14dc4:	ffb74683          	lbu	a3,-5(a4)
   14dc8:	ce9d                	beqz	a3,14e06 <strlen+0x8a>
   14dca:	ffc74683          	lbu	a3,-4(a4)
   14dce:	c2b1                	beqz	a3,14e12 <strlen+0x96>
   14dd0:	ffd74683          	lbu	a3,-3(a4)
   14dd4:	c2b1                	beqz	a3,14e18 <strlen+0x9c>
   14dd6:	ffe74503          	lbu	a0,-2(a4)
   14dda:	00a03533          	snez	a0,a0
   14dde:	953e                	add	a0,a0,a5
   14de0:	1579                	add	a0,a0,-2
   14de2:	8082                	ret
   14de4:	d2c5                	beqz	a3,14d84 <strlen+0x8>
   14de6:	00074783          	lbu	a5,0(a4)
   14dea:	0705                	add	a4,a4,1
   14dec:	00777693          	and	a3,a4,7
   14df0:	fbf5                	bnez	a5,14de4 <strlen+0x68>
   14df2:	8f09                	sub	a4,a4,a0
   14df4:	fff70513          	add	a0,a4,-1
   14df8:	8082                	ret
   14dfa:	ff978513          	add	a0,a5,-7
   14dfe:	8082                	ret
   14e00:	ff878513          	add	a0,a5,-8
   14e04:	8082                	ret
   14e06:	ffb78513          	add	a0,a5,-5
   14e0a:	8082                	ret
   14e0c:	ffa78513          	add	a0,a5,-6
   14e10:	8082                	ret
   14e12:	ffc78513          	add	a0,a5,-4
   14e16:	8082                	ret
   14e18:	ffd78513          	add	a0,a5,-3
   14e1c:	8082                	ret

0000000000014e1e <strcmp>:
   14e1e:	00b56733          	or	a4,a0,a1
   14e22:	53fd                	li	t2,-1
   14e24:	8b1d                	and	a4,a4,7
   14e26:	eb4d                	bnez	a4,14ed8 <strcmp+0xba>
   14e28:	00006797          	auipc	a5,0x6
   14e2c:	6c07b783          	ld	a5,1728(a5) # 1b4e8 <__SDATA_BEGIN__>
   14e30:	6110                	ld	a2,0(a0)
   14e32:	6194                	ld	a3,0(a1)
   14e34:	00f672b3          	and	t0,a2,a5
   14e38:	00f66333          	or	t1,a2,a5
   14e3c:	92be                	add	t0,t0,a5
   14e3e:	0062e2b3          	or	t0,t0,t1
   14e42:	0a729963          	bne	t0,t2,14ef4 <strcmp+0xd6>
   14e46:	02d61e63          	bne	a2,a3,14e82 <strcmp+0x64>
   14e4a:	6510                	ld	a2,8(a0)
   14e4c:	6594                	ld	a3,8(a1)
   14e4e:	00f672b3          	and	t0,a2,a5
   14e52:	00f66333          	or	t1,a2,a5
   14e56:	92be                	add	t0,t0,a5
   14e58:	0062e2b3          	or	t0,t0,t1
   14e5c:	08729a63          	bne	t0,t2,14ef0 <strcmp+0xd2>
   14e60:	02d61163          	bne	a2,a3,14e82 <strcmp+0x64>
   14e64:	6910                	ld	a2,16(a0)
   14e66:	6994                	ld	a3,16(a1)
   14e68:	00f672b3          	and	t0,a2,a5
   14e6c:	00f66333          	or	t1,a2,a5
   14e70:	92be                	add	t0,t0,a5
   14e72:	0062e2b3          	or	t0,t0,t1
   14e76:	08729363          	bne	t0,t2,14efc <strcmp+0xde>
   14e7a:	0561                	add	a0,a0,24
   14e7c:	05e1                	add	a1,a1,24
   14e7e:	fad609e3          	beq	a2,a3,14e30 <strcmp+0x12>
   14e82:	03061713          	sll	a4,a2,0x30
   14e86:	03069793          	sll	a5,a3,0x30
   14e8a:	02f71863          	bne	a4,a5,14eba <strcmp+0x9c>
   14e8e:	02061713          	sll	a4,a2,0x20
   14e92:	02069793          	sll	a5,a3,0x20
   14e96:	02f71263          	bne	a4,a5,14eba <strcmp+0x9c>
   14e9a:	01061713          	sll	a4,a2,0x10
   14e9e:	01069793          	sll	a5,a3,0x10
   14ea2:	00f71c63          	bne	a4,a5,14eba <strcmp+0x9c>
   14ea6:	03065713          	srl	a4,a2,0x30
   14eaa:	0306d793          	srl	a5,a3,0x30
   14eae:	40f70533          	sub	a0,a4,a5
   14eb2:	0ff57593          	zext.b	a1,a0
   14eb6:	e991                	bnez	a1,14eca <strcmp+0xac>
   14eb8:	8082                	ret
   14eba:	9341                	srl	a4,a4,0x30
   14ebc:	93c1                	srl	a5,a5,0x30
   14ebe:	40f70533          	sub	a0,a4,a5
   14ec2:	0ff57593          	zext.b	a1,a0
   14ec6:	e191                	bnez	a1,14eca <strcmp+0xac>
   14ec8:	8082                	ret
   14eca:	0ff77713          	zext.b	a4,a4
   14ece:	0ff7f793          	zext.b	a5,a5
   14ed2:	40f70533          	sub	a0,a4,a5
   14ed6:	8082                	ret
   14ed8:	00054603          	lbu	a2,0(a0)
   14edc:	0005c683          	lbu	a3,0(a1)
   14ee0:	0505                	add	a0,a0,1
   14ee2:	0585                	add	a1,a1,1
   14ee4:	00d61363          	bne	a2,a3,14eea <strcmp+0xcc>
   14ee8:	fa65                	bnez	a2,14ed8 <strcmp+0xba>
   14eea:	40d60533          	sub	a0,a2,a3
   14eee:	8082                	ret
   14ef0:	0521                	add	a0,a0,8
   14ef2:	05a1                	add	a1,a1,8
   14ef4:	fed612e3          	bne	a2,a3,14ed8 <strcmp+0xba>
   14ef8:	4501                	li	a0,0
   14efa:	8082                	ret
   14efc:	0541                	add	a0,a0,16
   14efe:	05c1                	add	a1,a1,16
   14f00:	fcd61ce3          	bne	a2,a3,14ed8 <strcmp+0xba>
   14f04:	4501                	li	a0,0
   14f06:	8082                	ret

0000000000014f08 <frexpl>:
   14f08:	7139                	add	sp,sp,-64
   14f0a:	f04a                	sd	s2,32(sp)
   14f0c:	6921                	lui	s2,0x8
   14f0e:	f822                	sd	s0,48(sp)
   14f10:	f426                	sd	s1,40(sp)
   14f12:	e05a                	sd	s6,0(sp)
   14f14:	fc06                	sd	ra,56(sp)
   14f16:	0305d493          	srl	s1,a1,0x30
   14f1a:	197d                	add	s2,s2,-1 # 7fff <exit-0x80e9>
   14f1c:	0124f4b3          	and	s1,s1,s2
   14f20:	00062023          	sw	zero,0(a2)
   14f24:	842e                	mv	s0,a1
   14f26:	8b2a                	mv	s6,a0
   14f28:	05248463          	beq	s1,s2,14f70 <frexpl+0x68>
   14f2c:	e456                	sd	s5,8(sp)
   14f2e:	4681                	li	a3,0
   14f30:	8ab2                	mv	s5,a2
   14f32:	4601                	li	a2,0
   14f34:	ec4e                	sd	s3,24(sp)
   14f36:	e852                	sd	s4,16(sp)
   14f38:	89ae                	mv	s3,a1
   14f3a:	8a2a                	mv	s4,a0
   14f3c:	098030ef          	jal	17fd4 <__eqtf2>
   14f40:	c125                	beqz	a0,14fa0 <frexpl+0x98>
   14f42:	4681                	li	a3,0
   14f44:	cc8d                	beqz	s1,14f7e <frexpl+0x76>
   14f46:	7771                	lui	a4,0xffffc
   14f48:	f80017b7          	lui	a5,0xf8001
   14f4c:	2709                	addw	a4,a4,2 # ffffffffffffc002 <__BSS_END__+0xfffffffffffe04c2>
   14f4e:	1792                	sll	a5,a5,0x24
   14f50:	9cb9                	addw	s1,s1,a4
   14f52:	17fd                	add	a5,a5,-1 # fffffffff8000fff <__BSS_END__+0xfffffffff7fe54bf>
   14f54:	01fff437          	lui	s0,0x1fff
   14f58:	00f9f9b3          	and	s3,s3,a5
   14f5c:	9cb5                	addw	s1,s1,a3
   14f5e:	1416                	sll	s0,s0,0x25
   14f60:	009aa023          	sw	s1,0(s5)
   14f64:	8552                	mv	a0,s4
   14f66:	0089e5b3          	or	a1,s3,s0
   14f6a:	6a42                	ld	s4,16(sp)
   14f6c:	69e2                	ld	s3,24(sp)
   14f6e:	6aa2                	ld	s5,8(sp)
   14f70:	70e2                	ld	ra,56(sp)
   14f72:	7442                	ld	s0,48(sp)
   14f74:	74a2                	ld	s1,40(sp)
   14f76:	7902                	ld	s2,32(sp)
   14f78:	6b02                	ld	s6,0(sp)
   14f7a:	6121                	add	sp,sp,64
   14f7c:	8082                	ret
   14f7e:	040716b7          	lui	a3,0x4071
   14f82:	1692                	sll	a3,a3,0x24
   14f84:	4601                	li	a2,0
   14f86:	855a                	mv	a0,s6
   14f88:	85a2                	mv	a1,s0
   14f8a:	22e030ef          	jal	181b8 <__multf3>
   14f8e:	0305d493          	srl	s1,a1,0x30
   14f92:	89ae                	mv	s3,a1
   14f94:	8a2a                	mv	s4,a0
   14f96:	0124f4b3          	and	s1,s1,s2
   14f9a:	f8e00693          	li	a3,-114
   14f9e:	b765                	j	14f46 <frexpl+0x3e>
   14fa0:	70e2                	ld	ra,56(sp)
   14fa2:	85a2                	mv	a1,s0
   14fa4:	7442                	ld	s0,48(sp)
   14fa6:	69e2                	ld	s3,24(sp)
   14fa8:	6a42                	ld	s4,16(sp)
   14faa:	6aa2                	ld	s5,8(sp)
   14fac:	74a2                	ld	s1,40(sp)
   14fae:	7902                	ld	s2,32(sp)
   14fb0:	855a                	mv	a0,s6
   14fb2:	6b02                	ld	s6,0(sp)
   14fb4:	6121                	add	sp,sp,64
   14fb6:	8082                	ret

0000000000014fb8 <__register_exitproc>:
   14fb8:	2481b783          	ld	a5,584(gp) # 1b588 <__atexit>
   14fbc:	c3b1                	beqz	a5,15000 <__register_exitproc+0x48>
   14fbe:	4798                	lw	a4,8(a5)
   14fc0:	487d                	li	a6,31
   14fc2:	06e84563          	blt	a6,a4,1502c <__register_exitproc+0x74>
   14fc6:	c505                	beqz	a0,14fee <__register_exitproc+0x36>
   14fc8:	00371813          	sll	a6,a4,0x3
   14fcc:	983e                	add	a6,a6,a5
   14fce:	10c83823          	sd	a2,272(a6)
   14fd2:	3107a883          	lw	a7,784(a5)
   14fd6:	4605                	li	a2,1
   14fd8:	00e6163b          	sllw	a2,a2,a4
   14fdc:	00c8e8b3          	or	a7,a7,a2
   14fe0:	3117a823          	sw	a7,784(a5)
   14fe4:	20d83823          	sd	a3,528(a6)
   14fe8:	4689                	li	a3,2
   14fea:	02d50363          	beq	a0,a3,15010 <__register_exitproc+0x58>
   14fee:	00270693          	add	a3,a4,2
   14ff2:	068e                	sll	a3,a3,0x3
   14ff4:	2705                	addw	a4,a4,1
   14ff6:	c798                	sw	a4,8(a5)
   14ff8:	97b6                	add	a5,a5,a3
   14ffa:	e38c                	sd	a1,0(a5)
   14ffc:	4501                	li	a0,0
   14ffe:	8082                	ret
   15000:	67f1                	lui	a5,0x1c
   15002:	82878813          	add	a6,a5,-2008 # 1b828 <__atexit0>
   15006:	2501b423          	sd	a6,584(gp) # 1b588 <__atexit>
   1500a:	82878793          	add	a5,a5,-2008
   1500e:	bf45                	j	14fbe <__register_exitproc+0x6>
   15010:	3147a683          	lw	a3,788(a5)
   15014:	4501                	li	a0,0
   15016:	8ed1                	or	a3,a3,a2
   15018:	30d7aa23          	sw	a3,788(a5)
   1501c:	00270693          	add	a3,a4,2
   15020:	068e                	sll	a3,a3,0x3
   15022:	2705                	addw	a4,a4,1
   15024:	c798                	sw	a4,8(a5)
   15026:	97b6                	add	a5,a5,a3
   15028:	e38c                	sd	a1,0(a5)
   1502a:	8082                	ret
   1502c:	557d                	li	a0,-1
   1502e:	8082                	ret

0000000000015030 <_ldtoa_r>:
   15030:	6365                	lui	t1,0x19
   15032:	65830313          	add	t1,t1,1624 # 19658 <blanks.1+0x10>
   15036:	00033f03          	ld	t5,0(t1)
   1503a:	00833e83          	ld	t4,8(t1)
   1503e:	01032e03          	lw	t3,16(t1)
   15042:	05053303          	ld	t1,80(a0)
   15046:	7171                	add	sp,sp,-176
   15048:	ed26                	sd	s1,152(sp)
   1504a:	e94a                	sd	s2,144(sp)
   1504c:	e152                	sd	s4,128(sp)
   1504e:	f8da                	sd	s6,112(sp)
   15050:	f4de                	sd	s7,104(sp)
   15052:	f0e2                	sd	s8,96(sp)
   15054:	ece6                	sd	s9,88(sp)
   15056:	e8ea                	sd	s10,80(sp)
   15058:	f506                	sd	ra,168(sp)
   1505a:	f122                	sd	s0,160(sp)
   1505c:	e54e                	sd	s3,136(sp)
   1505e:	fcd6                	sd	s5,120(sp)
   15060:	e4ee                	sd	s11,72(sp)
   15062:	f47a                	sd	t5,40(sp)
   15064:	f876                	sd	t4,48(sp)
   15066:	dc72                	sw	t3,56(sp)
   15068:	8b2a                	mv	s6,a0
   1506a:	892e                	mv	s2,a1
   1506c:	84b2                	mv	s1,a2
   1506e:	8c36                	mv	s8,a3
   15070:	8cba                	mv	s9,a4
   15072:	8bbe                	mv	s7,a5
   15074:	8a42                	mv	s4,a6
   15076:	8d46                	mv	s10,a7
   15078:	02030163          	beqz	t1,1509a <_ldtoa_r+0x6a>
   1507c:	4d3c                	lw	a5,88(a0)
   1507e:	4705                	li	a4,1
   15080:	859a                	mv	a1,t1
   15082:	00f7173b          	sllw	a4,a4,a5
   15086:	1782                	sll	a5,a5,0x20
   15088:	1702                	sll	a4,a4,0x20
   1508a:	9381                	srl	a5,a5,0x20
   1508c:	8fd9                	or	a5,a5,a4
   1508e:	00f33423          	sd	a5,8(t1)
   15092:	574010ef          	jal	16606 <_Bfree>
   15096:	040b3823          	sd	zero,80(s6) # ffffffff80000050 <__BSS_END__+0xffffffff7ffe4510>
   1509a:	57d2                	lw	a5,52(sp)
   1509c:	0004a593          	slti	a1,s1,0
   150a0:	00149413          	sll	s0,s1,0x1
   150a4:	4017d71b          	sraw	a4,a5,0x1
   150a8:	0204d993          	srl	s3,s1,0x20
   150ac:	8df9                	and	a1,a1,a4
   150ae:	8005                	srl	s0,s0,0x1
   150b0:	0004a693          	slti	a3,s1,0
   150b4:	00149a93          	sll	s5,s1,0x1
   150b8:	7771                	lui	a4,0xffffc
   150ba:	0109999b          	sllw	s3,s3,0x10
   150be:	8fad                	xor	a5,a5,a1
   150c0:	031ada93          	srl	s5,s5,0x31
   150c4:	f917071b          	addw	a4,a4,-111 # ffffffffffffbf91 <__BSS_END__+0xfffffffffffe0451>
   150c8:	0109d99b          	srlw	s3,s3,0x10
   150cc:	00da2023          	sw	a3,0(s4) # ffffffff80000000 <__BSS_END__+0xffffffff7ffe44c0>
   150d0:	864a                	mv	a2,s2
   150d2:	86a2                	mv	a3,s0
   150d4:	854a                	mv	a0,s2
   150d6:	85a2                	mv	a1,s0
   150d8:	da3e                	sw	a5,52(sp)
   150da:	00ea8dbb          	addw	s11,s5,a4
   150de:	ec4a                	sd	s2,24(sp)
   150e0:	d026                	sw	s1,32(sp)
   150e2:	d24e                	sw	s3,36(sp)
   150e4:	69d030ef          	jal	18f80 <__unordtf2>
   150e8:	e95d                	bnez	a0,1519e <_ldtoa_r+0x16e>
   150ea:	07fffa37          	lui	s4,0x7fff
   150ee:	1a12                	sll	s4,s4,0x24
   150f0:	1a7d                	add	s4,s4,-1 # 7ffefff <__BSS_END__+0x7fe34bf>
   150f2:	567d                	li	a2,-1
   150f4:	86d2                	mv	a3,s4
   150f6:	854a                	mv	a0,s2
   150f8:	85a2                	mv	a1,s0
   150fa:	687030ef          	jal	18f80 <__unordtf2>
   150fe:	ed39                	bnez	a0,1515c <_ldtoa_r+0x12c>
   15100:	567d                	li	a2,-1
   15102:	86d2                	mv	a3,s4
   15104:	854a                	mv	a0,s2
   15106:	85a2                	mv	a1,s0
   15108:	012030ef          	jal	1811a <__letf2>
   1510c:	04a05863          	blez	a0,1515c <_ldtoa_r+0x12c>
   15110:	478d                	li	a5,3
   15112:	ca3e                	sw	a5,20(sp)
   15114:	87e2                	mv	a5,s8
   15116:	0858                	add	a4,sp,20
   15118:	e06a                	sd	s10,0(sp)
   1511a:	88de                	mv	a7,s7
   1511c:	8866                	mv	a6,s9
   1511e:	0834                	add	a3,sp,24
   15120:	866e                	mv	a2,s11
   15122:	102c                	add	a1,sp,40
   15124:	855a                	mv	a0,s6
   15126:	0ee000ef          	jal	15214 <__gdtoa>
   1512a:	000ba703          	lw	a4,0(s7)
   1512e:	77e1                	lui	a5,0xffff8
   15130:	00f71763          	bne	a4,a5,1513e <_ldtoa_r+0x10e>
   15134:	800007b7          	lui	a5,0x80000
   15138:	17fd                	add	a5,a5,-1 # ffffffff7fffffff <__BSS_END__+0xffffffff7ffe44bf>
   1513a:	00fba023          	sw	a5,0(s7)
   1513e:	70aa                	ld	ra,168(sp)
   15140:	740a                	ld	s0,160(sp)
   15142:	64ea                	ld	s1,152(sp)
   15144:	694a                	ld	s2,144(sp)
   15146:	69aa                	ld	s3,136(sp)
   15148:	6a0a                	ld	s4,128(sp)
   1514a:	7ae6                	ld	s5,120(sp)
   1514c:	7b46                	ld	s6,112(sp)
   1514e:	7ba6                	ld	s7,104(sp)
   15150:	7c06                	ld	s8,96(sp)
   15152:	6ce6                	ld	s9,88(sp)
   15154:	6d46                	ld	s10,80(sp)
   15156:	6da6                	ld	s11,72(sp)
   15158:	614d                	add	sp,sp,176
   1515a:	8082                	ret
   1515c:	4685                	li	a3,1
   1515e:	4601                	li	a2,0
   15160:	16c2                	sll	a3,a3,0x30
   15162:	854a                	mv	a0,s2
   15164:	85a2                	mv	a1,s0
   15166:	717020ef          	jal	1807c <__getf2>
   1516a:	00054963          	bltz	a0,1517c <_ldtoa_r+0x14c>
   1516e:	67c1                	lui	a5,0x10
   15170:	00f9e9b3          	or	s3,s3,a5
   15174:	4785                	li	a5,1
   15176:	ca3e                	sw	a5,20(sp)
   15178:	d24e                	sw	s3,36(sp)
   1517a:	bf69                	j	15114 <_ldtoa_r+0xe4>
   1517c:	4601                	li	a2,0
   1517e:	4681                	li	a3,0
   15180:	854a                	mv	a0,s2
   15182:	85a6                	mv	a1,s1
   15184:	651020ef          	jal	17fd4 <__eqtf2>
   15188:	e119                	bnez	a0,1518e <_ldtoa_r+0x15e>
   1518a:	ca02                	sw	zero,20(sp)
   1518c:	b761                	j	15114 <_ldtoa_r+0xe4>
   1518e:	7771                	lui	a4,0xffffc
   15190:	f927071b          	addw	a4,a4,-110 # ffffffffffffbf92 <__BSS_END__+0xfffffffffffe0452>
   15194:	4789                	li	a5,2
   15196:	ca3e                	sw	a5,20(sp)
   15198:	00ea8dbb          	addw	s11,s5,a4
   1519c:	bfa5                	j	15114 <_ldtoa_r+0xe4>
   1519e:	4791                	li	a5,4
   151a0:	ca3e                	sw	a5,20(sp)
   151a2:	bf8d                	j	15114 <_ldtoa_r+0xe4>

00000000000151a4 <_ldcheck>:
   151a4:	7179                	add	sp,sp,-48
   151a6:	ec26                	sd	s1,24(sp)
   151a8:	6504                	ld	s1,8(a0)
   151aa:	e44e                	sd	s3,8(sp)
   151ac:	00053983          	ld	s3,0(a0)
   151b0:	0486                	sll	s1,s1,0x1
   151b2:	8085                	srl	s1,s1,0x1
   151b4:	864e                	mv	a2,s3
   151b6:	86a6                	mv	a3,s1
   151b8:	854e                	mv	a0,s3
   151ba:	85a6                	mv	a1,s1
   151bc:	f406                	sd	ra,40(sp)
   151be:	5c3030ef          	jal	18f80 <__unordtf2>
   151c2:	e139                	bnez	a0,15208 <_ldcheck+0x64>
   151c4:	e84a                	sd	s2,16(sp)
   151c6:	07fff937          	lui	s2,0x7fff
   151ca:	1912                	sll	s2,s2,0x24
   151cc:	197d                	add	s2,s2,-1 # 7ffefff <__BSS_END__+0x7fe34bf>
   151ce:	567d                	li	a2,-1
   151d0:	86ca                	mv	a3,s2
   151d2:	854e                	mv	a0,s3
   151d4:	85a6                	mv	a1,s1
   151d6:	f022                	sd	s0,32(sp)
   151d8:	4405                	li	s0,1
   151da:	5a7030ef          	jal	18f80 <__unordtf2>
   151de:	cd01                	beqz	a0,151f6 <_ldcheck+0x52>
   151e0:	70a2                	ld	ra,40(sp)
   151e2:	00144513          	xor	a0,s0,1
   151e6:	7402                	ld	s0,32(sp)
   151e8:	0506                	sll	a0,a0,0x1
   151ea:	6942                	ld	s2,16(sp)
   151ec:	64e2                	ld	s1,24(sp)
   151ee:	69a2                	ld	s3,8(sp)
   151f0:	8909                	and	a0,a0,2
   151f2:	6145                	add	sp,sp,48
   151f4:	8082                	ret
   151f6:	567d                	li	a2,-1
   151f8:	86ca                	mv	a3,s2
   151fa:	854e                	mv	a0,s3
   151fc:	85a6                	mv	a1,s1
   151fe:	71d020ef          	jal	1811a <__letf2>
   15202:	00152413          	slti	s0,a0,1
   15206:	bfe9                	j	151e0 <_ldcheck+0x3c>
   15208:	70a2                	ld	ra,40(sp)
   1520a:	64e2                	ld	s1,24(sp)
   1520c:	69a2                	ld	s3,8(sp)
   1520e:	4505                	li	a0,1
   15210:	6145                	add	sp,sp,48
   15212:	8082                	ret

0000000000015214 <__gdtoa>:
   15214:	7111                	add	sp,sp,-256
   15216:	f566                	sd	s9,168(sp)
   15218:	00072c83          	lw	s9,0(a4)
   1521c:	f5a6                	sd	s1,232(sp)
   1521e:	e9d2                	sd	s4,208(sp)
   15220:	fcfcf313          	and	t1,s9,-49
   15224:	fd86                	sd	ra,248(sp)
   15226:	00672023          	sw	t1,0(a4)
   1522a:	8a3a                	mv	s4,a4
   1522c:	6712                	ld	a4,256(sp)
   1522e:	00fcf313          	and	t1,s9,15
   15232:	4e0d                	li	t3,3
   15234:	e43a                	sd	a4,8(sp)
   15236:	e832                	sd	a2,16(sp)
   15238:	84c6                	mv	s1,a7
   1523a:	53c30763          	beq	t1,t3,15768 <__gdtoa+0x554>
   1523e:	edce                	sd	s3,216(sp)
   15240:	00ccf993          	and	s3,s9,12
   15244:	4c099063          	bnez	s3,15704 <__gdtoa+0x4f0>
   15248:	f9a2                	sd	s0,240(sp)
   1524a:	842a                	mv	s0,a0
   1524c:	4e030a63          	beqz	t1,15740 <__gdtoa+0x52c>
   15250:	f16a                	sd	s10,160(sp)
   15252:	0005ad03          	lw	s10,0(a1)
   15256:	f1ca                	sd	s2,224(sp)
   15258:	e1da                	sd	s6,192(sp)
   1525a:	fd5e                	sd	s7,184(sp)
   1525c:	ed6e                	sd	s11,152(sp)
   1525e:	f962                	sd	s8,176(sp)
   15260:	8db6                	mv	s11,a3
   15262:	02000693          	li	a3,32
   15266:	8b2e                	mv	s6,a1
   15268:	893e                	mv	s2,a5
   1526a:	8bc2                	mv	s7,a6
   1526c:	4581                	li	a1,0
   1526e:	02000793          	li	a5,32
   15272:	01a6d763          	bge	a3,s10,15280 <__gdtoa+0x6c>
   15276:	0017979b          	sllw	a5,a5,0x1
   1527a:	2585                	addw	a1,a1,1
   1527c:	ffa7cde3          	blt	a5,s10,15276 <__gdtoa+0x62>
   15280:	8522                	mv	a0,s0
   15282:	320010ef          	jal	165a2 <_Balloc>
   15286:	8c2a                	mv	s8,a0
   15288:	6c050a63          	beqz	a0,1595c <__gdtoa+0x748>
   1528c:	fffd051b          	addw	a0,s10,-1
   15290:	4055551b          	sraw	a0,a0,0x5
   15294:	00251593          	sll	a1,a0,0x2
   15298:	e5d6                	sd	s5,200(sp)
   1529a:	95ee                	add	a1,a1,s11
   1529c:	018c0693          	add	a3,s8,24
   152a0:	87ee                	mv	a5,s11
   152a2:	4398                	lw	a4,0(a5)
   152a4:	0791                	add	a5,a5,4 # 10004 <exit-0xe4>
   152a6:	0691                	add	a3,a3,4 # 4071004 <__BSS_END__+0x40554c4>
   152a8:	fee6ae23          	sw	a4,-4(a3)
   152ac:	fef5fbe3          	bgeu	a1,a5,152a2 <__gdtoa+0x8e>
   152b0:	0585                	add	a1,a1,1
   152b2:	001d8793          	add	a5,s11,1
   152b6:	4691                	li	a3,4
   152b8:	00f5e563          	bltu	a1,a5,152c2 <__gdtoa+0xae>
   152bc:	050a                	sll	a0,a0,0x2
   152be:	00450693          	add	a3,a0,4
   152c2:	4026d793          	sra	a5,a3,0x2
   152c6:	2781                	sext.w	a5,a5
   152c8:	96e2                	add	a3,a3,s8
   152ca:	a021                	j	152d2 <__gdtoa+0xbe>
   152cc:	16f1                	add	a3,a3,-4
   152ce:	4e078163          	beqz	a5,157b0 <__gdtoa+0x59c>
   152d2:	4ad8                	lw	a4,20(a3)
   152d4:	8abe                	mv	s5,a5
   152d6:	37fd                	addw	a5,a5,-1
   152d8:	db75                	beqz	a4,152cc <__gdtoa+0xb8>
   152da:	0791                	add	a5,a5,4
   152dc:	078a                	sll	a5,a5,0x2
   152de:	97e2                	add	a5,a5,s8
   152e0:	4788                	lw	a0,8(a5)
   152e2:	015c2a23          	sw	s5,20(s8)
   152e6:	005a9a9b          	sllw	s5,s5,0x5
   152ea:	4fa010ef          	jal	167e4 <__hi0bits>
   152ee:	40aa87bb          	subw	a5,s5,a0
   152f2:	8562                	mv	a0,s8
   152f4:	ec3e                	sd	a5,24(sp)
   152f6:	22a010ef          	jal	16520 <__trailz_D2A>
   152fa:	c72a                	sw	a0,140(sp)
   152fc:	6642                	ld	a2,16(sp)
   152fe:	67e2                	ld	a5,24(sp)
   15300:	4c051c63          	bnez	a0,157d8 <__gdtoa+0x5c4>
   15304:	014c2683          	lw	a3,20(s8)
   15308:	42068163          	beqz	a3,1572a <__gdtoa+0x516>
   1530c:	016c                	add	a1,sp,140
   1530e:	8562                	mv	a0,s8
   15310:	f03e                	sd	a5,32(sp)
   15312:	ec32                	sd	a2,24(sp)
   15314:	437010ef          	jal	16f4a <__b2d>
   15318:	e2050553          	fmv.x.d	a0,fa0
   1531c:	3ff00337          	lui	t1,0x3ff00
   15320:	56fd                	li	a3,-1
   15322:	00c51593          	sll	a1,a0,0xc
   15326:	91b1                	srl	a1,a1,0x2c
   15328:	0065e8b3          	or	a7,a1,t1
   1532c:	9281                	srl	a3,a3,0x20
   1532e:	1882                	sll	a7,a7,0x20
   15330:	8ee9                	and	a3,a3,a0
   15332:	0116e6b3          	or	a3,a3,a7
   15336:	1b01b707          	fld	fa4,432(gp) # 1b4f0 <__SDATA_BEGIN__+0x8>
   1533a:	f20687d3          	fmv.d.x	fa5,a3
   1533e:	1b81b687          	fld	fa3,440(gp) # 1b4f8 <__SDATA_BEGIN__+0x10>
   15342:	0ae7f753          	fsub.d	fa4,fa5,fa4
   15346:	1c01b787          	fld	fa5,448(gp) # 1b500 <__SDATA_BEGIN__+0x18>
   1534a:	6662                	ld	a2,24(sp)
   1534c:	7782                	ld	a5,32(sp)
   1534e:	0065eeb3          	or	t4,a1,t1
   15352:	7ad77743          	fmadd.d	fa4,fa4,fa3,fa5
   15356:	00f60abb          	addw	s5,a2,a5
   1535a:	fffa889b          	addw	a7,s5,-1
   1535e:	d20887d3          	fcvt.d.w	fa5,a7
   15362:	1c81b687          	fld	fa3,456(gp) # 1b508 <__SDATA_BEGIN__+0x20>
   15366:	0008851b          	sext.w	a0,a7
   1536a:	72d7f7c3          	fmadd.d	fa5,fa5,fa3,fa4
   1536e:	00055563          	bgez	a0,15378 <__gdtoa+0x164>
   15372:	4505                	li	a0,1
   15374:	4155053b          	subw	a0,a0,s5
   15378:	bcb5031b          	addw	t1,a0,-1077
   1537c:	00605863          	blez	t1,1538c <__gdtoa+0x178>
   15380:	d20306d3          	fcvt.d.w	fa3,t1
   15384:	1d01b707          	fld	fa4,464(gp) # 1b510 <__SDATA_BEGIN__+0x28>
   15388:	7ae6f7c3          	fmadd.d	fa5,fa3,fa4,fa5
   1538c:	f2000753          	fmv.d.x	fa4,zero
   15390:	c2079553          	fcvt.w.d	a0,fa5,rtz
   15394:	a2e79e53          	flt.d	t3,fa5,fa4
   15398:	0005031b          	sext.w	t1,a0
   1539c:	6e0e1a63          	bnez	t3,15a90 <__gdtoa+0x87c>
   153a0:	0148959b          	sllw	a1,a7,0x14
   153a4:	01d585bb          	addw	a1,a1,t4
   153a8:	1682                	sll	a3,a3,0x20
   153aa:	41178f3b          	subw	t5,a5,a7
   153ae:	1582                	sll	a1,a1,0x20
   153b0:	9281                	srl	a3,a3,0x20
   153b2:	0003051b          	sext.w	a0,t1
   153b6:	4ed9                	li	t4,22
   153b8:	88fa                	mv	a7,t5
   153ba:	8ecd                	or	a3,a3,a1
   153bc:	ffff0e1b          	addw	t3,t5,-1
   153c0:	3eaeeb63          	bltu	t4,a0,157b6 <__gdtoa+0x5a2>
   153c4:	65e5                	lui	a1,0x19
   153c6:	6d058593          	add	a1,a1,1744 # 196d0 <__mprec_tens>
   153ca:	00331513          	sll	a0,t1,0x3
   153ce:	95aa                	add	a1,a1,a0
   153d0:	219c                	fld	fa5,0(a1)
   153d2:	f2068753          	fmv.d.x	fa4,a3
   153d6:	a2f715d3          	flt.d	a1,fa4,fa5
   153da:	5c059063          	bnez	a1,1599a <__gdtoa+0x786>
   153de:	f882                	sd	zero,112(sp)
   153e0:	ec02                	sd	zero,24(sp)
   153e2:	01e04763          	bgtz	t5,153f0 <__gdtoa+0x1dc>
   153e6:	4585                	li	a1,1
   153e8:	41e5873b          	subw	a4,a1,t5
   153ec:	ec3a                	sd	a4,24(sp)
   153ee:	4e01                	li	t3,0
   153f0:	01c30e3b          	addw	t3,t1,t3
   153f4:	fc1a                	sd	t1,56(sp)
   153f6:	f802                	sd	zero,48(sp)
   153f8:	45a5                	li	a1,9
   153fa:	3f25ea63          	bltu	a1,s2,157ee <__gdtoa+0x5da>
   153fe:	4595                	li	a1,5
   15400:	5925c063          	blt	a1,s2,15980 <__gdtoa+0x76c>
   15404:	3fda8a9b          	addw	s5,s5,1021
   15408:	4511                	li	a0,4
   1540a:	7f8aba93          	sltiu	s5,s5,2040
   1540e:	22a904e3          	beq	s2,a0,15e36 <__gdtoa+0xc22>
   15412:	20b90ee3          	beq	s2,a1,15e2e <__gdtoa+0xc1a>
   15416:	4589                	li	a1,2
   15418:	22b902e3          	beq	s2,a1,15e3c <__gdtoa+0xc28>
   1541c:	458d                	li	a1,3
   1541e:	e082                	sd	zero,64(sp)
   15420:	3cb91c63          	bne	s2,a1,157f8 <__gdtoa+0x5e4>
   15424:	7762                	ld	a4,56(sp)
   15426:	017705bb          	addw	a1,a4,s7
   1542a:	0015871b          	addw	a4,a1,1
   1542e:	f43a                	sd	a4,40(sp)
   15430:	fcae                	sd	a1,120(sp)
   15432:	04e053e3          	blez	a4,15c78 <__gdtoa+0xa64>
   15436:	88ba                	mv	a7,a4
   15438:	85ba                	mv	a1,a4
   1543a:	8522                	mv	a0,s0
   1543c:	f4b6                	sd	a3,104(sp)
   1543e:	f0be                	sd	a5,96(sp)
   15440:	ecf2                	sd	t3,88(sp)
   15442:	e89a                	sd	t1,80(sp)
   15444:	e4b2                	sd	a2,72(sp)
   15446:	c746                	sw	a7,140(sp)
   15448:	60d000ef          	jal	16254 <__rv_alloc_D2A>
   1544c:	882a                	mv	a6,a0
   1544e:	34050763          	beqz	a0,1579c <__gdtoa+0x588>
   15452:	00cb2703          	lw	a4,12(s6)
   15456:	6626                	ld	a2,72(sp)
   15458:	6346                	ld	t1,80(sp)
   1545a:	377d                	addw	a4,a4,-1
   1545c:	f03a                	sd	a4,32(sp)
   1545e:	6e66                	ld	t3,88(sp)
   15460:	7786                	ld	a5,96(sp)
   15462:	76a6                	ld	a3,104(sp)
   15464:	3c070063          	beqz	a4,15824 <__gdtoa+0x610>
   15468:	50074963          	bltz	a4,1597a <__gdtoa+0x766>
   1546c:	100cfc93          	and	s9,s9,256
   15470:	3a0c9563          	bnez	s9,1581a <__gdtoa+0x606>
   15474:	00064663          	bltz	a2,15480 <__gdtoa+0x26c>
   15478:	7762                	ld	a4,56(sp)
   1547a:	45b9                	li	a1,14
   1547c:	52e5d263          	bge	a1,a4,159a0 <__gdtoa+0x78c>
   15480:	6706                	ld	a4,64(sp)
   15482:	4e070863          	beqz	a4,15972 <__gdtoa+0x75e>
   15486:	40fd0d3b          	subw	s10,s10,a5
   1548a:	004b2683          	lw	a3,4(s6)
   1548e:	001d059b          	addw	a1,s10,1
   15492:	c72e                	sw	a1,140(sp)
   15494:	41a60d3b          	subw	s10,a2,s10
   15498:	02dd53e3          	bge	s10,a3,15cbe <__gdtoa+0xaaa>
   1549c:	ffd9059b          	addw	a1,s2,-3
   154a0:	99f5                	and	a1,a1,-3
   154a2:	2581                	sext.w	a1,a1
   154a4:	74058d63          	beqz	a1,15bfe <__gdtoa+0x9ea>
   154a8:	40d606bb          	subw	a3,a2,a3
   154ac:	0016859b          	addw	a1,a3,1
   154b0:	c72e                	sw	a1,140(sp)
   154b2:	4605                	li	a2,1
   154b4:	86ae                	mv	a3,a1
   154b6:	01265863          	bge	a2,s2,154c6 <__gdtoa+0x2b2>
   154ba:	7722                	ld	a4,40(sp)
   154bc:	00e05563          	blez	a4,154c6 <__gdtoa+0x2b2>
   154c0:	7722                	ld	a4,40(sp)
   154c2:	44b74ce3          	blt	a4,a1,1611a <__gdtoa+0xf06>
   154c6:	6762                	ld	a4,24(sp)
   154c8:	7d42                	ld	s10,48(sp)
   154ca:	01c68e3b          	addw	t3,a3,t3
   154ce:	8cba                	mv	s9,a4
   154d0:	9f35                	addw	a4,a4,a3
   154d2:	ec3a                	sd	a4,24(sp)
   154d4:	4585                	li	a1,1
   154d6:	8522                	mv	a0,s0
   154d8:	f0c2                	sd	a6,96(sp)
   154da:	ecbe                	sd	a5,88(sp)
   154dc:	e8f2                	sd	t3,80(sp)
   154de:	e49a                	sd	t1,72(sp)
   154e0:	3fa010ef          	jal	168da <__i2b>
   154e4:	6326                	ld	t1,72(sp)
   154e6:	6e46                	ld	t3,80(sp)
   154e8:	67e6                	ld	a5,88(sp)
   154ea:	7806                	ld	a6,96(sp)
   154ec:	8aaa                	mv	s5,a0
   154ee:	2a050763          	beqz	a0,1579c <__gdtoa+0x588>
   154f2:	020c8063          	beqz	s9,15512 <__gdtoa+0x2fe>
   154f6:	01c05e63          	blez	t3,15512 <__gdtoa+0x2fe>
   154fa:	86e6                	mv	a3,s9
   154fc:	019e5363          	bge	t3,s9,15502 <__gdtoa+0x2ee>
   15500:	86f2                	mv	a3,t3
   15502:	6762                	ld	a4,24(sp)
   15504:	c736                	sw	a3,140(sp)
   15506:	40dc8cbb          	subw	s9,s9,a3
   1550a:	9f15                	subw	a4,a4,a3
   1550c:	ec3a                	sd	a4,24(sp)
   1550e:	40de0e3b          	subw	t3,t3,a3
   15512:	7742                	ld	a4,48(sp)
   15514:	c70d                	beqz	a4,1553e <__gdtoa+0x32a>
   15516:	6706                	ld	a4,64(sp)
   15518:	c319                	beqz	a4,1551e <__gdtoa+0x30a>
   1551a:	060d18e3          	bnez	s10,15d8a <__gdtoa+0xb76>
   1551e:	7642                	ld	a2,48(sp)
   15520:	85e2                	mv	a1,s8
   15522:	8522                	mv	a0,s0
   15524:	f0c2                	sd	a6,96(sp)
   15526:	ecbe                	sd	a5,88(sp)
   15528:	e8f2                	sd	t3,80(sp)
   1552a:	e49a                	sd	t1,72(sp)
   1552c:	5be010ef          	jal	16aea <__pow5mult>
   15530:	6326                	ld	t1,72(sp)
   15532:	6e46                	ld	t3,80(sp)
   15534:	67e6                	ld	a5,88(sp)
   15536:	7806                	ld	a6,96(sp)
   15538:	8c2a                	mv	s8,a0
   1553a:	26050163          	beqz	a0,1579c <__gdtoa+0x588>
   1553e:	4585                	li	a1,1
   15540:	8522                	mv	a0,s0
   15542:	ecc2                	sd	a6,88(sp)
   15544:	e8be                	sd	a5,80(sp)
   15546:	e4f2                	sd	t3,72(sp)
   15548:	f81a                	sd	t1,48(sp)
   1554a:	390010ef          	jal	168da <__i2b>
   1554e:	8d2a                	mv	s10,a0
   15550:	24050663          	beqz	a0,1579c <__gdtoa+0x588>
   15554:	7342                	ld	t1,48(sp)
   15556:	6e26                	ld	t3,72(sp)
   15558:	67c6                	ld	a5,80(sp)
   1555a:	6866                	ld	a6,88(sp)
   1555c:	72031263          	bnez	t1,15c80 <__gdtoa+0xa6c>
   15560:	4685                	li	a3,1
   15562:	5126d963          	bge	a3,s2,15a74 <__gdtoa+0x860>
   15566:	457d                	li	a0,31
   15568:	67e2                	ld	a5,24(sp)
   1556a:	41c509bb          	subw	s3,a0,t3
   1556e:	39f1                	addw	s3,s3,-4
   15570:	01f9f993          	and	s3,s3,31
   15574:	00f9863b          	addw	a2,s3,a5
   15578:	c74e                	sw	s3,140(sp)
   1557a:	87ce                	mv	a5,s3
   1557c:	5ac04963          	bgtz	a2,15b2e <__gdtoa+0x91a>
   15580:	00fe063b          	addw	a2,t3,a5
   15584:	20c04163          	bgtz	a2,15786 <__gdtoa+0x572>
   15588:	77c6                	ld	a5,112(sp)
   1558a:	5c079163          	bnez	a5,15b4c <__gdtoa+0x938>
   1558e:	77a2                	ld	a5,40(sp)
   15590:	68f05763          	blez	a5,15c1e <__gdtoa+0xa0a>
   15594:	6786                	ld	a5,64(sp)
   15596:	5e078963          	beqz	a5,15b88 <__gdtoa+0x974>
   1559a:	0199863b          	addw	a2,s3,s9
   1559e:	06c047e3          	bgtz	a2,15e0c <__gdtoa+0xbf8>
   155a2:	ec56                	sd	s5,24(sp)
   155a4:	0a031de3          	bnez	t1,15e5e <__gdtoa+0xc4a>
   155a8:	e86e                	sd	s11,16(sp)
   155aa:	e0a6                	sd	s1,64(sp)
   155ac:	7da2                	ld	s11,40(sp)
   155ae:	64e2                	ld	s1,24(sp)
   155b0:	8bc2                	mv	s7,a6
   155b2:	4685                	li	a3,1
   155b4:	f842                	sd	a6,48(sp)
   155b6:	f452                	sd	s4,40(sp)
   155b8:	a88d                	j	1562a <__gdtoa+0x416>
   155ba:	8522                	mv	a0,s0
   155bc:	04a010ef          	jal	16606 <_Bfree>
   155c0:	120b44e3          	bltz	s6,15ee8 <__gdtoa+0xcd4>
   155c4:	01696b33          	or	s6,s2,s6
   155c8:	2b01                	sext.w	s6,s6
   155ca:	000b1763          	bnez	s6,155d8 <__gdtoa+0x3c4>
   155ce:	67c2                	ld	a5,16(sp)
   155d0:	439c                	lw	a5,0(a5)
   155d2:	8b85                	and	a5,a5,1
   155d4:	10078ae3          	beqz	a5,15ee8 <__gdtoa+0xcd4>
   155d8:	7782                	ld	a5,32(sp)
   155da:	4709                	li	a4,2
   155dc:	2ae79ce3          	bne	a5,a4,16094 <__gdtoa+0xe80>
   155e0:	014b8023          	sb	s4,0(s7)
   155e4:	47ba                	lw	a5,140(sp)
   155e6:	0b85                	add	s7,s7,1
   155e8:	23b780e3          	beq	a5,s11,16008 <__gdtoa+0xdf4>
   155ec:	85e2                	mv	a1,s8
   155ee:	4681                	li	a3,0
   155f0:	4629                	li	a2,10
   155f2:	8522                	mv	a0,s0
   155f4:	024010ef          	jal	16618 <__multadd>
   155f8:	8c2a                	mv	s8,a0
   155fa:	1a050163          	beqz	a0,1579c <__gdtoa+0x588>
   155fe:	4681                	li	a3,0
   15600:	4629                	li	a2,10
   15602:	85d6                	mv	a1,s5
   15604:	8522                	mv	a0,s0
   15606:	4a9a8b63          	beq	s5,s1,15abc <__gdtoa+0x8a8>
   1560a:	00e010ef          	jal	16618 <__multadd>
   1560e:	8aaa                	mv	s5,a0
   15610:	18050663          	beqz	a0,1579c <__gdtoa+0x588>
   15614:	85a6                	mv	a1,s1
   15616:	4681                	li	a3,0
   15618:	4629                	li	a2,10
   1561a:	8522                	mv	a0,s0
   1561c:	7fd000ef          	jal	16618 <__multadd>
   15620:	84aa                	mv	s1,a0
   15622:	16050d63          	beqz	a0,1579c <__gdtoa+0x588>
   15626:	46ba                	lw	a3,140(sp)
   15628:	2685                	addw	a3,a3,1
   1562a:	85ea                	mv	a1,s10
   1562c:	8562                	mv	a0,s8
   1562e:	c736                	sw	a3,140(sp)
   15630:	4e1000ef          	jal	16310 <__quorem_D2A>
   15634:	03050a1b          	addw	s4,a0,48
   15638:	85d6                	mv	a1,s5
   1563a:	8caa                	mv	s9,a0
   1563c:	8562                	mv	a0,s8
   1563e:	6a4010ef          	jal	16ce2 <__mcmp>
   15642:	85ea                	mv	a1,s10
   15644:	8b2a                	mv	s6,a0
   15646:	8626                	mv	a2,s1
   15648:	8522                	mv	a0,s0
   1564a:	6d0010ef          	jal	16d1a <__mdiff>
   1564e:	89d2                	mv	s3,s4
   15650:	85aa                	mv	a1,a0
   15652:	14050563          	beqz	a0,1579c <__gdtoa+0x588>
   15656:	491c                	lw	a5,16(a0)
   15658:	f3ad                	bnez	a5,155ba <__gdtoa+0x3a6>
   1565a:	ec2a                	sd	a0,24(sp)
   1565c:	8562                	mv	a0,s8
   1565e:	684010ef          	jal	16ce2 <__mcmp>
   15662:	65e2                	ld	a1,24(sp)
   15664:	86aa                	mv	a3,a0
   15666:	8522                	mv	a0,s0
   15668:	ec36                	sd	a3,24(sp)
   1566a:	79d000ef          	jal	16606 <_Bfree>
   1566e:	66e2                	ld	a3,24(sp)
   15670:	00d96733          	or	a4,s2,a3
   15674:	2701                	sext.w	a4,a4
   15676:	380718e3          	bnez	a4,16206 <__gdtoa+0xff2>
   1567a:	67c2                	ld	a5,16(sp)
   1567c:	439c                	lw	a5,0(a5)
   1567e:	8b85                	and	a5,a5,1
   15680:	44079563          	bnez	a5,15aca <__gdtoa+0x8b6>
   15684:	7782                	ld	a5,32(sp)
   15686:	2a078ce3          	beqz	a5,1613e <__gdtoa+0xf2a>
   1568a:	f5604be3          	bgtz	s6,155e0 <__gdtoa+0x3cc>
   1568e:	014c2603          	lw	a2,20(s8)
   15692:	ec26                	sd	s1,24(sp)
   15694:	4685                	li	a3,1
   15696:	8352                	mv	t1,s4
   15698:	7842                	ld	a6,48(sp)
   1569a:	7a22                	ld	s4,40(sp)
   1569c:	6486                	ld	s1,64(sp)
   1569e:	89ba                	mv	s3,a4
   156a0:	34c6d0e3          	bge	a3,a2,161e0 <__gdtoa+0xfcc>
   156a4:	7782                	ld	a5,32(sp)
   156a6:	4689                	li	a3,2
   156a8:	30d78fe3          	beq	a5,a3,161c6 <__gdtoa+0xfb2>
   156ac:	6b62                	ld	s6,24(sp)
   156ae:	899a                	mv	s3,t1
   156b0:	8dc2                	mv	s11,a6
   156b2:	a829                	j	156cc <__gdtoa+0x4b8>
   156b4:	765000ef          	jal	16618 <__multadd>
   156b8:	85ea                	mv	a1,s10
   156ba:	8c2a                	mv	s8,a0
   156bc:	0e050063          	beqz	a0,1579c <__gdtoa+0x588>
   156c0:	451000ef          	jal	16310 <__quorem_D2A>
   156c4:	0305099b          	addw	s3,a0,48
   156c8:	8be6                	mv	s7,s9
   156ca:	8b4a                	mv	s6,s2
   156cc:	85da                	mv	a1,s6
   156ce:	856a                	mv	a0,s10
   156d0:	612010ef          	jal	16ce2 <__mcmp>
   156d4:	87aa                	mv	a5,a0
   156d6:	4681                	li	a3,0
   156d8:	4629                	li	a2,10
   156da:	85da                	mv	a1,s6
   156dc:	8522                	mv	a0,s0
   156de:	001b8c93          	add	s9,s7,1
   156e2:	2cf057e3          	blez	a5,161b0 <__gdtoa+0xf9c>
   156e6:	ff3c8fa3          	sb	s3,-1(s9)
   156ea:	72f000ef          	jal	16618 <__multadd>
   156ee:	892a                	mv	s2,a0
   156f0:	4681                	li	a3,0
   156f2:	4629                	li	a2,10
   156f4:	85e2                	mv	a1,s8
   156f6:	8522                	mv	a0,s0
   156f8:	0a090263          	beqz	s2,1579c <__gdtoa+0x588>
   156fc:	fb6a9ce3          	bne	s5,s6,156b4 <__gdtoa+0x4a0>
   15700:	8aca                	mv	s5,s2
   15702:	bf4d                	j	156b4 <__gdtoa+0x4a0>
   15704:	4791                	li	a5,4
   15706:	0af31363          	bne	t1,a5,157ac <__gdtoa+0x598>
   1570a:	6622                	ld	a2,8(sp)
   1570c:	69ee                	ld	s3,216(sp)
   1570e:	70ee                	ld	ra,248(sp)
   15710:	74ae                	ld	s1,232(sp)
   15712:	6a4e                	ld	s4,208(sp)
   15714:	7caa                	ld	s9,168(sp)
   15716:	77e1                	lui	a5,0xffff8
   15718:	00f8a023          	sw	a5,0(a7)
   1571c:	65e5                	lui	a1,0x19
   1571e:	468d                	li	a3,3
   15720:	29058593          	add	a1,a1,656 # 19290 <__clzdi2+0xee>
   15724:	6111                	add	sp,sp,256
   15726:	3610006f          	j	16286 <__nrv_alloc_D2A>
   1572a:	85e2                	mv	a1,s8
   1572c:	8522                	mv	a0,s0
   1572e:	6d9000ef          	jal	16606 <_Bfree>
   15732:	790e                	ld	s2,224(sp)
   15734:	6aae                	ld	s5,200(sp)
   15736:	6b0e                	ld	s6,192(sp)
   15738:	7bea                	ld	s7,184(sp)
   1573a:	7c4a                	ld	s8,176(sp)
   1573c:	7d0a                	ld	s10,160(sp)
   1573e:	6dea                	ld	s11,152(sp)
   15740:	6622                	ld	a2,8(sp)
   15742:	4785                	li	a5,1
   15744:	65e5                	lui	a1,0x19
   15746:	8522                	mv	a0,s0
   15748:	c09c                	sw	a5,0(s1)
   1574a:	4685                	li	a3,1
   1574c:	26058593          	add	a1,a1,608 # 19260 <__clzdi2+0xbe>
   15750:	337000ef          	jal	16286 <__nrv_alloc_D2A>
   15754:	744e                	ld	s0,240(sp)
   15756:	882a                	mv	a6,a0
   15758:	70ee                	ld	ra,248(sp)
   1575a:	69ee                	ld	s3,216(sp)
   1575c:	74ae                	ld	s1,232(sp)
   1575e:	6a4e                	ld	s4,208(sp)
   15760:	7caa                	ld	s9,168(sp)
   15762:	8542                	mv	a0,a6
   15764:	6111                	add	sp,sp,256
   15766:	8082                	ret
   15768:	6622                	ld	a2,8(sp)
   1576a:	70ee                	ld	ra,248(sp)
   1576c:	74ae                	ld	s1,232(sp)
   1576e:	6a4e                	ld	s4,208(sp)
   15770:	7caa                	ld	s9,168(sp)
   15772:	77e1                	lui	a5,0xffff8
   15774:	00f8a023          	sw	a5,0(a7)
   15778:	65e5                	lui	a1,0x19
   1577a:	46a1                	li	a3,8
   1577c:	28058593          	add	a1,a1,640 # 19280 <__clzdi2+0xde>
   15780:	6111                	add	sp,sp,256
   15782:	3050006f          	j	16286 <__nrv_alloc_D2A>
   15786:	85ea                	mv	a1,s10
   15788:	8522                	mv	a0,s0
   1578a:	ec42                	sd	a6,24(sp)
   1578c:	e81a                	sd	t1,16(sp)
   1578e:	430010ef          	jal	16bbe <__lshift>
   15792:	6342                	ld	t1,16(sp)
   15794:	6862                	ld	a6,24(sp)
   15796:	8d2a                	mv	s10,a0
   15798:	de0518e3          	bnez	a0,15588 <__gdtoa+0x374>
   1579c:	744e                	ld	s0,240(sp)
   1579e:	790e                	ld	s2,224(sp)
   157a0:	6aae                	ld	s5,200(sp)
   157a2:	6b0e                	ld	s6,192(sp)
   157a4:	7bea                	ld	s7,184(sp)
   157a6:	7c4a                	ld	s8,176(sp)
   157a8:	7d0a                	ld	s10,160(sp)
   157aa:	6dea                	ld	s11,152(sp)
   157ac:	4801                	li	a6,0
   157ae:	b76d                	j	15758 <__gdtoa+0x544>
   157b0:	000c2a23          	sw	zero,20(s8)
   157b4:	be3d                	j	152f2 <__gdtoa+0xde>
   157b6:	4705                	li	a4,1
   157b8:	f8ba                	sd	a4,112(sp)
   157ba:	ec02                	sd	zero,24(sp)
   157bc:	1a0e4363          	bltz	t3,15962 <__gdtoa+0x74e>
   157c0:	c20358e3          	bgez	t1,153f0 <__gdtoa+0x1dc>
   157c4:	6762                	ld	a4,24(sp)
   157c6:	fc1a                	sd	t1,56(sp)
   157c8:	4067073b          	subw	a4,a4,t1
   157cc:	ec3a                	sd	a4,24(sp)
   157ce:	4060073b          	negw	a4,t1
   157d2:	f83a                	sd	a4,48(sp)
   157d4:	4301                	li	t1,0
   157d6:	b10d                	j	153f8 <__gdtoa+0x1e4>
   157d8:	85aa                	mv	a1,a0
   157da:	8562                	mv	a0,s8
   157dc:	4a5000ef          	jal	16480 <__rshift_D2A>
   157e0:	46ba                	lw	a3,140(sp)
   157e2:	67c2                	ld	a5,16(sp)
   157e4:	00f6863b          	addw	a2,a3,a5
   157e8:	67e2                	ld	a5,24(sp)
   157ea:	9f95                	subw	a5,a5,a3
   157ec:	be21                	j	15304 <__gdtoa+0xf0>
   157ee:	3fda8a9b          	addw	s5,s5,1021
   157f2:	7f8aba93          	sltiu	s5,s5,2040
   157f6:	4901                	li	s2,0
   157f8:	1d81b707          	fld	fa4,472(gp) # 1b518 <__SDATA_BEGIN__+0x30>
   157fc:	d20d07d3          	fcvt.d.w	fa5,s10
   15800:	4705                	li	a4,1
   15802:	e0ba                	sd	a4,64(sp)
   15804:	12e7f7d3          	fmul.d	fa5,fa5,fa4
   15808:	577d                	li	a4,-1
   1580a:	4b81                	li	s7,0
   1580c:	fcba                	sd	a4,120(sp)
   1580e:	f43a                	sd	a4,40(sp)
   15810:	c20795d3          	fcvt.w.d	a1,fa5,rtz
   15814:	258d                	addw	a1,a1,3
   15816:	88ae                	mv	a7,a1
   15818:	b10d                	j	1543a <__gdtoa+0x226>
   1581a:	7702                	ld	a4,32(sp)
   1581c:	458d                	li	a1,3
   1581e:	40e5873b          	subw	a4,a1,a4
   15822:	f03a                	sd	a4,32(sp)
   15824:	7722                	ld	a4,40(sp)
   15826:	4539                	li	a0,14
   15828:	0007059b          	sext.w	a1,a4
   1582c:	c4b564e3          	bltu	a0,a1,15474 <__gdtoa+0x260>
   15830:	c40a82e3          	beqz	s5,15474 <__gdtoa+0x260>
   15834:	75e2                	ld	a1,56(sp)
   15836:	7502                	ld	a0,32(sp)
   15838:	8dc9                	or	a1,a1,a0
   1583a:	2581                	sext.w	a1,a1
   1583c:	c2059ce3          	bnez	a1,15474 <__gdtoa+0x260>
   15840:	75c6                	ld	a1,112(sp)
   15842:	c702                	sw	zero,140(sp)
   15844:	8eb6                	mv	t4,a3
   15846:	c989                	beqz	a1,15858 <__gdtoa+0x644>
   15848:	1e01b787          	fld	fa5,480(gp) # 1b520 <__SDATA_BEGIN__+0x38>
   1584c:	f2068753          	fmv.d.x	fa4,a3
   15850:	a2f715d3          	flt.d	a1,fa4,fa5
   15854:	7c059263          	bnez	a1,16018 <__gdtoa+0xe04>
   15858:	2001b707          	fld	fa4,512(gp) # 1b540 <__SDATA_BEGIN__+0x58>
   1585c:	1f81b787          	fld	fa5,504(gp) # 1b538 <__SDATA_BEGIN__+0x50>
   15860:	f20e86d3          	fmv.d.x	fa3,t4
   15864:	fcc005b7          	lui	a1,0xfcc00
   15868:	7722                	ld	a4,40(sp)
   1586a:	7ae6f7c3          	fmadd.d	fa5,fa3,fa4,fa5
   1586e:	e2078553          	fmv.x.d	a0,fa5
   15872:	02055f13          	srl	t5,a0,0x20
   15876:	01e585bb          	addw	a1,a1,t5
   1587a:	5f7d                	li	t5,-1
   1587c:	020f5f13          	srl	t5,t5,0x20
   15880:	1582                	sll	a1,a1,0x20
   15882:	00af7f33          	and	t5,t5,a0
   15886:	00bf6f33          	or	t5,t5,a1
   1588a:	4c070763          	beqz	a4,15d58 <__gdtoa+0xb44>
   1588e:	7fa2                	ld	t6,40(sp)
   15890:	8576                	mv	a0,t4
   15892:	4381                	li	t2,0
   15894:	65e5                	lui	a1,0x19
   15896:	ffff829b          	addw	t0,t6,-1
   1589a:	6706                	ld	a4,64(sp)
   1589c:	6d058593          	add	a1,a1,1744 # 196d0 <__mprec_tens>
   158a0:	028e                	sll	t0,t0,0x3
   158a2:	92ae                	add	t0,t0,a1
   158a4:	0002b787          	fld	fa5,0(t0) # 10ae4 <memset+0x90>
   158a8:	6c070a63          	beqz	a4,15f7c <__gdtoa+0xd68>
   158ac:	f2050753          	fmv.d.x	fa4,a0
   158b0:	f20506d3          	fmv.d.x	fa3,a0
   158b4:	c20716d3          	fcvt.w.d	a3,fa4,rtz
   158b8:	2101b707          	fld	fa4,528(gp) # 1b550 <__SDATA_BEGIN__+0x68>
   158bc:	00180c93          	add	s9,a6,1
   158c0:	1af77753          	fdiv.d	fa4,fa4,fa5
   158c4:	d20687d3          	fcvt.d.w	fa5,a3
   158c8:	0306869b          	addw	a3,a3,48
   158cc:	00d80023          	sb	a3,0(a6)
   158d0:	0af6f7d3          	fsub.d	fa5,fa3,fa5
   158d4:	f20f06d3          	fmv.d.x	fa3,t5
   158d8:	0ad77753          	fsub.d	fa4,fa4,fa3
   158dc:	a2e796d3          	flt.d	a3,fa5,fa4
   158e0:	00069ae3          	bnez	a3,160f4 <__gdtoa+0xee0>
   158e4:	1e01b587          	fld	fa1,480(gp) # 1b520 <__SDATA_BEGIN__+0x38>
   158e8:	1e81b607          	fld	fa2,488(gp) # 1b528 <__SDATA_BEGIN__+0x40>
   158ec:	a80d                	j	1591e <__gdtoa+0x70a>
   158ee:	473a                	lw	a4,140(sp)
   158f0:	0c85                	add	s9,s9,1
   158f2:	2705                	addw	a4,a4,1
   158f4:	c73a                	sw	a4,140(sp)
   158f6:	01f75ce3          	bge	a4,t6,1610e <__gdtoa+0xefa>
   158fa:	12c7f7d3          	fmul.d	fa5,fa5,fa2
   158fe:	12c77753          	fmul.d	fa4,fa4,fa2
   15902:	c2079753          	fcvt.w.d	a4,fa5,rtz
   15906:	d20706d3          	fcvt.d.w	fa3,a4
   1590a:	0307071b          	addw	a4,a4,48
   1590e:	feec8fa3          	sb	a4,-1(s9)
   15912:	0ad7f7d3          	fsub.d	fa5,fa5,fa3
   15916:	a2e79753          	flt.d	a4,fa5,fa4
   1591a:	7c071d63          	bnez	a4,160f4 <__gdtoa+0xee0>
   1591e:	0af5f6d3          	fsub.d	fa3,fa1,fa5
   15922:	a2e69753          	flt.d	a4,fa3,fa4
   15926:	d761                	beqz	a4,158ee <__gdtoa+0x6da>
   15928:	fffcc683          	lbu	a3,-1(s9)
   1592c:	0013859b          	addw	a1,t2,1
   15930:	03900613          	li	a2,57
   15934:	a031                	j	15940 <__gdtoa+0x72c>
   15936:	62f80f63          	beq	a6,a5,15f74 <__gdtoa+0xd60>
   1593a:	fff7c683          	lbu	a3,-1(a5) # ffffffffffff7fff <__BSS_END__+0xfffffffffffdc4bf>
   1593e:	8cbe                	mv	s9,a5
   15940:	fffc8793          	add	a5,s9,-1
   15944:	fec689e3          	beq	a3,a2,15936 <__gdtoa+0x722>
   15948:	2685                	addw	a3,a3,1
   1594a:	0ff6f693          	zext.b	a3,a3
   1594e:	00d78023          	sb	a3,0(a5)
   15952:	0005891b          	sext.w	s2,a1
   15956:	02000993          	li	s3,32
   1595a:	a0c5                	j	15a3a <__gdtoa+0x826>
   1595c:	744e                	ld	s0,240(sp)
   1595e:	790e                	ld	s2,224(sp)
   15960:	b589                	j	157a2 <__gdtoa+0x58e>
   15962:	4585                	li	a1,1
   15964:	4115873b          	subw	a4,a1,a7
   15968:	ec3a                	sd	a4,24(sp)
   1596a:	4e01                	li	t3,0
   1596c:	e4034ce3          	bltz	t1,157c4 <__gdtoa+0x5b0>
   15970:	b441                	j	153f0 <__gdtoa+0x1dc>
   15972:	7d42                	ld	s10,48(sp)
   15974:	6ce2                	ld	s9,24(sp)
   15976:	4a81                	li	s5,0
   15978:	bead                	j	154f2 <__gdtoa+0x2de>
   1597a:	4709                	li	a4,2
   1597c:	f03a                	sd	a4,32(sp)
   1597e:	b4fd                	j	1546c <__gdtoa+0x258>
   15980:	3971                	addw	s2,s2,-4
   15982:	4511                	li	a0,4
   15984:	10a90f63          	beq	s2,a0,15aa2 <__gdtoa+0x88e>
   15988:	48b90e63          	beq	s2,a1,15e24 <__gdtoa+0xc10>
   1598c:	4589                	li	a1,2
   1598e:	e082                	sd	zero,64(sp)
   15990:	4a81                	li	s5,0
   15992:	10b90b63          	beq	s2,a1,15aa8 <__gdtoa+0x894>
   15996:	490d                	li	s2,3
   15998:	b471                	j	15424 <__gdtoa+0x210>
   1599a:	337d                	addw	t1,t1,-1 # 3fefffff <__BSS_END__+0x3fee44bf>
   1599c:	f882                	sd	zero,112(sp)
   1599e:	bd31                	j	157ba <__gdtoa+0x5a6>
   159a0:	67e5                	lui	a5,0x19
   159a2:	00371613          	sll	a2,a4,0x3
   159a6:	6d078793          	add	a5,a5,1744 # 196d0 <__mprec_tens>
   159aa:	97b2                	add	a5,a5,a2
   159ac:	2398                	fld	fa4,0(a5)
   159ae:	320bca63          	bltz	s7,15ce2 <__gdtoa+0xace>
   159b2:	f20687d3          	fmv.d.x	fa5,a3
   159b6:	4785                	li	a5,1
   159b8:	c73e                	sw	a5,140(sp)
   159ba:	1ae7f7d3          	fdiv.d	fa5,fa5,fa4
   159be:	77e2                	ld	a5,56(sp)
   159c0:	f20686d3          	fmv.d.x	fa3,a3
   159c4:	00180c93          	add	s9,a6,1
   159c8:	0017891b          	addw	s2,a5,1
   159cc:	85ca                	mv	a1,s2
   159ce:	c20797d3          	fcvt.w.d	a5,fa5,rtz
   159d2:	d20787d3          	fcvt.d.w	fa5,a5
   159d6:	0307861b          	addw	a2,a5,48
   159da:	00c80023          	sb	a2,0(a6)
   159de:	6af777cb          	fnmsub.d	fa5,fa4,fa5,fa3
   159e2:	f20006d3          	fmv.d.x	fa3,zero
   159e6:	2781                	sext.w	a5,a5
   159e8:	a2d7a6d3          	feq.d	a3,fa5,fa3
   159ec:	e6b9                	bnez	a3,15a3a <__gdtoa+0x826>
   159ee:	1e81b587          	fld	fa1,488(gp) # 1b528 <__SDATA_BEGIN__+0x40>
   159f2:	22d68653          	fmv.d	fa2,fa3
   159f6:	7622                	ld	a2,40(sp)
   159f8:	a02d                	j	15a22 <__gdtoa+0x80e>
   159fa:	12b7f7d3          	fmul.d	fa5,fa5,fa1
   159fe:	c736                	sw	a3,140(sp)
   15a00:	0c85                	add	s9,s9,1
   15a02:	1ae7f6d3          	fdiv.d	fa3,fa5,fa4
   15a06:	c20697d3          	fcvt.w.d	a5,fa3,rtz
   15a0a:	d20786d3          	fcvt.d.w	fa3,a5
   15a0e:	0307871b          	addw	a4,a5,48
   15a12:	feec8fa3          	sb	a4,-1(s9)
   15a16:	7ae6f7cb          	fnmsub.d	fa5,fa3,fa4,fa5
   15a1a:	2781                	sext.w	a5,a5
   15a1c:	a2c7a753          	feq.d	a4,fa5,fa2
   15a20:	ef09                	bnez	a4,15a3a <__gdtoa+0x826>
   15a22:	473a                	lw	a4,140(sp)
   15a24:	0017069b          	addw	a3,a4,1
   15a28:	fcc719e3          	bne	a4,a2,159fa <__gdtoa+0x7e6>
   15a2c:	7702                	ld	a4,32(sp)
   15a2e:	50070863          	beqz	a4,15f3e <__gdtoa+0xd2a>
   15a32:	4785                	li	a5,1
   15a34:	49c1                	li	s3,16
   15a36:	62f70863          	beq	a4,a5,16066 <__gdtoa+0xe52>
   15a3a:	85e2                	mv	a1,s8
   15a3c:	8522                	mv	a0,s0
   15a3e:	e842                	sd	a6,16(sp)
   15a40:	3c7000ef          	jal	16606 <_Bfree>
   15a44:	67a2                	ld	a5,8(sp)
   15a46:	000c8023          	sb	zero,0(s9)
   15a4a:	0124a023          	sw	s2,0(s1)
   15a4e:	6842                	ld	a6,16(sp)
   15a50:	c399                	beqz	a5,15a56 <__gdtoa+0x842>
   15a52:	0197b023          	sd	s9,0(a5)
   15a56:	000a2783          	lw	a5,0(s4)
   15a5a:	744e                	ld	s0,240(sp)
   15a5c:	790e                	ld	s2,224(sp)
   15a5e:	00f9e7b3          	or	a5,s3,a5
   15a62:	6aae                	ld	s5,200(sp)
   15a64:	6b0e                	ld	s6,192(sp)
   15a66:	7bea                	ld	s7,184(sp)
   15a68:	7c4a                	ld	s8,176(sp)
   15a6a:	7d0a                	ld	s10,160(sp)
   15a6c:	6dea                	ld	s11,152(sp)
   15a6e:	00fa2023          	sw	a5,0(s4)
   15a72:	b1dd                	j	15758 <__gdtoa+0x544>
   15a74:	aed799e3          	bne	a5,a3,15566 <__gdtoa+0x352>
   15a78:	004b2783          	lw	a5,4(s6)
   15a7c:	6742                	ld	a4,16(sp)
   15a7e:	2785                	addw	a5,a5,1
   15a80:	aee7d3e3          	bge	a5,a4,15566 <__gdtoa+0x352>
   15a84:	67e2                	ld	a5,24(sp)
   15a86:	2e05                	addw	t3,t3,1
   15a88:	4305                	li	t1,1
   15a8a:	2785                	addw	a5,a5,1
   15a8c:	ec3e                	sd	a5,24(sp)
   15a8e:	bce1                	j	15566 <__gdtoa+0x352>
   15a90:	d2050753          	fcvt.d.w	fa4,a0
   15a94:	a2f725d3          	feq.d	a1,fa4,fa5
   15a98:	900594e3          	bnez	a1,153a0 <__gdtoa+0x18c>
   15a9c:	fff5031b          	addw	t1,a0,-1
   15aa0:	b201                	j	153a0 <__gdtoa+0x18c>
   15aa2:	4705                	li	a4,1
   15aa4:	4a81                	li	s5,0
   15aa6:	e0ba                	sd	a4,64(sp)
   15aa8:	000b859b          	sext.w	a1,s7
   15aac:	01704363          	bgtz	s7,15ab2 <__gdtoa+0x89e>
   15ab0:	4585                	li	a1,1
   15ab2:	88ae                	mv	a7,a1
   15ab4:	fcae                	sd	a1,120(sp)
   15ab6:	f42e                	sd	a1,40(sp)
   15ab8:	8bae                	mv	s7,a1
   15aba:	b241                	j	1543a <__gdtoa+0x226>
   15abc:	35d000ef          	jal	16618 <__multadd>
   15ac0:	8aaa                	mv	s5,a0
   15ac2:	cc050de3          	beqz	a0,1579c <__gdtoa+0x588>
   15ac6:	84aa                	mv	s1,a0
   15ac8:	beb9                	j	15626 <__gdtoa+0x412>
   15aca:	b00b5be3          	bgez	s6,155e0 <__gdtoa+0x3cc>
   15ace:	7782                	ld	a5,32(sp)
   15ad0:	ec26                	sd	s1,24(sp)
   15ad2:	8352                	mv	t1,s4
   15ad4:	7842                	ld	a6,48(sp)
   15ad6:	7a22                	ld	s4,40(sp)
   15ad8:	6486                	ld	s1,64(sp)
   15ada:	89ba                	mv	s3,a4
   15adc:	6e079d63          	bnez	a5,161d6 <__gdtoa+0xfc2>
   15ae0:	014c2603          	lw	a2,20(s8)
   15ae4:	4685                	li	a3,1
   15ae6:	49c1                	li	s3,16
   15ae8:	001b8c93          	add	s9,s7,1
   15aec:	68c6da63          	bge	a3,a2,16180 <__gdtoa+0xf6c>
   15af0:	006b8023          	sb	t1,0(s7)
   15af4:	8b56                	mv	s6,s5
   15af6:	6ae2                	ld	s5,24(sp)
   15af8:	85ea                	mv	a1,s10
   15afa:	8522                	mv	a0,s0
   15afc:	e842                	sd	a6,16(sp)
   15afe:	309000ef          	jal	16606 <_Bfree>
   15b02:	77e2                	ld	a5,56(sp)
   15b04:	6842                	ld	a6,16(sp)
   15b06:	0017891b          	addw	s2,a5,1
   15b0a:	f20a88e3          	beqz	s5,15a3a <__gdtoa+0x826>
   15b0e:	000b0963          	beqz	s6,15b20 <__gdtoa+0x90c>
   15b12:	015b0763          	beq	s6,s5,15b20 <__gdtoa+0x90c>
   15b16:	85da                	mv	a1,s6
   15b18:	8522                	mv	a0,s0
   15b1a:	2ed000ef          	jal	16606 <_Bfree>
   15b1e:	6842                	ld	a6,16(sp)
   15b20:	85d6                	mv	a1,s5
   15b22:	8522                	mv	a0,s0
   15b24:	e842                	sd	a6,16(sp)
   15b26:	2e1000ef          	jal	16606 <_Bfree>
   15b2a:	6842                	ld	a6,16(sp)
   15b2c:	b739                	j	15a3a <__gdtoa+0x826>
   15b2e:	85e2                	mv	a1,s8
   15b30:	8522                	mv	a0,s0
   15b32:	f842                	sd	a6,48(sp)
   15b34:	ec72                	sd	t3,24(sp)
   15b36:	e81a                	sd	t1,16(sp)
   15b38:	086010ef          	jal	16bbe <__lshift>
   15b3c:	8c2a                	mv	s8,a0
   15b3e:	c4050fe3          	beqz	a0,1579c <__gdtoa+0x588>
   15b42:	47ba                	lw	a5,140(sp)
   15b44:	7842                	ld	a6,48(sp)
   15b46:	6e62                	ld	t3,24(sp)
   15b48:	6342                	ld	t1,16(sp)
   15b4a:	bc1d                	j	15580 <__gdtoa+0x36c>
   15b4c:	85ea                	mv	a1,s10
   15b4e:	8562                	mv	a0,s8
   15b50:	ec42                	sd	a6,24(sp)
   15b52:	e81a                	sd	t1,16(sp)
   15b54:	18e010ef          	jal	16ce2 <__mcmp>
   15b58:	6342                	ld	t1,16(sp)
   15b5a:	6862                	ld	a6,24(sp)
   15b5c:	a20559e3          	bgez	a0,1558e <__gdtoa+0x37a>
   15b60:	77e2                	ld	a5,56(sp)
   15b62:	85e2                	mv	a1,s8
   15b64:	4681                	li	a3,0
   15b66:	37fd                	addw	a5,a5,-1
   15b68:	4629                	li	a2,10
   15b6a:	8522                	mv	a0,s0
   15b6c:	fc3e                	sd	a5,56(sp)
   15b6e:	2ab000ef          	jal	16618 <__multadd>
   15b72:	8c2a                	mv	s8,a0
   15b74:	c20504e3          	beqz	a0,1579c <__gdtoa+0x588>
   15b78:	6786                	ld	a5,64(sp)
   15b7a:	6862                	ld	a6,24(sp)
   15b7c:	54079063          	bnez	a5,160bc <__gdtoa+0xea8>
   15b80:	77e6                	ld	a5,120(sp)
   15b82:	14f05a63          	blez	a5,15cd6 <__gdtoa+0xac2>
   15b86:	f43e                	sd	a5,40(sp)
   15b88:	7922                	ld	s2,40(sp)
   15b8a:	8bc2                	mv	s7,a6
   15b8c:	4685                	li	a3,1
   15b8e:	89c2                	mv	s3,a6
   15b90:	a801                	j	15ba0 <__gdtoa+0x98c>
   15b92:	287000ef          	jal	16618 <__multadd>
   15b96:	8c2a                	mv	s8,a0
   15b98:	c00502e3          	beqz	a0,1579c <__gdtoa+0x588>
   15b9c:	46ba                	lw	a3,140(sp)
   15b9e:	2685                	addw	a3,a3,1
   15ba0:	85ea                	mv	a1,s10
   15ba2:	8562                	mv	a0,s8
   15ba4:	c736                	sw	a3,140(sp)
   15ba6:	76a000ef          	jal	16310 <__quorem_D2A>
   15baa:	0305031b          	addw	t1,a0,48
   15bae:	006b8023          	sb	t1,0(s7)
   15bb2:	47ba                	lw	a5,140(sp)
   15bb4:	4681                	li	a3,0
   15bb6:	4629                	li	a2,10
   15bb8:	85e2                	mv	a1,s8
   15bba:	8522                	mv	a0,s0
   15bbc:	0b85                	add	s7,s7,1
   15bbe:	fd27cae3          	blt	a5,s2,15b92 <__gdtoa+0x97e>
   15bc2:	884e                	mv	a6,s3
   15bc4:	4b01                	li	s6,0
   15bc6:	7782                	ld	a5,32(sp)
   15bc8:	2c078763          	beqz	a5,15e96 <__gdtoa+0xc82>
   15bcc:	4689                	li	a3,2
   15bce:	014c2603          	lw	a2,20(s8)
   15bd2:	2ed78863          	beq	a5,a3,15ec2 <__gdtoa+0xcae>
   15bd6:	4685                	li	a3,1
   15bd8:	20c6c963          	blt	a3,a2,15dea <__gdtoa+0xbd6>
   15bdc:	018c2683          	lw	a3,24(s8)
   15be0:	20069563          	bnez	a3,15dea <__gdtoa+0xbd6>
   15be4:	00d036b3          	snez	a3,a3
   15be8:	00469993          	sll	s3,a3,0x4
   15bec:	03000613          	li	a2,48
   15bf0:	fffbc783          	lbu	a5,-1(s7)
   15bf4:	8cde                	mv	s9,s7
   15bf6:	1bfd                	add	s7,s7,-1
   15bf8:	fec78ce3          	beq	a5,a2,15bf0 <__gdtoa+0x9dc>
   15bfc:	bdf5                	j	15af8 <__gdtoa+0x8e4>
   15bfe:	7722                	ld	a4,40(sp)
   15c00:	7642                	ld	a2,48(sp)
   15c02:	fff7069b          	addw	a3,a4,-1
   15c06:	10d64163          	blt	a2,a3,15d08 <__gdtoa+0xaf4>
   15c0a:	40d60d3b          	subw	s10,a2,a3
   15c0e:	46075a63          	bgez	a4,16082 <__gdtoa+0xe6e>
   15c12:	6762                	ld	a4,24(sp)
   15c14:	76a2                	ld	a3,40(sp)
   15c16:	c702                	sw	zero,140(sp)
   15c18:	40d70cbb          	subw	s9,a4,a3
   15c1c:	b865                	j	154d4 <__gdtoa+0x2c0>
   15c1e:	4789                	li	a5,2
   15c20:	9727dae3          	bge	a5,s2,15594 <__gdtoa+0x380>
   15c24:	85ea                	mv	a1,s10
   15c26:	4681                	li	a3,0
   15c28:	4615                	li	a2,5
   15c2a:	8522                	mv	a0,s0
   15c2c:	e842                	sd	a6,16(sp)
   15c2e:	1eb000ef          	jal	16618 <__multadd>
   15c32:	85aa                	mv	a1,a0
   15c34:	b60504e3          	beqz	a0,1579c <__gdtoa+0x588>
   15c38:	77a2                	ld	a5,40(sp)
   15c3a:	6842                	ld	a6,16(sp)
   15c3c:	14079263          	bnez	a5,15d80 <__gdtoa+0xb6c>
   15c40:	e82a                	sd	a0,16(sp)
   15c42:	8562                	mv	a0,s8
   15c44:	ec42                	sd	a6,24(sp)
   15c46:	09c010ef          	jal	16ce2 <__mcmp>
   15c4a:	77e2                	ld	a5,56(sp)
   15c4c:	65c2                	ld	a1,16(sp)
   15c4e:	6862                	ld	a6,24(sp)
   15c50:	0027891b          	addw	s2,a5,2
   15c54:	12a05663          	blez	a0,15d80 <__gdtoa+0xb6c>
   15c58:	03100793          	li	a5,49
   15c5c:	00180c93          	add	s9,a6,1
   15c60:	00f80023          	sb	a5,0(a6)
   15c64:	02000993          	li	s3,32
   15c68:	8522                	mv	a0,s0
   15c6a:	e842                	sd	a6,16(sp)
   15c6c:	19b000ef          	jal	16606 <_Bfree>
   15c70:	6842                	ld	a6,16(sp)
   15c72:	dc0a84e3          	beqz	s5,15a3a <__gdtoa+0x826>
   15c76:	b56d                	j	15b20 <__gdtoa+0x90c>
   15c78:	4885                	li	a7,1
   15c7a:	4585                	li	a1,1
   15c7c:	fbeff06f          	j	1543a <__gdtoa+0x226>
   15c80:	85aa                	mv	a1,a0
   15c82:	861a                	mv	a2,t1
   15c84:	8522                	mv	a0,s0
   15c86:	e4c2                	sd	a6,72(sp)
   15c88:	f872                	sd	t3,48(sp)
   15c8a:	661000ef          	jal	16aea <__pow5mult>
   15c8e:	8d2a                	mv	s10,a0
   15c90:	b00506e3          	beqz	a0,1579c <__gdtoa+0x588>
   15c94:	4685                	li	a3,1
   15c96:	7e42                	ld	t3,48(sp)
   15c98:	6826                	ld	a6,72(sp)
   15c9a:	1b26d363          	bge	a3,s2,15e40 <__gdtoa+0xc2c>
   15c9e:	014d2783          	lw	a5,20(s10)
   15ca2:	f842                	sd	a6,48(sp)
   15ca4:	e872                	sd	t3,16(sp)
   15ca6:	37fd                	addw	a5,a5,-1
   15ca8:	0791                	add	a5,a5,4
   15caa:	078a                	sll	a5,a5,0x2
   15cac:	97ea                	add	a5,a5,s10
   15cae:	4788                	lw	a0,8(a5)
   15cb0:	335000ef          	jal	167e4 <__hi0bits>
   15cb4:	7842                	ld	a6,48(sp)
   15cb6:	6e42                	ld	t3,16(sp)
   15cb8:	834e                	mv	t1,s3
   15cba:	8afff06f          	j	15568 <__gdtoa+0x354>
   15cbe:	4685                	li	a3,1
   15cc0:	f326cfe3          	blt	a3,s2,15bfe <__gdtoa+0x9ea>
   15cc4:	6762                	ld	a4,24(sp)
   15cc6:	7d42                	ld	s10,48(sp)
   15cc8:	01c58e3b          	addw	t3,a1,t3
   15ccc:	8cba                	mv	s9,a4
   15cce:	9f2d                	addw	a4,a4,a1
   15cd0:	ec3a                	sd	a4,24(sp)
   15cd2:	803ff06f          	j	154d4 <__gdtoa+0x2c0>
   15cd6:	4789                	li	a5,2
   15cd8:	4b27ca63          	blt	a5,s2,1618c <__gdtoa+0xf78>
   15cdc:	77e6                	ld	a5,120(sp)
   15cde:	f43e                	sd	a5,40(sp)
   15ce0:	b565                	j	15b88 <__gdtoa+0x974>
   15ce2:	77a2                	ld	a5,40(sp)
   15ce4:	ccf047e3          	bgtz	a5,159b2 <__gdtoa+0x79e>
   15ce8:	ebd1                	bnez	a5,15d7c <__gdtoa+0xb68>
   15cea:	2081b787          	fld	fa5,520(gp) # 1b548 <__SDATA_BEGIN__+0x60>
   15cee:	12f77753          	fmul.d	fa4,fa4,fa5
   15cf2:	f20687d3          	fmv.d.x	fa5,a3
   15cf6:	a2e787d3          	fle.d	a5,fa5,fa4
   15cfa:	e3c9                	bnez	a5,15d7c <__gdtoa+0xb68>
   15cfc:	77e2                	ld	a5,56(sp)
   15cfe:	4581                	li	a1,0
   15d00:	4a81                	li	s5,0
   15d02:	0027891b          	addw	s2,a5,2
   15d06:	bf89                	j	15c58 <__gdtoa+0xa44>
   15d08:	7742                	ld	a4,48(sp)
   15d0a:	65e2                	ld	a1,24(sp)
   15d0c:	4d01                	li	s10,0
   15d0e:	40e6863b          	subw	a2,a3,a4
   15d12:	7722                	ld	a4,40(sp)
   15d14:	8cae                	mv	s9,a1
   15d16:	0066033b          	addw	t1,a2,t1
   15d1a:	c73a                	sw	a4,140(sp)
   15d1c:	01c70e3b          	addw	t3,a4,t3
   15d20:	9f2d                	addw	a4,a4,a1
   15d22:	ec3a                	sd	a4,24(sp)
   15d24:	f836                	sd	a3,48(sp)
   15d26:	faeff06f          	j	154d4 <__gdtoa+0x2c0>
   15d2a:	2001b787          	fld	fa5,512(gp) # 1b540 <__SDATA_BEGIN__+0x58>
   15d2e:	1f81b707          	fld	fa4,504(gp) # 1b538 <__SDATA_BEGIN__+0x50>
   15d32:	f20e86d3          	fmv.d.x	fa3,t4
   15d36:	fcc006b7          	lui	a3,0xfcc00
   15d3a:	5f7d                	li	t5,-1
   15d3c:	72f6f7c3          	fmadd.d	fa5,fa3,fa5,fa4
   15d40:	020f5f13          	srl	t5,t5,0x20
   15d44:	e20785d3          	fmv.x.d	a1,fa5
   15d48:	0205d513          	srl	a0,a1,0x20
   15d4c:	9ea9                	addw	a3,a3,a0
   15d4e:	1682                	sll	a3,a3,0x20
   15d50:	00bf7f33          	and	t5,t5,a1
   15d54:	00df6f33          	or	t5,t5,a3
   15d58:	2081b787          	fld	fa5,520(gp) # 1b548 <__SDATA_BEGIN__+0x60>
   15d5c:	f20e8753          	fmv.d.x	fa4,t4
   15d60:	0af777d3          	fsub.d	fa5,fa4,fa5
   15d64:	f20f0753          	fmv.d.x	fa4,t5
   15d68:	a2f716d3          	flt.d	a3,fa4,fa5
   15d6c:	30069763          	bnez	a3,1607a <__gdtoa+0xe66>
   15d70:	22e71753          	fneg.d	fa4,fa4
   15d74:	a2e796d3          	flt.d	a3,fa5,fa4
   15d78:	2e068a63          	beqz	a3,1606c <__gdtoa+0xe58>
   15d7c:	4581                	li	a1,0
   15d7e:	4a81                	li	s5,0
   15d80:	4170093b          	negw	s2,s7
   15d84:	8cc2                	mv	s9,a6
   15d86:	49c1                	li	s3,16
   15d88:	b5c5                	j	15c68 <__gdtoa+0xa54>
   15d8a:	85d6                	mv	a1,s5
   15d8c:	866a                	mv	a2,s10
   15d8e:	8522                	mv	a0,s0
   15d90:	f0c2                	sd	a6,96(sp)
   15d92:	ecbe                	sd	a5,88(sp)
   15d94:	e8f2                	sd	t3,80(sp)
   15d96:	e49a                	sd	t1,72(sp)
   15d98:	553000ef          	jal	16aea <__pow5mult>
   15d9c:	8aaa                	mv	s5,a0
   15d9e:	9e050fe3          	beqz	a0,1579c <__gdtoa+0x588>
   15da2:	85aa                	mv	a1,a0
   15da4:	8662                	mv	a2,s8
   15da6:	8522                	mv	a0,s0
   15da8:	39b000ef          	jal	16942 <__multiply>
   15dac:	f4aa                	sd	a0,104(sp)
   15dae:	9e0507e3          	beqz	a0,1579c <__gdtoa+0x588>
   15db2:	85e2                	mv	a1,s8
   15db4:	8522                	mv	a0,s0
   15db6:	051000ef          	jal	16606 <_Bfree>
   15dba:	77c2                	ld	a5,48(sp)
   15dbc:	76a6                	ld	a3,104(sp)
   15dbe:	6326                	ld	t1,72(sp)
   15dc0:	41a7873b          	subw	a4,a5,s10
   15dc4:	f83a                	sd	a4,48(sp)
   15dc6:	6e46                	ld	t3,80(sp)
   15dc8:	67e6                	ld	a5,88(sp)
   15dca:	7806                	ld	a6,96(sp)
   15dcc:	8c36                	mv	s8,a3
   15dce:	f6070863          	beqz	a4,1553e <__gdtoa+0x32a>
   15dd2:	f4cff06f          	j	1551e <__gdtoa+0x30a>
   15dd6:	8b56                	mv	s6,s5
   15dd8:	6ae2                	ld	s5,24(sp)
   15dda:	86de                	mv	a3,s7
   15ddc:	001b8c93          	add	s9,s7,1
   15de0:	03900613          	li	a2,57
   15de4:	8be6                	mv	s7,s9
   15de6:	00c68023          	sb	a2,0(a3) # fffffffffcc00000 <__BSS_END__+0xfffffffffcbe44c0>
   15dea:	03900613          	li	a2,57
   15dee:	a019                	j	15df4 <__gdtoa+0xbe0>
   15df0:	0f780263          	beq	a6,s7,15ed4 <__gdtoa+0xcc0>
   15df4:	fffbc683          	lbu	a3,-1(s7)
   15df8:	8cde                	mv	s9,s7
   15dfa:	1bfd                	add	s7,s7,-1
   15dfc:	fec68ae3          	beq	a3,a2,15df0 <__gdtoa+0xbdc>
   15e00:	2685                	addw	a3,a3,1
   15e02:	00db8023          	sb	a3,0(s7)
   15e06:	02000993          	li	s3,32
   15e0a:	b1fd                	j	15af8 <__gdtoa+0x8e4>
   15e0c:	85d6                	mv	a1,s5
   15e0e:	8522                	mv	a0,s0
   15e10:	ec42                	sd	a6,24(sp)
   15e12:	e81a                	sd	t1,16(sp)
   15e14:	5ab000ef          	jal	16bbe <__lshift>
   15e18:	6342                	ld	t1,16(sp)
   15e1a:	6862                	ld	a6,24(sp)
   15e1c:	8aaa                	mv	s5,a0
   15e1e:	f8051263          	bnez	a0,155a2 <__gdtoa+0x38e>
   15e22:	baad                	j	1579c <__gdtoa+0x588>
   15e24:	4705                	li	a4,1
   15e26:	4a81                	li	s5,0
   15e28:	e0ba                	sd	a4,64(sp)
   15e2a:	dfaff06f          	j	15424 <__gdtoa+0x210>
   15e2e:	4705                	li	a4,1
   15e30:	e0ba                	sd	a4,64(sp)
   15e32:	df2ff06f          	j	15424 <__gdtoa+0x210>
   15e36:	4705                	li	a4,1
   15e38:	e0ba                	sd	a4,64(sp)
   15e3a:	b1bd                	j	15aa8 <__gdtoa+0x894>
   15e3c:	e082                	sd	zero,64(sp)
   15e3e:	b1ad                	j	15aa8 <__gdtoa+0x894>
   15e40:	67c6                	ld	a5,80(sp)
   15e42:	e4d79ee3          	bne	a5,a3,15c9e <__gdtoa+0xa8a>
   15e46:	004b2783          	lw	a5,4(s6)
   15e4a:	6742                	ld	a4,16(sp)
   15e4c:	2785                	addw	a5,a5,1
   15e4e:	e4e7d8e3          	bge	a5,a4,15c9e <__gdtoa+0xa8a>
   15e52:	67e2                	ld	a5,24(sp)
   15e54:	2e05                	addw	t3,t3,1
   15e56:	4985                	li	s3,1
   15e58:	2785                	addw	a5,a5,1
   15e5a:	ec3e                	sd	a5,24(sp)
   15e5c:	b589                	j	15c9e <__gdtoa+0xa8a>
   15e5e:	008aa583          	lw	a1,8(s5)
   15e62:	8522                	mv	a0,s0
   15e64:	e842                	sd	a6,16(sp)
   15e66:	73c000ef          	jal	165a2 <_Balloc>
   15e6a:	89aa                	mv	s3,a0
   15e6c:	920508e3          	beqz	a0,1579c <__gdtoa+0x588>
   15e70:	014aa603          	lw	a2,20(s5)
   15e74:	010a8593          	add	a1,s5,16
   15e78:	0541                	add	a0,a0,16
   15e7a:	0609                	add	a2,a2,2
   15e7c:	060a                	sll	a2,a2,0x2
   15e7e:	db9fe0ef          	jal	14c36 <memcpy>
   15e82:	4605                	li	a2,1
   15e84:	85ce                	mv	a1,s3
   15e86:	8522                	mv	a0,s0
   15e88:	537000ef          	jal	16bbe <__lshift>
   15e8c:	ec2a                	sd	a0,24(sp)
   15e8e:	6842                	ld	a6,16(sp)
   15e90:	f0051c63          	bnez	a0,155a8 <__gdtoa+0x394>
   15e94:	b221                	j	1579c <__gdtoa+0x588>
   15e96:	85e2                	mv	a1,s8
   15e98:	4605                	li	a2,1
   15e9a:	8522                	mv	a0,s0
   15e9c:	e842                	sd	a6,16(sp)
   15e9e:	ec1a                	sd	t1,24(sp)
   15ea0:	51f000ef          	jal	16bbe <__lshift>
   15ea4:	8c2a                	mv	s8,a0
   15ea6:	8e050be3          	beqz	a0,1579c <__gdtoa+0x588>
   15eaa:	85ea                	mv	a1,s10
   15eac:	637000ef          	jal	16ce2 <__mcmp>
   15eb0:	6842                	ld	a6,16(sp)
   15eb2:	f2a04ce3          	bgtz	a0,15dea <__gdtoa+0xbd6>
   15eb6:	e511                	bnez	a0,15ec2 <__gdtoa+0xcae>
   15eb8:	6362                	ld	t1,24(sp)
   15eba:	00137313          	and	t1,t1,1
   15ebe:	f20316e3          	bnez	t1,15dea <__gdtoa+0xbd6>
   15ec2:	014c2603          	lw	a2,20(s8)
   15ec6:	4685                	li	a3,1
   15ec8:	49c1                	li	s3,16
   15eca:	d2c6c1e3          	blt	a3,a2,15bec <__gdtoa+0x9d8>
   15ece:	018c2683          	lw	a3,24(s8)
   15ed2:	bb09                	j	15be4 <__gdtoa+0x9d0>
   15ed4:	77e2                	ld	a5,56(sp)
   15ed6:	02000993          	li	s3,32
   15eda:	2785                	addw	a5,a5,1
   15edc:	fc3e                	sd	a5,56(sp)
   15ede:	03100793          	li	a5,49
   15ee2:	00f80023          	sb	a5,0(a6)
   15ee6:	b909                	j	15af8 <__gdtoa+0x8e4>
   15ee8:	7782                	ld	a5,32(sp)
   15eea:	ec26                	sd	s1,24(sp)
   15eec:	8352                	mv	t1,s4
   15eee:	7842                	ld	a6,48(sp)
   15ef0:	7a22                	ld	s4,40(sp)
   15ef2:	6486                	ld	s1,64(sp)
   15ef4:	cb91                	beqz	a5,15f08 <__gdtoa+0xcf4>
   15ef6:	014c2603          	lw	a2,20(s8)
   15efa:	4685                	li	a3,1
   15efc:	fac6c463          	blt	a3,a2,156a4 <__gdtoa+0x490>
   15f00:	018c2683          	lw	a3,24(s8)
   15f04:	fa069063          	bnez	a3,156a4 <__gdtoa+0x490>
   15f08:	85e2                	mv	a1,s8
   15f0a:	4605                	li	a2,1
   15f0c:	8522                	mv	a0,s0
   15f0e:	f042                	sd	a6,32(sp)
   15f10:	e81a                	sd	t1,16(sp)
   15f12:	4ad000ef          	jal	16bbe <__lshift>
   15f16:	8c2a                	mv	s8,a0
   15f18:	880502e3          	beqz	a0,1579c <__gdtoa+0x588>
   15f1c:	85ea                	mv	a1,s10
   15f1e:	5c5000ef          	jal	16ce2 <__mcmp>
   15f22:	6342                	ld	t1,16(sp)
   15f24:	7802                	ld	a6,32(sp)
   15f26:	26a05663          	blez	a0,16192 <__gdtoa+0xf7e>
   15f2a:	03900693          	li	a3,57
   15f2e:	ead304e3          	beq	t1,a3,15dd6 <__gdtoa+0xbc2>
   15f32:	02000793          	li	a5,32
   15f36:	031c831b          	addw	t1,s9,49
   15f3a:	f03e                	sd	a5,32(sp)
   15f3c:	b655                	j	15ae0 <__gdtoa+0x8cc>
   15f3e:	02f7f7d3          	fadd.d	fa5,fa5,fa5
   15f42:	fffcc683          	lbu	a3,-1(s9)
   15f46:	a2f71653          	flt.d	a2,fa4,fa5
   15f4a:	9e0613e3          	bnez	a2,15930 <__gdtoa+0x71c>
   15f4e:	a2e7a653          	feq.d	a2,fa5,fa4
   15f52:	c601                	beqz	a2,15f5a <__gdtoa+0xd46>
   15f54:	8b85                	and	a5,a5,1
   15f56:	9c079de3          	bnez	a5,15930 <__gdtoa+0x71c>
   15f5a:	87e6                	mv	a5,s9
   15f5c:	49c1                	li	s3,16
   15f5e:	03000613          	li	a2,48
   15f62:	fff7c703          	lbu	a4,-1(a5)
   15f66:	8cbe                	mv	s9,a5
   15f68:	17fd                	add	a5,a5,-1
   15f6a:	fec70ce3          	beq	a4,a2,15f62 <__gdtoa+0xd4e>
   15f6e:	0005891b          	sext.w	s2,a1
   15f72:	b4e1                	j	15a3a <__gdtoa+0x826>
   15f74:	03100693          	li	a3,49
   15f78:	2585                	addw	a1,a1,1
   15f7a:	bad1                	j	1594e <__gdtoa+0x73a>
   15f7c:	f20f0753          	fmv.d.x	fa4,t5
   15f80:	f20685d3          	fmv.d.x	fa1,a3
   15f84:	8cc2                	mv	s9,a6
   15f86:	12e7f653          	fmul.d	fa2,fa5,fa4
   15f8a:	f20687d3          	fmv.d.x	fa5,a3
   15f8e:	1e81b707          	fld	fa4,488(gp) # 1b528 <__SDATA_BEGIN__+0x40>
   15f92:	4685                	li	a3,1
   15f94:	c736                	sw	a3,140(sp)
   15f96:	4f01                	li	t5,0
   15f98:	a029                	j	15fa2 <__gdtoa+0xd8e>
   15f9a:	12e7f7d3          	fmul.d	fa5,fa5,fa4
   15f9e:	c72a                	sw	a0,140(sp)
   15fa0:	4f05                	li	t5,1
   15fa2:	c2079753          	fcvt.w.d	a4,fa5,rtz
   15fa6:	0c85                	add	s9,s9,1
   15fa8:	0307069b          	addw	a3,a4,48
   15fac:	0007051b          	sext.w	a0,a4
   15fb0:	0ff6f693          	zext.b	a3,a3
   15fb4:	c511                	beqz	a0,15fc0 <__gdtoa+0xdac>
   15fb6:	d20706d3          	fcvt.d.w	fa3,a4
   15fba:	4f05                	li	t5,1
   15fbc:	0ad7f7d3          	fsub.d	fa5,fa5,fa3
   15fc0:	fedc8fa3          	sb	a3,-1(s9)
   15fc4:	473a                	lw	a4,140(sp)
   15fc6:	0017051b          	addw	a0,a4,1
   15fca:	fdf718e3          	bne	a4,t6,15f9a <__gdtoa+0xd86>
   15fce:	000f0463          	beqz	t5,15fd6 <__gdtoa+0xdc2>
   15fd2:	22f785d3          	fmv.d	fa1,fa5
   15fd6:	2101b787          	fld	fa5,528(gp) # 1b550 <__SDATA_BEGIN__+0x68>
   15fda:	02f67753          	fadd.d	fa4,fa2,fa5
   15fde:	a2b71553          	flt.d	a0,fa4,fa1
   15fe2:	10051563          	bnez	a0,160ec <__gdtoa+0xed8>
   15fe6:	0ac7f7d3          	fsub.d	fa5,fa5,fa2
   15fea:	a2f596d3          	flt.d	a3,fa1,fa5
   15fee:	16069e63          	bnez	a3,1616a <__gdtoa+0xf56>
   15ff2:	86f6                	mv	a3,t4
   15ff4:	1a064863          	bltz	a2,161a4 <__gdtoa+0xf90>
   15ff8:	f002                	sd	zero,32(sp)
   15ffa:	2198                	fld	fa4,0(a1)
   15ffc:	9a0bdbe3          	bgez	s7,159b2 <__gdtoa+0x79e>
   16000:	77a2                	ld	a5,40(sp)
   16002:	9a0798e3          	bnez	a5,159b2 <__gdtoa+0x79e>
   16006:	b1d5                	j	15cea <__gdtoa+0xad6>
   16008:	87a6                	mv	a5,s1
   1600a:	8352                	mv	t1,s4
   1600c:	8b56                	mv	s6,s5
   1600e:	7842                	ld	a6,48(sp)
   16010:	7a22                	ld	s4,40(sp)
   16012:	6486                	ld	s1,64(sp)
   16014:	8abe                	mv	s5,a5
   16016:	be45                	j	15bc6 <__gdtoa+0x9b2>
   16018:	d00709e3          	beqz	a4,15d2a <__gdtoa+0xb16>
   1601c:	7fe6                	ld	t6,120(sp)
   1601e:	05f05763          	blez	t6,1606c <__gdtoa+0xe58>
   16022:	1e81b787          	fld	fa5,488(gp) # 1b528 <__SDATA_BEGIN__+0x40>
   16026:	fcc005b7          	lui	a1,0xfcc00
   1602a:	12f777d3          	fmul.d	fa5,fa4,fa5
   1602e:	1f01b707          	fld	fa4,496(gp) # 1b530 <__SDATA_BEGIN__+0x48>
   16032:	53fd                	li	t2,-1
   16034:	e2078553          	fmv.x.d	a0,fa5
   16038:	1f81b787          	fld	fa5,504(gp) # 1b538 <__SDATA_BEGIN__+0x50>
   1603c:	f20506d3          	fmv.d.x	fa3,a0
   16040:	86aa                	mv	a3,a0
   16042:	7ae6f7c3          	fmadd.d	fa5,fa3,fa4,fa5
   16046:	e2078ad3          	fmv.x.d	s5,fa5
   1604a:	020adf13          	srl	t5,s5,0x20
   1604e:	01e585bb          	addw	a1,a1,t5
   16052:	5f7d                	li	t5,-1
   16054:	020f5f13          	srl	t5,t5,0x20
   16058:	1582                	sll	a1,a1,0x20
   1605a:	015f7f33          	and	t5,t5,s5
   1605e:	00bf6f33          	or	t5,t5,a1
   16062:	833ff06f          	j	15894 <__gdtoa+0x680>
   16066:	fffcc683          	lbu	a3,-1(s9)
   1606a:	b0d9                	j	15930 <__gdtoa+0x71c>
   1606c:	86f6                	mv	a3,t4
   1606e:	08064d63          	bltz	a2,16108 <__gdtoa+0xef4>
   16072:	65e5                	lui	a1,0x19
   16074:	6d058593          	add	a1,a1,1744 # 196d0 <__mprec_tens>
   16078:	b741                	j	15ff8 <__gdtoa+0xde4>
   1607a:	4909                	li	s2,2
   1607c:	4581                	li	a1,0
   1607e:	4a81                	li	s5,0
   16080:	bee1                	j	15c58 <__gdtoa+0xa44>
   16082:	66e2                	ld	a3,24(sp)
   16084:	c73a                	sw	a4,140(sp)
   16086:	01c70e3b          	addw	t3,a4,t3
   1608a:	9f35                	addw	a4,a4,a3
   1608c:	8cb6                	mv	s9,a3
   1608e:	ec3a                	sd	a4,24(sp)
   16090:	c44ff06f          	j	154d4 <__gdtoa+0x2c0>
   16094:	8352                	mv	t1,s4
   16096:	ec26                	sd	s1,24(sp)
   16098:	03900693          	li	a3,57
   1609c:	7842                	ld	a6,48(sp)
   1609e:	7a22                	ld	s4,40(sp)
   160a0:	6486                	ld	s1,64(sp)
   160a2:	d2d30ae3          	beq	t1,a3,15dd6 <__gdtoa+0xbc2>
   160a6:	0019879b          	addw	a5,s3,1
   160aa:	8b56                	mv	s6,s5
   160ac:	001b8c93          	add	s9,s7,1
   160b0:	6ae2                	ld	s5,24(sp)
   160b2:	00fb8023          	sb	a5,0(s7)
   160b6:	02000993          	li	s3,32
   160ba:	bc3d                	j	15af8 <__gdtoa+0x8e4>
   160bc:	85d6                	mv	a1,s5
   160be:	4681                	li	a3,0
   160c0:	4629                	li	a2,10
   160c2:	8522                	mv	a0,s0
   160c4:	554000ef          	jal	16618 <__multadd>
   160c8:	8aaa                	mv	s5,a0
   160ca:	ec050963          	beqz	a0,1579c <__gdtoa+0x588>
   160ce:	77e6                	ld	a5,120(sp)
   160d0:	6342                	ld	t1,16(sp)
   160d2:	6862                	ld	a6,24(sp)
   160d4:	00f05563          	blez	a5,160de <__gdtoa+0xeca>
   160d8:	f43e                	sd	a5,40(sp)
   160da:	cc0ff06f          	j	1559a <__gdtoa+0x386>
   160de:	4789                	li	a5,2
   160e0:	0b27c663          	blt	a5,s2,1618c <__gdtoa+0xf78>
   160e4:	77e6                	ld	a5,120(sp)
   160e6:	f43e                	sd	a5,40(sp)
   160e8:	cb2ff06f          	j	1559a <__gdtoa+0x386>
   160ec:	0013859b          	addw	a1,t2,1
   160f0:	841ff06f          	j	15930 <__gdtoa+0x71c>
   160f4:	f2000753          	fmv.d.x	fa4,zero
   160f8:	00138913          	add	s2,t2,1
   160fc:	a2e7a9d3          	feq.d	s3,fa5,fa4
   16100:	0019b993          	seqz	s3,s3
   16104:	0992                	sll	s3,s3,0x4
   16106:	ba15                	j	15a3a <__gdtoa+0x826>
   16108:	f002                	sd	zero,32(sp)
   1610a:	b76ff06f          	j	15480 <__gdtoa+0x26c>
   1610e:	86f6                	mv	a3,t4
   16110:	ee0654e3          	bgez	a2,15ff8 <__gdtoa+0xde4>
   16114:	f002                	sd	zero,32(sp)
   16116:	b70ff06f          	j	15486 <__gdtoa+0x272>
   1611a:	7722                	ld	a4,40(sp)
   1611c:	7642                	ld	a2,48(sp)
   1611e:	fff7069b          	addw	a3,a4,-1
   16122:	8d36                	mv	s10,a3
   16124:	bed642e3          	blt	a2,a3,15d08 <__gdtoa+0xaf4>
   16128:	66e2                	ld	a3,24(sp)
   1612a:	01c70e3b          	addw	t3,a4,t3
   1612e:	c73a                	sw	a4,140(sp)
   16130:	9f35                	addw	a4,a4,a3
   16132:	8cb6                	mv	s9,a3
   16134:	41a60d3b          	subw	s10,a2,s10
   16138:	ec3a                	sd	a4,24(sp)
   1613a:	b9aff06f          	j	154d4 <__gdtoa+0x2c0>
   1613e:	ec26                	sd	s1,24(sp)
   16140:	03900693          	li	a3,57
   16144:	8352                	mv	t1,s4
   16146:	7842                	ld	a6,48(sp)
   16148:	7a22                	ld	s4,40(sp)
   1614a:	6486                	ld	s1,64(sp)
   1614c:	c8d985e3          	beq	s3,a3,15dd6 <__gdtoa+0xbc2>
   16150:	09605f63          	blez	s6,161ee <__gdtoa+0xfda>
   16154:	031c831b          	addw	t1,s9,49
   16158:	02000993          	li	s3,32
   1615c:	006b8023          	sb	t1,0(s7)
   16160:	8b56                	mv	s6,s5
   16162:	001b8c93          	add	s9,s7,1
   16166:	6ae2                	ld	s5,24(sp)
   16168:	ba41                	j	15af8 <__gdtoa+0x8e4>
   1616a:	f20007d3          	fmv.d.x	fa5,zero
   1616e:	87e6                	mv	a5,s9
   16170:	0013859b          	addw	a1,t2,1
   16174:	a2f5a9d3          	feq.d	s3,fa1,fa5
   16178:	0019b993          	seqz	s3,s3
   1617c:	0992                	sll	s3,s3,0x4
   1617e:	b3c5                	j	15f5e <__gdtoa+0xd4a>
   16180:	018c2683          	lw	a3,24(s8)
   16184:	960696e3          	bnez	a3,15af0 <__gdtoa+0x8dc>
   16188:	7982                	ld	s3,32(sp)
   1618a:	b29d                	j	15af0 <__gdtoa+0x8dc>
   1618c:	77e6                	ld	a5,120(sp)
   1618e:	f43e                	sd	a5,40(sp)
   16190:	bc51                	j	15c24 <__gdtoa+0xa10>
   16192:	e509                	bnez	a0,1619c <__gdtoa+0xf88>
   16194:	00137693          	and	a3,t1,1
   16198:	d80699e3          	bnez	a3,15f2a <__gdtoa+0xd16>
   1619c:	02000793          	li	a5,32
   161a0:	f03e                	sd	a5,32(sp)
   161a2:	ba3d                	j	15ae0 <__gdtoa+0x8cc>
   161a4:	7d42                	ld	s10,48(sp)
   161a6:	6ce2                	ld	s9,24(sp)
   161a8:	f002                	sd	zero,32(sp)
   161aa:	4a81                	li	s5,0
   161ac:	b46ff06f          	j	154f2 <__gdtoa+0x2de>
   161b0:	ec5a                	sd	s6,24(sp)
   161b2:	03900693          	li	a3,57
   161b6:	886e                	mv	a6,s11
   161b8:	00d98b63          	beq	s3,a3,161ce <__gdtoa+0xfba>
   161bc:	0019831b          	addw	t1,s3,1
   161c0:	02000993          	li	s3,32
   161c4:	b235                	j	15af0 <__gdtoa+0x8dc>
   161c6:	49c1                	li	s3,16
   161c8:	001b8c93          	add	s9,s7,1
   161cc:	b215                	j	15af0 <__gdtoa+0x8dc>
   161ce:	8b56                	mv	s6,s5
   161d0:	86de                	mv	a3,s7
   161d2:	6ae2                	ld	s5,24(sp)
   161d4:	b131                	j	15de0 <__gdtoa+0xbcc>
   161d6:	014c2603          	lw	a2,20(s8)
   161da:	4685                	li	a3,1
   161dc:	ccc6c463          	blt	a3,a2,156a4 <__gdtoa+0x490>
   161e0:	018c2683          	lw	a3,24(s8)
   161e4:	cc069063          	bnez	a3,156a4 <__gdtoa+0x490>
   161e8:	001b8c93          	add	s9,s7,1
   161ec:	b211                	j	15af0 <__gdtoa+0x8dc>
   161ee:	014c2603          	lw	a2,20(s8)
   161f2:	4685                	li	a3,1
   161f4:	49c1                	li	s3,16
   161f6:	f6c6c3e3          	blt	a3,a2,1615c <__gdtoa+0xf48>
   161fa:	018c2983          	lw	s3,24(s8)
   161fe:	013039b3          	snez	s3,s3
   16202:	0992                	sll	s3,s3,0x4
   16204:	bfa1                	j	1615c <__gdtoa+0xf48>
   16206:	000b4e63          	bltz	s6,16222 <__gdtoa+0x100e>
   1620a:	016967b3          	or	a5,s2,s6
   1620e:	2781                	sext.w	a5,a5
   16210:	e789                	bnez	a5,1621a <__gdtoa+0x1006>
   16212:	67c2                	ld	a5,16(sp)
   16214:	439c                	lw	a5,0(a5)
   16216:	8b85                	and	a5,a5,1
   16218:	c789                	beqz	a5,16222 <__gdtoa+0x100e>
   1621a:	bcd05363          	blez	a3,155e0 <__gdtoa+0x3cc>
   1621e:	bbaff06f          	j	155d8 <__gdtoa+0x3c4>
   16222:	7782                	ld	a5,32(sp)
   16224:	ec26                	sd	s1,24(sp)
   16226:	8352                	mv	t1,s4
   16228:	7842                	ld	a6,48(sp)
   1622a:	7a22                	ld	s4,40(sp)
   1622c:	6486                	ld	s1,64(sp)
   1622e:	c385                	beqz	a5,1624e <__gdtoa+0x103a>
   16230:	014c2583          	lw	a1,20(s8)
   16234:	4605                	li	a2,1
   16236:	c6b64763          	blt	a2,a1,156a4 <__gdtoa+0x490>
   1623a:	018c2603          	lw	a2,24(s8)
   1623e:	c6061363          	bnez	a2,156a4 <__gdtoa+0x490>
   16242:	ccd043e3          	bgtz	a3,15f08 <__gdtoa+0xcf4>
   16246:	4981                	li	s3,0
   16248:	001b8c93          	add	s9,s7,1
   1624c:	b055                	j	15af0 <__gdtoa+0x8dc>
   1624e:	88d059e3          	blez	a3,15ae0 <__gdtoa+0x8cc>
   16252:	b95d                	j	15f08 <__gdtoa+0xcf4>

0000000000016254 <__rv_alloc_D2A>:
   16254:	1141                	add	sp,sp,-16
   16256:	e022                	sd	s0,0(sp)
   16258:	e406                	sd	ra,8(sp)
   1625a:	47ed                	li	a5,27
   1625c:	4401                	li	s0,0
   1625e:	00b7fa63          	bgeu	a5,a1,16272 <__rv_alloc_D2A+0x1e>
   16262:	4791                	li	a5,4
   16264:	0017979b          	sllw	a5,a5,0x1
   16268:	01878713          	add	a4,a5,24
   1626c:	2405                	addw	s0,s0,1 # 1fff001 <__BSS_END__+0x1fe34c1>
   1626e:	fee5fbe3          	bgeu	a1,a4,16264 <__rv_alloc_D2A+0x10>
   16272:	85a2                	mv	a1,s0
   16274:	32e000ef          	jal	165a2 <_Balloc>
   16278:	c119                	beqz	a0,1627e <__rv_alloc_D2A+0x2a>
   1627a:	c100                	sw	s0,0(a0)
   1627c:	0511                	add	a0,a0,4
   1627e:	60a2                	ld	ra,8(sp)
   16280:	6402                	ld	s0,0(sp)
   16282:	0141                	add	sp,sp,16
   16284:	8082                	ret

0000000000016286 <__nrv_alloc_D2A>:
   16286:	1101                	add	sp,sp,-32
   16288:	e822                	sd	s0,16(sp)
   1628a:	e04a                	sd	s2,0(sp)
   1628c:	ec06                	sd	ra,24(sp)
   1628e:	e426                	sd	s1,8(sp)
   16290:	47ed                	li	a5,27
   16292:	842e                	mv	s0,a1
   16294:	8932                	mv	s2,a2
   16296:	04d7fb63          	bgeu	a5,a3,162ec <__nrv_alloc_D2A+0x66>
   1629a:	4791                	li	a5,4
   1629c:	4481                	li	s1,0
   1629e:	0017979b          	sllw	a5,a5,0x1
   162a2:	01878713          	add	a4,a5,24
   162a6:	2485                	addw	s1,s1,1
   162a8:	fee6fbe3          	bgeu	a3,a4,1629e <__nrv_alloc_D2A+0x18>
   162ac:	85a6                	mv	a1,s1
   162ae:	2f4000ef          	jal	165a2 <_Balloc>
   162b2:	87aa                	mv	a5,a0
   162b4:	cd15                	beqz	a0,162f0 <__nrv_alloc_D2A+0x6a>
   162b6:	c104                	sw	s1,0(a0)
   162b8:	00044703          	lbu	a4,0(s0)
   162bc:	0511                	add	a0,a0,4
   162be:	00140593          	add	a1,s0,1
   162c2:	00e78223          	sb	a4,4(a5)
   162c6:	87aa                	mv	a5,a0
   162c8:	cb01                	beqz	a4,162d8 <__nrv_alloc_D2A+0x52>
   162ca:	0005c703          	lbu	a4,0(a1)
   162ce:	0785                	add	a5,a5,1
   162d0:	0585                	add	a1,a1,1
   162d2:	00e78023          	sb	a4,0(a5)
   162d6:	fb75                	bnez	a4,162ca <__nrv_alloc_D2A+0x44>
   162d8:	00090463          	beqz	s2,162e0 <__nrv_alloc_D2A+0x5a>
   162dc:	00f93023          	sd	a5,0(s2)
   162e0:	60e2                	ld	ra,24(sp)
   162e2:	6442                	ld	s0,16(sp)
   162e4:	64a2                	ld	s1,8(sp)
   162e6:	6902                	ld	s2,0(sp)
   162e8:	6105                	add	sp,sp,32
   162ea:	8082                	ret
   162ec:	4481                	li	s1,0
   162ee:	bf7d                	j	162ac <__nrv_alloc_D2A+0x26>
   162f0:	4501                	li	a0,0
   162f2:	b7fd                	j	162e0 <__nrv_alloc_D2A+0x5a>

00000000000162f4 <__freedtoa>:
   162f4:	ffc5a783          	lw	a5,-4(a1)
   162f8:	4685                	li	a3,1
   162fa:	872e                	mv	a4,a1
   162fc:	00f696bb          	sllw	a3,a3,a5
   16300:	1782                	sll	a5,a5,0x20
   16302:	1682                	sll	a3,a3,0x20
   16304:	9381                	srl	a5,a5,0x20
   16306:	8fd5                	or	a5,a5,a3
   16308:	15f1                	add	a1,a1,-4
   1630a:	00f73223          	sd	a5,4(a4)
   1630e:	ace5                	j	16606 <_Bfree>

0000000000016310 <__quorem_D2A>:
   16310:	7139                	add	sp,sp,-64
   16312:	f426                	sd	s1,40(sp)
   16314:	495c                	lw	a5,20(a0)
   16316:	49c4                	lw	s1,20(a1)
   16318:	fc06                	sd	ra,56(sp)
   1631a:	1497ce63          	blt	a5,s1,16476 <__quorem_D2A+0x166>
   1631e:	34fd                	addw	s1,s1,-1
   16320:	00249313          	sll	t1,s1,0x2
   16324:	f822                	sd	s0,48(sp)
   16326:	01858413          	add	s0,a1,24
   1632a:	f04a                	sd	s2,32(sp)
   1632c:	ec4e                	sd	s3,24(sp)
   1632e:	00640933          	add	s2,s0,t1
   16332:	01850993          	add	s3,a0,24
   16336:	e456                	sd	s5,8(sp)
   16338:	934e                	add	t1,t1,s3
   1633a:	00092a83          	lw	s5,0(s2)
   1633e:	00032783          	lw	a5,0(t1)
   16342:	e05a                	sd	s6,0(sp)
   16344:	001a871b          	addw	a4,s5,1
   16348:	02e7db3b          	divuw	s6,a5,a4
   1634c:	e852                	sd	s4,16(sp)
   1634e:	8a2a                	mv	s4,a0
   16350:	8ada                	mv	s5,s6
   16352:	08e7ea63          	bltu	a5,a4,163e6 <__quorem_D2A+0xd6>
   16356:	6841                	lui	a6,0x10
   16358:	8522                	mv	a0,s0
   1635a:	88ce                	mv	a7,s3
   1635c:	4f01                	li	t5,0
   1635e:	4e81                	li	t4,0
   16360:	187d                	add	a6,a6,-1 # ffff <exit-0xe9>
   16362:	4118                	lw	a4,0(a0)
   16364:	0008a603          	lw	a2,0(a7)
   16368:	0891                	add	a7,a7,4
   1636a:	010776b3          	and	a3,a4,a6
   1636e:	036686bb          	mulw	a3,a3,s6
   16372:	0107571b          	srlw	a4,a4,0x10
   16376:	010677b3          	and	a5,a2,a6
   1637a:	01065e1b          	srlw	t3,a2,0x10
   1637e:	0511                	add	a0,a0,4
   16380:	0367073b          	mulw	a4,a4,s6
   16384:	01e686bb          	addw	a3,a3,t5
   16388:	00d87633          	and	a2,a6,a3
   1638c:	9f91                	subw	a5,a5,a2
   1638e:	41d787bb          	subw	a5,a5,t4
   16392:	0106d69b          	srlw	a3,a3,0x10
   16396:	0107d61b          	srlw	a2,a5,0x10
   1639a:	8a05                	and	a2,a2,1
   1639c:	00f877b3          	and	a5,a6,a5
   163a0:	9f35                	addw	a4,a4,a3
   163a2:	00e876b3          	and	a3,a6,a4
   163a6:	9e35                	addw	a2,a2,a3
   163a8:	40ce06bb          	subw	a3,t3,a2
   163ac:	0106961b          	sllw	a2,a3,0x10
   163b0:	8fd1                	or	a5,a5,a2
   163b2:	0106d69b          	srlw	a3,a3,0x10
   163b6:	fef8ae23          	sw	a5,-4(a7)
   163ba:	01075f1b          	srlw	t5,a4,0x10
   163be:	0016fe93          	and	t4,a3,1
   163c2:	faa970e3          	bgeu	s2,a0,16362 <__quorem_D2A+0x52>
   163c6:	00032783          	lw	a5,0(t1)
   163ca:	ef91                	bnez	a5,163e6 <__quorem_D2A+0xd6>
   163cc:	1371                	add	t1,t1,-4
   163ce:	0069e663          	bltu	s3,t1,163da <__quorem_D2A+0xca>
   163d2:	a801                	j	163e2 <__quorem_D2A+0xd2>
   163d4:	34fd                	addw	s1,s1,-1
   163d6:	0069f663          	bgeu	s3,t1,163e2 <__quorem_D2A+0xd2>
   163da:	00032783          	lw	a5,0(t1)
   163de:	1371                	add	t1,t1,-4
   163e0:	dbf5                	beqz	a5,163d4 <__quorem_D2A+0xc4>
   163e2:	009a2a23          	sw	s1,20(s4)
   163e6:	8552                	mv	a0,s4
   163e8:	0fb000ef          	jal	16ce2 <__mcmp>
   163ec:	06054963          	bltz	a0,1645e <__quorem_D2A+0x14e>
   163f0:	6541                	lui	a0,0x10
   163f2:	864e                	mv	a2,s3
   163f4:	4581                	li	a1,0
   163f6:	157d                	add	a0,a0,-1 # ffff <exit-0xe9>
   163f8:	4218                	lw	a4,0(a2)
   163fa:	4014                	lw	a3,0(s0)
   163fc:	0611                	add	a2,a2,4
   163fe:	00a777b3          	and	a5,a4,a0
   16402:	00a6f833          	and	a6,a3,a0
   16406:	410787bb          	subw	a5,a5,a6
   1640a:	9f8d                	subw	a5,a5,a1
   1640c:	0107d59b          	srlw	a1,a5,0x10
   16410:	8985                	and	a1,a1,1
   16412:	0106d69b          	srlw	a3,a3,0x10
   16416:	9ead                	addw	a3,a3,a1
   16418:	0107571b          	srlw	a4,a4,0x10
   1641c:	9f15                	subw	a4,a4,a3
   1641e:	0107169b          	sllw	a3,a4,0x10
   16422:	8fe9                	and	a5,a5,a0
   16424:	8fd5                	or	a5,a5,a3
   16426:	0107571b          	srlw	a4,a4,0x10
   1642a:	0411                	add	s0,s0,4
   1642c:	fef62e23          	sw	a5,-4(a2)
   16430:	00177593          	and	a1,a4,1
   16434:	fc8972e3          	bgeu	s2,s0,163f8 <__quorem_D2A+0xe8>
   16438:	00249793          	sll	a5,s1,0x2
   1643c:	97ce                	add	a5,a5,s3
   1643e:	4398                	lw	a4,0(a5)
   16440:	ef09                	bnez	a4,1645a <__quorem_D2A+0x14a>
   16442:	17f1                	add	a5,a5,-4
   16444:	00f9e663          	bltu	s3,a5,16450 <__quorem_D2A+0x140>
   16448:	a039                	j	16456 <__quorem_D2A+0x146>
   1644a:	34fd                	addw	s1,s1,-1
   1644c:	00f9f563          	bgeu	s3,a5,16456 <__quorem_D2A+0x146>
   16450:	4398                	lw	a4,0(a5)
   16452:	17f1                	add	a5,a5,-4
   16454:	db7d                	beqz	a4,1644a <__quorem_D2A+0x13a>
   16456:	009a2a23          	sw	s1,20(s4)
   1645a:	001a8b1b          	addw	s6,s5,1
   1645e:	7442                	ld	s0,48(sp)
   16460:	70e2                	ld	ra,56(sp)
   16462:	7902                	ld	s2,32(sp)
   16464:	69e2                	ld	s3,24(sp)
   16466:	6a42                	ld	s4,16(sp)
   16468:	6aa2                	ld	s5,8(sp)
   1646a:	74a2                	ld	s1,40(sp)
   1646c:	000b051b          	sext.w	a0,s6
   16470:	6b02                	ld	s6,0(sp)
   16472:	6121                	add	sp,sp,64
   16474:	8082                	ret
   16476:	70e2                	ld	ra,56(sp)
   16478:	74a2                	ld	s1,40(sp)
   1647a:	4501                	li	a0,0
   1647c:	6121                	add	sp,sp,64
   1647e:	8082                	ret

0000000000016480 <__rshift_D2A>:
   16480:	4958                	lw	a4,20(a0)
   16482:	4055de13          	sra	t3,a1,0x5
   16486:	00ee4763          	blt	t3,a4,16494 <__rshift_D2A+0x14>
   1648a:	00052a23          	sw	zero,20(a0)
   1648e:	00052c23          	sw	zero,24(a0)
   16492:	8082                	ret
   16494:	01850313          	add	t1,a0,24
   16498:	00271813          	sll	a6,a4,0x2
   1649c:	002e1793          	sll	a5,t3,0x2
   164a0:	89fd                	and	a1,a1,31
   164a2:	981a                	add	a6,a6,t1
   164a4:	979a                	add	a5,a5,t1
   164a6:	c1b9                	beqz	a1,164ec <__rshift_D2A+0x6c>
   164a8:	4390                	lw	a2,0(a5)
   164aa:	02000e93          	li	t4,32
   164ae:	0791                	add	a5,a5,4
   164b0:	00b656bb          	srlw	a3,a2,a1
   164b4:	40be8ebb          	subw	t4,t4,a1
   164b8:	0507ff63          	bgeu	a5,a6,16516 <__rshift_D2A+0x96>
   164bc:	889a                	mv	a7,t1
   164be:	4390                	lw	a2,0(a5)
   164c0:	0891                	add	a7,a7,4
   164c2:	0791                	add	a5,a5,4
   164c4:	01d6163b          	sllw	a2,a2,t4
   164c8:	8ed1                	or	a3,a3,a2
   164ca:	fed8ae23          	sw	a3,-4(a7)
   164ce:	ffc7a603          	lw	a2,-4(a5)
   164d2:	00b656bb          	srlw	a3,a2,a1
   164d6:	ff07e4e3          	bltu	a5,a6,164be <__rshift_D2A+0x3e>
   164da:	41c70733          	sub	a4,a4,t3
   164de:	070a                	sll	a4,a4,0x2
   164e0:	1771                	add	a4,a4,-4
   164e2:	971a                	add	a4,a4,t1
   164e4:	c314                	sw	a3,0(a4)
   164e6:	c28d                	beqz	a3,16508 <__rshift_D2A+0x88>
   164e8:	0711                	add	a4,a4,4
   164ea:	a839                	j	16508 <__rshift_D2A+0x88>
   164ec:	869a                	mv	a3,t1
   164ee:	f907fee3          	bgeu	a5,a6,1648a <__rshift_D2A+0xa>
   164f2:	4390                	lw	a2,0(a5)
   164f4:	0791                	add	a5,a5,4
   164f6:	0691                	add	a3,a3,4
   164f8:	fec6ae23          	sw	a2,-4(a3)
   164fc:	ff07ebe3          	bltu	a5,a6,164f2 <__rshift_D2A+0x72>
   16500:	41c70733          	sub	a4,a4,t3
   16504:	070a                	sll	a4,a4,0x2
   16506:	971a                	add	a4,a4,t1
   16508:	40670733          	sub	a4,a4,t1
   1650c:	8709                	sra	a4,a4,0x2
   1650e:	2701                	sext.w	a4,a4
   16510:	c958                	sw	a4,20(a0)
   16512:	df35                	beqz	a4,1648e <__rshift_D2A+0xe>
   16514:	8082                	ret
   16516:	cd14                	sw	a3,24(a0)
   16518:	daad                	beqz	a3,1648a <__rshift_D2A+0xa>
   1651a:	871a                	mv	a4,t1
   1651c:	0711                	add	a4,a4,4
   1651e:	b7ed                	j	16508 <__rshift_D2A+0x88>

0000000000016520 <__trailz_D2A>:
   16520:	4958                	lw	a4,20(a0)
   16522:	1101                	add	sp,sp,-32
   16524:	0561                	add	a0,a0,24
   16526:	070a                	sll	a4,a4,0x2
   16528:	e822                	sd	s0,16(sp)
   1652a:	ec06                	sd	ra,24(sp)
   1652c:	972a                	add	a4,a4,a0
   1652e:	4401                	li	s0,0
   16530:	00e56863          	bltu	a0,a4,16540 <__trailz_D2A+0x20>
   16534:	a839                	j	16552 <__trailz_D2A+0x32>
   16536:	0511                	add	a0,a0,4
   16538:	0204041b          	addw	s0,s0,32
   1653c:	00e57b63          	bgeu	a0,a4,16552 <__trailz_D2A+0x32>
   16540:	411c                	lw	a5,0(a0)
   16542:	dbf5                	beqz	a5,16536 <__trailz_D2A+0x16>
   16544:	00e57763          	bgeu	a0,a4,16552 <__trailz_D2A+0x32>
   16548:	0068                	add	a0,sp,12
   1654a:	c63e                	sw	a5,12(sp)
   1654c:	2f6000ef          	jal	16842 <__lo0bits>
   16550:	9c29                	addw	s0,s0,a0
   16552:	60e2                	ld	ra,24(sp)
   16554:	8522                	mv	a0,s0
   16556:	6442                	ld	s0,16(sp)
   16558:	6105                	add	sp,sp,32
   1655a:	8082                	ret

000000000001655c <_mbtowc_r>:
   1655c:	0e81b783          	ld	a5,232(gp) # 1b428 <__global_locale+0xe8>
   16560:	8782                	jr	a5

0000000000016562 <__ascii_mbtowc>:
   16562:	c999                	beqz	a1,16578 <__ascii_mbtowc+0x16>
   16564:	c61d                	beqz	a2,16592 <__ascii_mbtowc+0x30>
   16566:	ca95                	beqz	a3,1659a <__ascii_mbtowc+0x38>
   16568:	00064783          	lbu	a5,0(a2)
   1656c:	c19c                	sw	a5,0(a1)
   1656e:	00064503          	lbu	a0,0(a2)
   16572:	00a03533          	snez	a0,a0
   16576:	8082                	ret
   16578:	1141                	add	sp,sp,-16
   1657a:	006c                	add	a1,sp,12
   1657c:	ce09                	beqz	a2,16596 <__ascii_mbtowc+0x34>
   1657e:	c285                	beqz	a3,1659e <__ascii_mbtowc+0x3c>
   16580:	00064783          	lbu	a5,0(a2)
   16584:	c19c                	sw	a5,0(a1)
   16586:	00064503          	lbu	a0,0(a2)
   1658a:	00a03533          	snez	a0,a0
   1658e:	0141                	add	sp,sp,16
   16590:	8082                	ret
   16592:	4501                	li	a0,0
   16594:	8082                	ret
   16596:	4501                	li	a0,0
   16598:	bfdd                	j	1658e <__ascii_mbtowc+0x2c>
   1659a:	5579                	li	a0,-2
   1659c:	8082                	ret
   1659e:	5579                	li	a0,-2
   165a0:	b7fd                	j	1658e <__ascii_mbtowc+0x2c>

00000000000165a2 <_Balloc>:
   165a2:	753c                	ld	a5,104(a0)
   165a4:	1101                	add	sp,sp,-32
   165a6:	e822                	sd	s0,16(sp)
   165a8:	e426                	sd	s1,8(sp)
   165aa:	ec06                	sd	ra,24(sp)
   165ac:	84aa                	mv	s1,a0
   165ae:	842e                	mv	s0,a1
   165b0:	cf99                	beqz	a5,165ce <_Balloc+0x2c>
   165b2:	00341713          	sll	a4,s0,0x3
   165b6:	97ba                	add	a5,a5,a4
   165b8:	6388                	ld	a0,0(a5)
   165ba:	c505                	beqz	a0,165e2 <_Balloc+0x40>
   165bc:	6118                	ld	a4,0(a0)
   165be:	e398                	sd	a4,0(a5)
   165c0:	00053823          	sd	zero,16(a0)
   165c4:	60e2                	ld	ra,24(sp)
   165c6:	6442                	ld	s0,16(sp)
   165c8:	64a2                	ld	s1,8(sp)
   165ca:	6105                	add	sp,sp,32
   165cc:	8082                	ret
   165ce:	04100613          	li	a2,65
   165d2:	45a1                	li	a1,8
   165d4:	390010ef          	jal	17964 <_calloc_r>
   165d8:	f4a8                	sd	a0,104(s1)
   165da:	87aa                	mv	a5,a0
   165dc:	f979                	bnez	a0,165b2 <_Balloc+0x10>
   165de:	4501                	li	a0,0
   165e0:	b7d5                	j	165c4 <_Balloc+0x22>
   165e2:	4785                	li	a5,1
   165e4:	008797bb          	sllw	a5,a5,s0
   165e8:	0007861b          	sext.w	a2,a5
   165ec:	061d                	add	a2,a2,7
   165ee:	1402                	sll	s0,s0,0x20
   165f0:	1782                	sll	a5,a5,0x20
   165f2:	9001                	srl	s0,s0,0x20
   165f4:	060a                	sll	a2,a2,0x2
   165f6:	4585                	li	a1,1
   165f8:	8526                	mv	a0,s1
   165fa:	8c5d                	or	s0,s0,a5
   165fc:	368010ef          	jal	17964 <_calloc_r>
   16600:	dd79                	beqz	a0,165de <_Balloc+0x3c>
   16602:	e500                	sd	s0,8(a0)
   16604:	bf75                	j	165c0 <_Balloc+0x1e>

0000000000016606 <_Bfree>:
   16606:	c981                	beqz	a1,16616 <_Bfree+0x10>
   16608:	4598                	lw	a4,8(a1)
   1660a:	753c                	ld	a5,104(a0)
   1660c:	070e                	sll	a4,a4,0x3
   1660e:	97ba                	add	a5,a5,a4
   16610:	6398                	ld	a4,0(a5)
   16612:	e198                	sd	a4,0(a1)
   16614:	e38c                	sd	a1,0(a5)
   16616:	8082                	ret

0000000000016618 <__multadd>:
   16618:	7179                	add	sp,sp,-48
   1661a:	f022                	sd	s0,32(sp)
   1661c:	49c0                	lw	s0,20(a1)
   1661e:	6341                	lui	t1,0x10
   16620:	e84a                	sd	s2,16(sp)
   16622:	e44e                	sd	s3,8(sp)
   16624:	f406                	sd	ra,40(sp)
   16626:	ec26                	sd	s1,24(sp)
   16628:	892e                	mv	s2,a1
   1662a:	89aa                	mv	s3,a0
   1662c:	01858813          	add	a6,a1,24
   16630:	4881                	li	a7,0
   16632:	137d                	add	t1,t1,-1 # ffff <exit-0xe9>
   16634:	00082783          	lw	a5,0(a6)
   16638:	0811                	add	a6,a6,4
   1663a:	2885                	addw	a7,a7,1
   1663c:	0067f733          	and	a4,a5,t1
   16640:	02c7073b          	mulw	a4,a4,a2
   16644:	0107d79b          	srlw	a5,a5,0x10
   16648:	02c787bb          	mulw	a5,a5,a2
   1664c:	9f35                	addw	a4,a4,a3
   1664e:	0107569b          	srlw	a3,a4,0x10
   16652:	00e37733          	and	a4,t1,a4
   16656:	9fb5                	addw	a5,a5,a3
   16658:	0107969b          	sllw	a3,a5,0x10
   1665c:	9f35                	addw	a4,a4,a3
   1665e:	fee82e23          	sw	a4,-4(a6)
   16662:	0107d49b          	srlw	s1,a5,0x10
   16666:	0107d69b          	srlw	a3,a5,0x10
   1666a:	fc88c5e3          	blt	a7,s0,16634 <__multadd+0x1c>
   1666e:	ce89                	beqz	a3,16688 <__multadd+0x70>
   16670:	00c92783          	lw	a5,12(s2)
   16674:	02f45263          	bge	s0,a5,16698 <__multadd+0x80>
   16678:	00440793          	add	a5,s0,4
   1667c:	078a                	sll	a5,a5,0x2
   1667e:	97ca                	add	a5,a5,s2
   16680:	c784                	sw	s1,8(a5)
   16682:	2405                	addw	s0,s0,1
   16684:	00892a23          	sw	s0,20(s2)
   16688:	70a2                	ld	ra,40(sp)
   1668a:	7402                	ld	s0,32(sp)
   1668c:	64e2                	ld	s1,24(sp)
   1668e:	69a2                	ld	s3,8(sp)
   16690:	854a                	mv	a0,s2
   16692:	6942                	ld	s2,16(sp)
   16694:	6145                	add	sp,sp,48
   16696:	8082                	ret
   16698:	00892583          	lw	a1,8(s2)
   1669c:	854e                	mv	a0,s3
   1669e:	e052                	sd	s4,0(sp)
   166a0:	2585                	addw	a1,a1,1
   166a2:	f01ff0ef          	jal	165a2 <_Balloc>
   166a6:	8a2a                	mv	s4,a0
   166a8:	c121                	beqz	a0,166e8 <__multadd+0xd0>
   166aa:	01492603          	lw	a2,20(s2)
   166ae:	01090593          	add	a1,s2,16
   166b2:	0541                	add	a0,a0,16
   166b4:	0609                	add	a2,a2,2
   166b6:	060a                	sll	a2,a2,0x2
   166b8:	d7efe0ef          	jal	14c36 <memcpy>
   166bc:	00892703          	lw	a4,8(s2)
   166c0:	0689b783          	ld	a5,104(s3)
   166c4:	070e                	sll	a4,a4,0x3
   166c6:	97ba                	add	a5,a5,a4
   166c8:	6398                	ld	a4,0(a5)
   166ca:	00e93023          	sd	a4,0(s2)
   166ce:	0127b023          	sd	s2,0(a5)
   166d2:	00440793          	add	a5,s0,4
   166d6:	8952                	mv	s2,s4
   166d8:	078a                	sll	a5,a5,0x2
   166da:	97ca                	add	a5,a5,s2
   166dc:	6a02                	ld	s4,0(sp)
   166de:	2405                	addw	s0,s0,1
   166e0:	c784                	sw	s1,8(a5)
   166e2:	00892a23          	sw	s0,20(s2)
   166e6:	b74d                	j	16688 <__multadd+0x70>
   166e8:	66e5                	lui	a3,0x19
   166ea:	6565                	lui	a0,0x19
   166ec:	29868693          	add	a3,a3,664 # 19298 <__clzdi2+0xf6>
   166f0:	4601                	li	a2,0
   166f2:	0ba00593          	li	a1,186
   166f6:	2b050513          	add	a0,a0,688 # 192b0 <__clzdi2+0x10e>
   166fa:	222010ef          	jal	1791c <__assert_func>

00000000000166fe <__s2b>:
   166fe:	7139                	add	sp,sp,-64
   16700:	f822                	sd	s0,48(sp)
   16702:	f426                	sd	s1,40(sp)
   16704:	f04a                	sd	s2,32(sp)
   16706:	ec4e                	sd	s3,24(sp)
   16708:	e852                	sd	s4,16(sp)
   1670a:	84b6                	mv	s1,a3
   1670c:	842e                	mv	s0,a1
   1670e:	26a1                	addw	a3,a3,8
   16710:	45a5                	li	a1,9
   16712:	fc06                	sd	ra,56(sp)
   16714:	47a5                	li	a5,9
   16716:	02b6c6bb          	divw	a3,a3,a1
   1671a:	892a                	mv	s2,a0
   1671c:	8a32                	mv	s4,a2
   1671e:	89ba                	mv	s3,a4
   16720:	0a97d363          	bge	a5,s1,167c6 <__s2b+0xc8>
   16724:	4785                	li	a5,1
   16726:	4581                	li	a1,0
   16728:	0017979b          	sllw	a5,a5,0x1
   1672c:	2585                	addw	a1,a1,1
   1672e:	fed7cde3          	blt	a5,a3,16728 <__s2b+0x2a>
   16732:	854a                	mv	a0,s2
   16734:	e6fff0ef          	jal	165a2 <_Balloc>
   16738:	85aa                	mv	a1,a0
   1673a:	c941                	beqz	a0,167ca <__s2b+0xcc>
   1673c:	4785                	li	a5,1
   1673e:	c95c                	sw	a5,20(a0)
   16740:	01352c23          	sw	s3,24(a0)
   16744:	47a5                	li	a5,9
   16746:	0747dd63          	bge	a5,s4,167c0 <__s2b+0xc2>
   1674a:	020a1793          	sll	a5,s4,0x20
   1674e:	e05a                	sd	s6,0(sp)
   16750:	9381                	srl	a5,a5,0x20
   16752:	00940b13          	add	s6,s0,9
   16756:	e456                	sd	s5,8(sp)
   16758:	943e                	add	s0,s0,a5
   1675a:	000a0a9b          	sext.w	s5,s4
   1675e:	89da                	mv	s3,s6
   16760:	0009c683          	lbu	a3,0(s3)
   16764:	4629                	li	a2,10
   16766:	854a                	mv	a0,s2
   16768:	fd06869b          	addw	a3,a3,-48
   1676c:	eadff0ef          	jal	16618 <__multadd>
   16770:	0985                	add	s3,s3,1
   16772:	85aa                	mv	a1,a0
   16774:	fe8996e3          	bne	s3,s0,16760 <__s2b+0x62>
   16778:	3ae1                	addw	s5,s5,-8
   1677a:	1a82                	sll	s5,s5,0x20
   1677c:	020ada93          	srl	s5,s5,0x20
   16780:	015b0433          	add	s0,s6,s5
   16784:	6aa2                	ld	s5,8(sp)
   16786:	6b02                	ld	s6,0(sp)
   16788:	029a5363          	bge	s4,s1,167ae <__s2b+0xb0>
   1678c:	414484bb          	subw	s1,s1,s4
   16790:	1482                	sll	s1,s1,0x20
   16792:	9081                	srl	s1,s1,0x20
   16794:	94a2                	add	s1,s1,s0
   16796:	00044683          	lbu	a3,0(s0)
   1679a:	4629                	li	a2,10
   1679c:	854a                	mv	a0,s2
   1679e:	fd06869b          	addw	a3,a3,-48
   167a2:	e77ff0ef          	jal	16618 <__multadd>
   167a6:	0405                	add	s0,s0,1
   167a8:	85aa                	mv	a1,a0
   167aa:	fe9416e3          	bne	s0,s1,16796 <__s2b+0x98>
   167ae:	70e2                	ld	ra,56(sp)
   167b0:	7442                	ld	s0,48(sp)
   167b2:	74a2                	ld	s1,40(sp)
   167b4:	7902                	ld	s2,32(sp)
   167b6:	69e2                	ld	s3,24(sp)
   167b8:	6a42                	ld	s4,16(sp)
   167ba:	852e                	mv	a0,a1
   167bc:	6121                	add	sp,sp,64
   167be:	8082                	ret
   167c0:	0429                	add	s0,s0,10
   167c2:	4a25                	li	s4,9
   167c4:	b7d1                	j	16788 <__s2b+0x8a>
   167c6:	4581                	li	a1,0
   167c8:	b7ad                	j	16732 <__s2b+0x34>
   167ca:	66e5                	lui	a3,0x19
   167cc:	6565                	lui	a0,0x19
   167ce:	29868693          	add	a3,a3,664 # 19298 <__clzdi2+0xf6>
   167d2:	4601                	li	a2,0
   167d4:	0d300593          	li	a1,211
   167d8:	2b050513          	add	a0,a0,688 # 192b0 <__clzdi2+0x10e>
   167dc:	e456                	sd	s5,8(sp)
   167de:	e05a                	sd	s6,0(sp)
   167e0:	13c010ef          	jal	1791c <__assert_func>

00000000000167e4 <__hi0bits>:
   167e4:	87aa                	mv	a5,a0
   167e6:	6741                	lui	a4,0x10
   167e8:	4501                	li	a0,0
   167ea:	00e7f563          	bgeu	a5,a4,167f4 <__hi0bits+0x10>
   167ee:	0107979b          	sllw	a5,a5,0x10
   167f2:	4541                	li	a0,16
   167f4:	01000737          	lui	a4,0x1000
   167f8:	00e7f563          	bgeu	a5,a4,16802 <__hi0bits+0x1e>
   167fc:	0087979b          	sllw	a5,a5,0x8
   16800:	2521                	addw	a0,a0,8
   16802:	10000737          	lui	a4,0x10000
   16806:	00e7f563          	bgeu	a5,a4,16810 <__hi0bits+0x2c>
   1680a:	0047979b          	sllw	a5,a5,0x4
   1680e:	2511                	addw	a0,a0,4
   16810:	40000737          	lui	a4,0x40000
   16814:	00e7e663          	bltu	a5,a4,16820 <__hi0bits+0x3c>
   16818:	0207c063          	bltz	a5,16838 <__hi0bits+0x54>
   1681c:	2505                	addw	a0,a0,1
   1681e:	8082                	ret
   16820:	02279693          	sll	a3,a5,0x22
   16824:	0027971b          	sllw	a4,a5,0x2
   16828:	0006c963          	bltz	a3,1683a <__hi0bits+0x56>
   1682c:	02171793          	sll	a5,a4,0x21
   16830:	0007c763          	bltz	a5,1683e <__hi0bits+0x5a>
   16834:	02000513          	li	a0,32
   16838:	8082                	ret
   1683a:	2509                	addw	a0,a0,2
   1683c:	8082                	ret
   1683e:	250d                	addw	a0,a0,3
   16840:	8082                	ret

0000000000016842 <__lo0bits>:
   16842:	411c                	lw	a5,0(a0)
   16844:	872a                	mv	a4,a0
   16846:	0077f693          	and	a3,a5,7
   1684a:	863e                	mv	a2,a5
   1684c:	ce81                	beqz	a3,16864 <__lo0bits+0x22>
   1684e:	0017f693          	and	a3,a5,1
   16852:	4501                	li	a0,0
   16854:	ee9d                	bnez	a3,16892 <__lo0bits+0x50>
   16856:	8a09                	and	a2,a2,2
   16858:	ce25                	beqz	a2,168d0 <__lo0bits+0x8e>
   1685a:	0017d79b          	srlw	a5,a5,0x1
   1685e:	c31c                	sw	a5,0(a4)
   16860:	4505                	li	a0,1
   16862:	8082                	ret
   16864:	03079693          	sll	a3,a5,0x30
   16868:	92c1                	srl	a3,a3,0x30
   1686a:	4501                	li	a0,0
   1686c:	cab9                	beqz	a3,168c2 <__lo0bits+0x80>
   1686e:	0ff7f693          	zext.b	a3,a5
   16872:	c2a9                	beqz	a3,168b4 <__lo0bits+0x72>
   16874:	00f7f693          	and	a3,a5,15
   16878:	c69d                	beqz	a3,168a6 <__lo0bits+0x64>
   1687a:	0037f693          	and	a3,a5,3
   1687e:	ce89                	beqz	a3,16898 <__lo0bits+0x56>
   16880:	0017f693          	and	a3,a5,1
   16884:	ea81                	bnez	a3,16894 <__lo0bits+0x52>
   16886:	0017d79b          	srlw	a5,a5,0x1
   1688a:	2505                	addw	a0,a0,1
   1688c:	e781                	bnez	a5,16894 <__lo0bits+0x52>
   1688e:	02000513          	li	a0,32
   16892:	8082                	ret
   16894:	c31c                	sw	a5,0(a4)
   16896:	8082                	ret
   16898:	0027d79b          	srlw	a5,a5,0x2
   1689c:	0017f693          	and	a3,a5,1
   168a0:	2509                	addw	a0,a0,2
   168a2:	faed                	bnez	a3,16894 <__lo0bits+0x52>
   168a4:	b7cd                	j	16886 <__lo0bits+0x44>
   168a6:	0047d79b          	srlw	a5,a5,0x4
   168aa:	0037f693          	and	a3,a5,3
   168ae:	2511                	addw	a0,a0,4
   168b0:	fae1                	bnez	a3,16880 <__lo0bits+0x3e>
   168b2:	b7dd                	j	16898 <__lo0bits+0x56>
   168b4:	0087d79b          	srlw	a5,a5,0x8
   168b8:	00f7f693          	and	a3,a5,15
   168bc:	2521                	addw	a0,a0,8
   168be:	fed5                	bnez	a3,1687a <__lo0bits+0x38>
   168c0:	b7dd                	j	168a6 <__lo0bits+0x64>
   168c2:	0107d79b          	srlw	a5,a5,0x10
   168c6:	0ff7f693          	zext.b	a3,a5
   168ca:	4541                	li	a0,16
   168cc:	f6c5                	bnez	a3,16874 <__lo0bits+0x32>
   168ce:	b7dd                	j	168b4 <__lo0bits+0x72>
   168d0:	0027d79b          	srlw	a5,a5,0x2
   168d4:	c31c                	sw	a5,0(a4)
   168d6:	4509                	li	a0,2
   168d8:	8082                	ret

00000000000168da <__i2b>:
   168da:	753c                	ld	a5,104(a0)
   168dc:	1101                	add	sp,sp,-32
   168de:	e822                	sd	s0,16(sp)
   168e0:	e426                	sd	s1,8(sp)
   168e2:	ec06                	sd	ra,24(sp)
   168e4:	842a                	mv	s0,a0
   168e6:	84ae                	mv	s1,a1
   168e8:	cf91                	beqz	a5,16904 <__i2b+0x2a>
   168ea:	6788                	ld	a0,8(a5)
   168ec:	cd1d                	beqz	a0,1692a <__i2b+0x50>
   168ee:	6118                	ld	a4,0(a0)
   168f0:	e798                	sd	a4,8(a5)
   168f2:	60e2                	ld	ra,24(sp)
   168f4:	6442                	ld	s0,16(sp)
   168f6:	4785                	li	a5,1
   168f8:	1782                	sll	a5,a5,0x20
   168fa:	cd04                	sw	s1,24(a0)
   168fc:	e91c                	sd	a5,16(a0)
   168fe:	64a2                	ld	s1,8(sp)
   16900:	6105                	add	sp,sp,32
   16902:	8082                	ret
   16904:	04100613          	li	a2,65
   16908:	45a1                	li	a1,8
   1690a:	05a010ef          	jal	17964 <_calloc_r>
   1690e:	f428                	sd	a0,104(s0)
   16910:	87aa                	mv	a5,a0
   16912:	fd61                	bnez	a0,168ea <__i2b+0x10>
   16914:	66e5                	lui	a3,0x19
   16916:	6565                	lui	a0,0x19
   16918:	29868693          	add	a3,a3,664 # 19298 <__clzdi2+0xf6>
   1691c:	4601                	li	a2,0
   1691e:	14500593          	li	a1,325
   16922:	2b050513          	add	a0,a0,688 # 192b0 <__clzdi2+0x10e>
   16926:	7f7000ef          	jal	1791c <__assert_func>
   1692a:	02400613          	li	a2,36
   1692e:	4585                	li	a1,1
   16930:	8522                	mv	a0,s0
   16932:	032010ef          	jal	17964 <_calloc_r>
   16936:	dd79                	beqz	a0,16914 <__i2b+0x3a>
   16938:	4785                	li	a5,1
   1693a:	1786                	sll	a5,a5,0x21
   1693c:	0785                	add	a5,a5,1
   1693e:	e51c                	sd	a5,8(a0)
   16940:	bf4d                	j	168f2 <__i2b+0x18>

0000000000016942 <__multiply>:
   16942:	7179                	add	sp,sp,-48
   16944:	e84a                	sd	s2,16(sp)
   16946:	e44e                	sd	s3,8(sp)
   16948:	01462903          	lw	s2,20(a2)
   1694c:	0145a983          	lw	s3,20(a1)
   16950:	ec26                	sd	s1,24(sp)
   16952:	e052                	sd	s4,0(sp)
   16954:	f406                	sd	ra,40(sp)
   16956:	f022                	sd	s0,32(sp)
   16958:	8a2e                	mv	s4,a1
   1695a:	84b2                	mv	s1,a2
   1695c:	0129c763          	blt	s3,s2,1696a <__multiply+0x28>
   16960:	87ca                	mv	a5,s2
   16962:	84ae                	mv	s1,a1
   16964:	894e                	mv	s2,s3
   16966:	8a32                	mv	s4,a2
   16968:	89be                	mv	s3,a5
   1696a:	44dc                	lw	a5,12(s1)
   1696c:	0139043b          	addw	s0,s2,s3
   16970:	448c                	lw	a1,8(s1)
   16972:	0087d363          	bge	a5,s0,16978 <__multiply+0x36>
   16976:	2585                	addw	a1,a1,1
   16978:	c2bff0ef          	jal	165a2 <_Balloc>
   1697c:	14050c63          	beqz	a0,16ad4 <__multiply+0x192>
   16980:	01850313          	add	t1,a0,24
   16984:	00241893          	sll	a7,s0,0x2
   16988:	989a                	add	a7,a7,t1
   1698a:	879a                	mv	a5,t1
   1698c:	01137763          	bgeu	t1,a7,1699a <__multiply+0x58>
   16990:	0007a023          	sw	zero,0(a5)
   16994:	0791                	add	a5,a5,4
   16996:	ff17ede3          	bltu	a5,a7,16990 <__multiply+0x4e>
   1699a:	018a0813          	add	a6,s4,24
   1699e:	00299e13          	sll	t3,s3,0x2
   169a2:	01848e93          	add	t4,s1,24
   169a6:	00291593          	sll	a1,s2,0x2
   169aa:	9e42                	add	t3,t3,a6
   169ac:	95f6                	add	a1,a1,t4
   169ae:	0fc87a63          	bgeu	a6,t3,16aa2 <__multiply+0x160>
   169b2:	01948793          	add	a5,s1,25
   169b6:	4f11                	li	t5,4
   169b8:	10f5f763          	bgeu	a1,a5,16ac6 <__multiply+0x184>
   169bc:	66c1                	lui	a3,0x10
   169be:	16fd                	add	a3,a3,-1 # ffff <exit-0xe9>
   169c0:	a809                	j	169d2 <__multiply+0x90>
   169c2:	010fdf9b          	srlw	t6,t6,0x10
   169c6:	060f9d63          	bnez	t6,16a40 <__multiply+0xfe>
   169ca:	0811                	add	a6,a6,4
   169cc:	0311                	add	t1,t1,4
   169ce:	0dc87a63          	bgeu	a6,t3,16aa2 <__multiply+0x160>
   169d2:	00082f83          	lw	t6,0(a6)
   169d6:	00dff3b3          	and	t2,t6,a3
   169da:	fe0384e3          	beqz	t2,169c2 <__multiply+0x80>
   169de:	829a                	mv	t0,t1
   169e0:	8ff6                	mv	t6,t4
   169e2:	4481                	li	s1,0
   169e4:	000fa783          	lw	a5,0(t6)
   169e8:	0002a603          	lw	a2,0(t0)
   169ec:	0291                	add	t0,t0,4
   169ee:	00d7f733          	and	a4,a5,a3
   169f2:	0277073b          	mulw	a4,a4,t2
   169f6:	0107d79b          	srlw	a5,a5,0x10
   169fa:	00d67933          	and	s2,a2,a3
   169fe:	0106561b          	srlw	a2,a2,0x10
   16a02:	0f91                	add	t6,t6,4
   16a04:	027787bb          	mulw	a5,a5,t2
   16a08:	0127073b          	addw	a4,a4,s2
   16a0c:	9f25                	addw	a4,a4,s1
   16a0e:	0107549b          	srlw	s1,a4,0x10
   16a12:	8f75                	and	a4,a4,a3
   16a14:	9fb1                	addw	a5,a5,a2
   16a16:	9fa5                	addw	a5,a5,s1
   16a18:	0107961b          	sllw	a2,a5,0x10
   16a1c:	8f51                	or	a4,a4,a2
   16a1e:	fee2ae23          	sw	a4,-4(t0)
   16a22:	0107d49b          	srlw	s1,a5,0x10
   16a26:	0107d71b          	srlw	a4,a5,0x10
   16a2a:	fabfede3          	bltu	t6,a1,169e4 <__multiply+0xa2>
   16a2e:	01e307b3          	add	a5,t1,t5
   16a32:	c398                	sw	a4,0(a5)
   16a34:	00082f83          	lw	t6,0(a6)
   16a38:	010fdf9b          	srlw	t6,t6,0x10
   16a3c:	f80f87e3          	beqz	t6,169ca <__multiply+0x88>
   16a40:	00032703          	lw	a4,0(t1)
   16a44:	829a                	mv	t0,t1
   16a46:	8676                	mv	a2,t4
   16a48:	83ba                	mv	t2,a4
   16a4a:	4481                	li	s1,0
   16a4c:	421c                	lw	a5,0(a2)
   16a4e:	0103d99b          	srlw	s3,t2,0x10
   16a52:	8f75                	and	a4,a4,a3
   16a54:	8ff5                	and	a5,a5,a3
   16a56:	03f787bb          	mulw	a5,a5,t6
   16a5a:	0042a383          	lw	t2,4(t0)
   16a5e:	0291                	add	t0,t0,4
   16a60:	0611                	add	a2,a2,4
   16a62:	00d3f933          	and	s2,t2,a3
   16a66:	9fa5                	addw	a5,a5,s1
   16a68:	013787bb          	addw	a5,a5,s3
   16a6c:	0107949b          	sllw	s1,a5,0x10
   16a70:	8f45                	or	a4,a4,s1
   16a72:	fee2ae23          	sw	a4,-4(t0)
   16a76:	ffe65703          	lhu	a4,-2(a2)
   16a7a:	0107d79b          	srlw	a5,a5,0x10
   16a7e:	03f7073b          	mulw	a4,a4,t6
   16a82:	0127073b          	addw	a4,a4,s2
   16a86:	9fb9                	addw	a5,a5,a4
   16a88:	0007871b          	sext.w	a4,a5
   16a8c:	0107d49b          	srlw	s1,a5,0x10
   16a90:	fab66ee3          	bltu	a2,a1,16a4c <__multiply+0x10a>
   16a94:	01e30733          	add	a4,t1,t5
   16a98:	c31c                	sw	a5,0(a4)
   16a9a:	0811                	add	a6,a6,4
   16a9c:	0311                	add	t1,t1,4
   16a9e:	f3c86ae3          	bltu	a6,t3,169d2 <__multiply+0x90>
   16aa2:	00804563          	bgtz	s0,16aac <__multiply+0x16a>
   16aa6:	a039                	j	16ab4 <__multiply+0x172>
   16aa8:	347d                	addw	s0,s0,-1
   16aaa:	c409                	beqz	s0,16ab4 <__multiply+0x172>
   16aac:	ffc8a783          	lw	a5,-4(a7)
   16ab0:	18f1                	add	a7,a7,-4
   16ab2:	dbfd                	beqz	a5,16aa8 <__multiply+0x166>
   16ab4:	70a2                	ld	ra,40(sp)
   16ab6:	c940                	sw	s0,20(a0)
   16ab8:	7402                	ld	s0,32(sp)
   16aba:	64e2                	ld	s1,24(sp)
   16abc:	6942                	ld	s2,16(sp)
   16abe:	69a2                	ld	s3,8(sp)
   16ac0:	6a02                	ld	s4,0(sp)
   16ac2:	6145                	add	sp,sp,48
   16ac4:	8082                	ret
   16ac6:	409587b3          	sub	a5,a1,s1
   16aca:	179d                	add	a5,a5,-25
   16acc:	9bf1                	and	a5,a5,-4
   16ace:	00478f13          	add	t5,a5,4
   16ad2:	b5ed                	j	169bc <__multiply+0x7a>
   16ad4:	66e5                	lui	a3,0x19
   16ad6:	6565                	lui	a0,0x19
   16ad8:	29868693          	add	a3,a3,664 # 19298 <__clzdi2+0xf6>
   16adc:	4601                	li	a2,0
   16ade:	16200593          	li	a1,354
   16ae2:	2b050513          	add	a0,a0,688 # 192b0 <__clzdi2+0x10e>
   16ae6:	637000ef          	jal	1791c <__assert_func>

0000000000016aea <__pow5mult>:
   16aea:	7179                	add	sp,sp,-48
   16aec:	f022                	sd	s0,32(sp)
   16aee:	e84a                	sd	s2,16(sp)
   16af0:	e44e                	sd	s3,8(sp)
   16af2:	f406                	sd	ra,40(sp)
   16af4:	00367793          	and	a5,a2,3
   16af8:	8432                	mv	s0,a2
   16afa:	89aa                	mv	s3,a0
   16afc:	892e                	mv	s2,a1
   16afe:	ebad                	bnez	a5,16b70 <__pow5mult+0x86>
   16b00:	8409                	sra	s0,s0,0x2
   16b02:	c431                	beqz	s0,16b4e <__pow5mult+0x64>
   16b04:	ec26                	sd	s1,24(sp)
   16b06:	0609b483          	ld	s1,96(s3)
   16b0a:	ccbd                	beqz	s1,16b88 <__pow5mult+0x9e>
   16b0c:	00147793          	and	a5,s0,1
   16b10:	eb89                	bnez	a5,16b22 <__pow5mult+0x38>
   16b12:	8405                	sra	s0,s0,0x1
   16b14:	cc05                	beqz	s0,16b4c <__pow5mult+0x62>
   16b16:	6088                	ld	a0,0(s1)
   16b18:	c131                	beqz	a0,16b5c <__pow5mult+0x72>
   16b1a:	84aa                	mv	s1,a0
   16b1c:	00147793          	and	a5,s0,1
   16b20:	dbed                	beqz	a5,16b12 <__pow5mult+0x28>
   16b22:	8626                	mv	a2,s1
   16b24:	85ca                	mv	a1,s2
   16b26:	854e                	mv	a0,s3
   16b28:	e1bff0ef          	jal	16942 <__multiply>
   16b2c:	00090d63          	beqz	s2,16b46 <__pow5mult+0x5c>
   16b30:	00892703          	lw	a4,8(s2)
   16b34:	0689b783          	ld	a5,104(s3)
   16b38:	070e                	sll	a4,a4,0x3
   16b3a:	97ba                	add	a5,a5,a4
   16b3c:	6398                	ld	a4,0(a5)
   16b3e:	00e93023          	sd	a4,0(s2)
   16b42:	0127b023          	sd	s2,0(a5)
   16b46:	8405                	sra	s0,s0,0x1
   16b48:	892a                	mv	s2,a0
   16b4a:	f471                	bnez	s0,16b16 <__pow5mult+0x2c>
   16b4c:	64e2                	ld	s1,24(sp)
   16b4e:	70a2                	ld	ra,40(sp)
   16b50:	7402                	ld	s0,32(sp)
   16b52:	69a2                	ld	s3,8(sp)
   16b54:	854a                	mv	a0,s2
   16b56:	6942                	ld	s2,16(sp)
   16b58:	6145                	add	sp,sp,48
   16b5a:	8082                	ret
   16b5c:	8626                	mv	a2,s1
   16b5e:	85a6                	mv	a1,s1
   16b60:	854e                	mv	a0,s3
   16b62:	de1ff0ef          	jal	16942 <__multiply>
   16b66:	e088                	sd	a0,0(s1)
   16b68:	00053023          	sd	zero,0(a0)
   16b6c:	84aa                	mv	s1,a0
   16b6e:	b77d                	j	16b1c <__pow5mult+0x32>
   16b70:	37fd                	addw	a5,a5,-1
   16b72:	6765                	lui	a4,0x19
   16b74:	67070713          	add	a4,a4,1648 # 19670 <p05.0>
   16b78:	078a                	sll	a5,a5,0x2
   16b7a:	97ba                	add	a5,a5,a4
   16b7c:	4390                	lw	a2,0(a5)
   16b7e:	4681                	li	a3,0
   16b80:	a99ff0ef          	jal	16618 <__multadd>
   16b84:	892a                	mv	s2,a0
   16b86:	bfad                	j	16b00 <__pow5mult+0x16>
   16b88:	4585                	li	a1,1
   16b8a:	854e                	mv	a0,s3
   16b8c:	a17ff0ef          	jal	165a2 <_Balloc>
   16b90:	84aa                	mv	s1,a0
   16b92:	c919                	beqz	a0,16ba8 <__pow5mult+0xbe>
   16b94:	27100793          	li	a5,625
   16b98:	cd1c                	sw	a5,24(a0)
   16b9a:	4785                	li	a5,1
   16b9c:	c95c                	sw	a5,20(a0)
   16b9e:	06a9b023          	sd	a0,96(s3)
   16ba2:	00053023          	sd	zero,0(a0)
   16ba6:	b79d                	j	16b0c <__pow5mult+0x22>
   16ba8:	66e5                	lui	a3,0x19
   16baa:	6565                	lui	a0,0x19
   16bac:	29868693          	add	a3,a3,664 # 19298 <__clzdi2+0xf6>
   16bb0:	4601                	li	a2,0
   16bb2:	14500593          	li	a1,325
   16bb6:	2b050513          	add	a0,a0,688 # 192b0 <__clzdi2+0x10e>
   16bba:	563000ef          	jal	1791c <__assert_func>

0000000000016bbe <__lshift>:
   16bbe:	7139                	add	sp,sp,-64
   16bc0:	f822                	sd	s0,48(sp)
   16bc2:	49c0                	lw	s0,20(a1)
   16bc4:	45dc                	lw	a5,12(a1)
   16bc6:	e456                	sd	s5,8(sp)
   16bc8:	40565a9b          	sraw	s5,a2,0x5
   16bcc:	008a843b          	addw	s0,s5,s0
   16bd0:	f426                	sd	s1,40(sp)
   16bd2:	f04a                	sd	s2,32(sp)
   16bd4:	ec4e                	sd	s3,24(sp)
   16bd6:	e852                	sd	s4,16(sp)
   16bd8:	e05a                	sd	s6,0(sp)
   16bda:	fc06                	sd	ra,56(sp)
   16bdc:	0014091b          	addw	s2,s0,1
   16be0:	84ae                	mv	s1,a1
   16be2:	8a32                	mv	s4,a2
   16be4:	458c                	lw	a1,8(a1)
   16be6:	89aa                	mv	s3,a0
   16be8:	40565b13          	sra	s6,a2,0x5
   16bec:	0127d763          	bge	a5,s2,16bfa <__lshift+0x3c>
   16bf0:	0017979b          	sllw	a5,a5,0x1
   16bf4:	2585                	addw	a1,a1,1
   16bf6:	ff27cde3          	blt	a5,s2,16bf0 <__lshift+0x32>
   16bfa:	854e                	mv	a0,s3
   16bfc:	9a7ff0ef          	jal	165a2 <_Balloc>
   16c00:	c571                	beqz	a0,16ccc <__lshift+0x10e>
   16c02:	01850713          	add	a4,a0,24
   16c06:	03605163          	blez	s6,16c28 <__lshift+0x6a>
   16c0a:	006a869b          	addw	a3,s5,6
   16c0e:	068a                	sll	a3,a3,0x2
   16c10:	96aa                	add	a3,a3,a0
   16c12:	87ba                	mv	a5,a4
   16c14:	0791                	add	a5,a5,4
   16c16:	fe07ae23          	sw	zero,-4(a5)
   16c1a:	fed79de3          	bne	a5,a3,16c14 <__lshift+0x56>
   16c1e:	020a9793          	sll	a5,s5,0x20
   16c22:	01e7da93          	srl	s5,a5,0x1e
   16c26:	9756                	add	a4,a4,s5
   16c28:	0144a883          	lw	a7,20(s1)
   16c2c:	01848793          	add	a5,s1,24
   16c30:	01fa7613          	and	a2,s4,31
   16c34:	088a                	sll	a7,a7,0x2
   16c36:	98be                	add	a7,a7,a5
   16c38:	ca3d                	beqz	a2,16cae <__lshift+0xf0>
   16c3a:	02000593          	li	a1,32
   16c3e:	9d91                	subw	a1,a1,a2
   16c40:	833a                	mv	t1,a4
   16c42:	4681                	li	a3,0
   16c44:	0007a803          	lw	a6,0(a5)
   16c48:	0311                	add	t1,t1,4
   16c4a:	0791                	add	a5,a5,4
   16c4c:	00c8183b          	sllw	a6,a6,a2
   16c50:	0106e6b3          	or	a3,a3,a6
   16c54:	fed32e23          	sw	a3,-4(t1)
   16c58:	ffc7a803          	lw	a6,-4(a5)
   16c5c:	00b856bb          	srlw	a3,a6,a1
   16c60:	8836                	mv	a6,a3
   16c62:	ff17e1e3          	bltu	a5,a7,16c44 <__lshift+0x86>
   16c66:	01948793          	add	a5,s1,25
   16c6a:	4611                	li	a2,4
   16c6c:	00f8e863          	bltu	a7,a5,16c7c <__lshift+0xbe>
   16c70:	409887b3          	sub	a5,a7,s1
   16c74:	179d                	add	a5,a5,-25
   16c76:	9bf1                	and	a5,a5,-4
   16c78:	00478613          	add	a2,a5,4
   16c7c:	9732                	add	a4,a4,a2
   16c7e:	01072023          	sw	a6,0(a4)
   16c82:	e291                	bnez	a3,16c86 <__lshift+0xc8>
   16c84:	8922                	mv	s2,s0
   16c86:	4498                	lw	a4,8(s1)
   16c88:	0689b783          	ld	a5,104(s3)
   16c8c:	70e2                	ld	ra,56(sp)
   16c8e:	070e                	sll	a4,a4,0x3
   16c90:	97ba                	add	a5,a5,a4
   16c92:	6398                	ld	a4,0(a5)
   16c94:	01252a23          	sw	s2,20(a0)
   16c98:	7442                	ld	s0,48(sp)
   16c9a:	e098                	sd	a4,0(s1)
   16c9c:	e384                	sd	s1,0(a5)
   16c9e:	7902                	ld	s2,32(sp)
   16ca0:	74a2                	ld	s1,40(sp)
   16ca2:	69e2                	ld	s3,24(sp)
   16ca4:	6a42                	ld	s4,16(sp)
   16ca6:	6aa2                	ld	s5,8(sp)
   16ca8:	6b02                	ld	s6,0(sp)
   16caa:	6121                	add	sp,sp,64
   16cac:	8082                	ret
   16cae:	4394                	lw	a3,0(a5)
   16cb0:	0791                	add	a5,a5,4
   16cb2:	0711                	add	a4,a4,4
   16cb4:	fed72e23          	sw	a3,-4(a4)
   16cb8:	fd17f6e3          	bgeu	a5,a7,16c84 <__lshift+0xc6>
   16cbc:	4394                	lw	a3,0(a5)
   16cbe:	0791                	add	a5,a5,4
   16cc0:	0711                	add	a4,a4,4
   16cc2:	fed72e23          	sw	a3,-4(a4)
   16cc6:	ff17e4e3          	bltu	a5,a7,16cae <__lshift+0xf0>
   16cca:	bf6d                	j	16c84 <__lshift+0xc6>
   16ccc:	66e5                	lui	a3,0x19
   16cce:	6565                	lui	a0,0x19
   16cd0:	29868693          	add	a3,a3,664 # 19298 <__clzdi2+0xf6>
   16cd4:	4601                	li	a2,0
   16cd6:	1de00593          	li	a1,478
   16cda:	2b050513          	add	a0,a0,688 # 192b0 <__clzdi2+0x10e>
   16cde:	43f000ef          	jal	1791c <__assert_func>

0000000000016ce2 <__mcmp>:
   16ce2:	49dc                	lw	a5,20(a1)
   16ce4:	882a                	mv	a6,a0
   16ce6:	4948                	lw	a0,20(a0)
   16ce8:	9d1d                	subw	a0,a0,a5
   16cea:	e51d                	bnez	a0,16d18 <__mcmp+0x36>
   16cec:	078a                	sll	a5,a5,0x2
   16cee:	0861                	add	a6,a6,24
   16cf0:	05e1                	add	a1,a1,24
   16cf2:	00f80733          	add	a4,a6,a5
   16cf6:	97ae                	add	a5,a5,a1
   16cf8:	a019                	j	16cfe <__mcmp+0x1c>
   16cfa:	00e87f63          	bgeu	a6,a4,16d18 <__mcmp+0x36>
   16cfe:	ffc72603          	lw	a2,-4(a4)
   16d02:	ffc7a683          	lw	a3,-4(a5)
   16d06:	1771                	add	a4,a4,-4
   16d08:	17f1                	add	a5,a5,-4
   16d0a:	fed608e3          	beq	a2,a3,16cfa <__mcmp+0x18>
   16d0e:	4505                	li	a0,1
   16d10:	00d67463          	bgeu	a2,a3,16d18 <__mcmp+0x36>
   16d14:	557d                	li	a0,-1
   16d16:	8082                	ret
   16d18:	8082                	ret

0000000000016d1a <__mdiff>:
   16d1a:	49d8                	lw	a4,20(a1)
   16d1c:	4a5c                	lw	a5,20(a2)
   16d1e:	1101                	add	sp,sp,-32
   16d20:	e822                	sd	s0,16(sp)
   16d22:	e426                	sd	s1,8(sp)
   16d24:	ec06                	sd	ra,24(sp)
   16d26:	e04a                	sd	s2,0(sp)
   16d28:	9f1d                	subw	a4,a4,a5
   16d2a:	842e                	mv	s0,a1
   16d2c:	84b2                	mv	s1,a2
   16d2e:	14071063          	bnez	a4,16e6e <__mdiff+0x154>
   16d32:	00279693          	sll	a3,a5,0x2
   16d36:	01858613          	add	a2,a1,24
   16d3a:	01848713          	add	a4,s1,24
   16d3e:	00d607b3          	add	a5,a2,a3
   16d42:	9736                	add	a4,a4,a3
   16d44:	a019                	j	16d4a <__mdiff+0x30>
   16d46:	12f67c63          	bgeu	a2,a5,16e7e <__mdiff+0x164>
   16d4a:	ffc7a583          	lw	a1,-4(a5)
   16d4e:	ffc72683          	lw	a3,-4(a4)
   16d52:	17f1                	add	a5,a5,-4
   16d54:	1771                	add	a4,a4,-4
   16d56:	fed588e3          	beq	a1,a3,16d46 <__mdiff+0x2c>
   16d5a:	4905                	li	s2,1
   16d5c:	00d5e663          	bltu	a1,a3,16d68 <__mdiff+0x4e>
   16d60:	87a6                	mv	a5,s1
   16d62:	4901                	li	s2,0
   16d64:	84a2                	mv	s1,s0
   16d66:	843e                	mv	s0,a5
   16d68:	448c                	lw	a1,8(s1)
   16d6a:	839ff0ef          	jal	165a2 <_Balloc>
   16d6e:	12050f63          	beqz	a0,16eac <__mdiff+0x192>
   16d72:	0144a303          	lw	t1,20(s1)
   16d76:	01442283          	lw	t0,20(s0)
   16d7a:	01848f13          	add	t5,s1,24
   16d7e:	00231e13          	sll	t3,t1,0x2
   16d82:	01840813          	add	a6,s0,24
   16d86:	028a                	sll	t0,t0,0x2
   16d88:	01850f93          	add	t6,a0,24
   16d8c:	68c1                	lui	a7,0x10
   16d8e:	01252823          	sw	s2,16(a0)
   16d92:	9e7a                	add	t3,t3,t5
   16d94:	92c2                	add	t0,t0,a6
   16d96:	85fe                	mv	a1,t6
   16d98:	8efa                	mv	t4,t5
   16d9a:	4601                	li	a2,0
   16d9c:	18fd                	add	a7,a7,-1 # ffff <exit-0xe9>
   16d9e:	000ea703          	lw	a4,0(t4)
   16da2:	00082683          	lw	a3,0(a6)
   16da6:	0591                	add	a1,a1,4
   16da8:	011777b3          	and	a5,a4,a7
   16dac:	0116f3b3          	and	t2,a3,a7
   16db0:	407787bb          	subw	a5,a5,t2
   16db4:	9fb1                	addw	a5,a5,a2
   16db6:	0106d69b          	srlw	a3,a3,0x10
   16dba:	0107571b          	srlw	a4,a4,0x10
   16dbe:	9f15                	subw	a4,a4,a3
   16dc0:	4107d69b          	sraw	a3,a5,0x10
   16dc4:	9f35                	addw	a4,a4,a3
   16dc6:	00f8f7b3          	and	a5,a7,a5
   16dca:	0107169b          	sllw	a3,a4,0x10
   16dce:	8fd5                	or	a5,a5,a3
   16dd0:	2781                	sext.w	a5,a5
   16dd2:	0811                	add	a6,a6,4
   16dd4:	fef5ae23          	sw	a5,-4(a1)
   16dd8:	0e91                	add	t4,t4,4
   16dda:	4107561b          	sraw	a2,a4,0x10
   16dde:	fc5860e3          	bltu	a6,t0,16d9e <__mdiff+0x84>
   16de2:	01940713          	add	a4,s0,25
   16de6:	40828433          	sub	s0,t0,s0
   16dea:	141d                	add	s0,s0,-25
   16dec:	00e2b2b3          	sltu	t0,t0,a4
   16df0:	0012c893          	xor	a7,t0,1
   16df4:	8009                	srl	s0,s0,0x2
   16df6:	4711                	li	a4,4
   16df8:	06028f63          	beqz	t0,16e76 <__mdiff+0x15c>
   16dfc:	9f3a                	add	t5,t5,a4
   16dfe:	00ef8eb3          	add	t4,t6,a4
   16e02:	6841                	lui	a6,0x10
   16e04:	85f6                	mv	a1,t4
   16e06:	86fa                	mv	a3,t5
   16e08:	187d                	add	a6,a6,-1 # ffff <exit-0xe9>
   16e0a:	09cf7863          	bgeu	t5,t3,16e9a <__mdiff+0x180>
   16e0e:	429c                	lw	a5,0(a3)
   16e10:	0006089b          	sext.w	a7,a2
   16e14:	0591                	add	a1,a1,4
   16e16:	0107f733          	and	a4,a5,a6
   16e1a:	9f31                	addw	a4,a4,a2
   16e1c:	4107571b          	sraw	a4,a4,0x10
   16e20:	0107d61b          	srlw	a2,a5,0x10
   16e24:	9f31                	addw	a4,a4,a2
   16e26:	011787bb          	addw	a5,a5,a7
   16e2a:	0107161b          	sllw	a2,a4,0x10
   16e2e:	0107f7b3          	and	a5,a5,a6
   16e32:	8fd1                	or	a5,a5,a2
   16e34:	2781                	sext.w	a5,a5
   16e36:	0691                	add	a3,a3,4
   16e38:	fef5ae23          	sw	a5,-4(a1)
   16e3c:	4107561b          	sraw	a2,a4,0x10
   16e40:	fdc6e7e3          	bltu	a3,t3,16e0e <__mdiff+0xf4>
   16e44:	1e7d                	add	t3,t3,-1
   16e46:	41ee0e33          	sub	t3,t3,t5
   16e4a:	ffce7e13          	and	t3,t3,-4
   16e4e:	01ce8733          	add	a4,t4,t3
   16e52:	e791                	bnez	a5,16e5e <__mdiff+0x144>
   16e54:	ffc72783          	lw	a5,-4(a4)
   16e58:	337d                	addw	t1,t1,-1
   16e5a:	1771                	add	a4,a4,-4
   16e5c:	dfe5                	beqz	a5,16e54 <__mdiff+0x13a>
   16e5e:	60e2                	ld	ra,24(sp)
   16e60:	6442                	ld	s0,16(sp)
   16e62:	00652a23          	sw	t1,20(a0)
   16e66:	64a2                	ld	s1,8(sp)
   16e68:	6902                	ld	s2,0(sp)
   16e6a:	6105                	add	sp,sp,32
   16e6c:	8082                	ret
   16e6e:	4905                	li	s2,1
   16e70:	ee0758e3          	bgez	a4,16d60 <__mdiff+0x46>
   16e74:	bdd5                	j	16d68 <__mdiff+0x4e>
   16e76:	00140713          	add	a4,s0,1
   16e7a:	070a                	sll	a4,a4,0x2
   16e7c:	b741                	j	16dfc <__mdiff+0xe2>
   16e7e:	4581                	li	a1,0
   16e80:	f22ff0ef          	jal	165a2 <_Balloc>
   16e84:	cd1d                	beqz	a0,16ec2 <__mdiff+0x1a8>
   16e86:	60e2                	ld	ra,24(sp)
   16e88:	6442                	ld	s0,16(sp)
   16e8a:	4785                	li	a5,1
   16e8c:	c95c                	sw	a5,20(a0)
   16e8e:	00052c23          	sw	zero,24(a0)
   16e92:	64a2                	ld	s1,8(sp)
   16e94:	6902                	ld	s2,0(sp)
   16e96:	6105                	add	sp,sp,32
   16e98:	8082                	ret
   16e9a:	4701                	li	a4,0
   16e9c:	00089463          	bnez	a7,16ea4 <__mdiff+0x18a>
   16ea0:	977e                	add	a4,a4,t6
   16ea2:	bf45                	j	16e52 <__mdiff+0x138>
   16ea4:	00241713          	sll	a4,s0,0x2
   16ea8:	977e                	add	a4,a4,t6
   16eaa:	b765                	j	16e52 <__mdiff+0x138>
   16eac:	66e5                	lui	a3,0x19
   16eae:	6565                	lui	a0,0x19
   16eb0:	29868693          	add	a3,a3,664 # 19298 <__clzdi2+0xf6>
   16eb4:	4601                	li	a2,0
   16eb6:	24500593          	li	a1,581
   16eba:	2b050513          	add	a0,a0,688 # 192b0 <__clzdi2+0x10e>
   16ebe:	25f000ef          	jal	1791c <__assert_func>
   16ec2:	66e5                	lui	a3,0x19
   16ec4:	6565                	lui	a0,0x19
   16ec6:	29868693          	add	a3,a3,664 # 19298 <__clzdi2+0xf6>
   16eca:	4601                	li	a2,0
   16ecc:	23700593          	li	a1,567
   16ed0:	2b050513          	add	a0,a0,688 # 192b0 <__clzdi2+0x10e>
   16ed4:	249000ef          	jal	1791c <__assert_func>

0000000000016ed8 <__ulp>:
   16ed8:	e2050753          	fmv.x.d	a4,fa0
   16edc:	7ff007b7          	lui	a5,0x7ff00
   16ee0:	9301                	srl	a4,a4,0x20
   16ee2:	8f7d                	and	a4,a4,a5
   16ee4:	fcc007b7          	lui	a5,0xfcc00
   16ee8:	00e786bb          	addw	a3,a5,a4
   16eec:	4701                	li	a4,0
   16eee:	00d05963          	blez	a3,16f00 <__ulp+0x28>
   16ef2:	1702                	sll	a4,a4,0x20
   16ef4:	1682                	sll	a3,a3,0x20
   16ef6:	9301                	srl	a4,a4,0x20
   16ef8:	8f55                	or	a4,a4,a3
   16efa:	f2070553          	fmv.d.x	fa0,a4
   16efe:	8082                	ret
   16f00:	40d007bb          	negw	a5,a3
   16f04:	4147d71b          	sraw	a4,a5,0x14
   16f08:	46cd                	li	a3,19
   16f0a:	00e6ce63          	blt	a3,a4,16f26 <__ulp+0x4e>
   16f0e:	000806b7          	lui	a3,0x80
   16f12:	40e6d6bb          	sraw	a3,a3,a4
   16f16:	4701                	li	a4,0
   16f18:	1702                	sll	a4,a4,0x20
   16f1a:	1682                	sll	a3,a3,0x20
   16f1c:	9301                	srl	a4,a4,0x20
   16f1e:	8f55                	or	a4,a4,a3
   16f20:	f2070553          	fmv.d.x	fa0,a4
   16f24:	8082                	ret
   16f26:	fec7079b          	addw	a5,a4,-20
   16f2a:	46f9                	li	a3,30
   16f2c:	4705                	li	a4,1
   16f2e:	00f6c663          	blt	a3,a5,16f3a <__ulp+0x62>
   16f32:	80000737          	lui	a4,0x80000
   16f36:	00f7573b          	srlw	a4,a4,a5
   16f3a:	4681                	li	a3,0
   16f3c:	1702                	sll	a4,a4,0x20
   16f3e:	1682                	sll	a3,a3,0x20
   16f40:	9301                	srl	a4,a4,0x20
   16f42:	8f55                	or	a4,a4,a3
   16f44:	f2070553          	fmv.d.x	fa0,a4
   16f48:	8082                	ret

0000000000016f4a <__b2d>:
   16f4a:	7179                	add	sp,sp,-48
   16f4c:	ec26                	sd	s1,24(sp)
   16f4e:	4944                	lw	s1,20(a0)
   16f50:	f022                	sd	s0,32(sp)
   16f52:	01850413          	add	s0,a0,24
   16f56:	048a                	sll	s1,s1,0x2
   16f58:	94a2                	add	s1,s1,s0
   16f5a:	e84a                	sd	s2,16(sp)
   16f5c:	ffc4a903          	lw	s2,-4(s1)
   16f60:	e44e                	sd	s3,8(sp)
   16f62:	e052                	sd	s4,0(sp)
   16f64:	854a                	mv	a0,s2
   16f66:	89ae                	mv	s3,a1
   16f68:	f406                	sd	ra,40(sp)
   16f6a:	87bff0ef          	jal	167e4 <__hi0bits>
   16f6e:	02000693          	li	a3,32
   16f72:	40a687bb          	subw	a5,a3,a0
   16f76:	00f9a023          	sw	a5,0(s3)
   16f7a:	47a9                	li	a5,10
   16f7c:	ffc48a13          	add	s4,s1,-4
   16f80:	08a7d563          	bge	a5,a0,1700a <__b2d+0xc0>
   16f84:	ff55079b          	addw	a5,a0,-11
   16f88:	05447163          	bgeu	s0,s4,16fca <__b2d+0x80>
   16f8c:	ff84a703          	lw	a4,-8(s1)
   16f90:	cba9                	beqz	a5,16fe2 <__b2d+0x98>
   16f92:	9e9d                	subw	a3,a3,a5
   16f94:	00d7563b          	srlw	a2,a4,a3
   16f98:	00f9193b          	sllw	s2,s2,a5
   16f9c:	00c96933          	or	s2,s2,a2
   16fa0:	3ff00637          	lui	a2,0x3ff00
   16fa4:	00c96933          	or	s2,s2,a2
   16fa8:	00f715bb          	sllw	a1,a4,a5
   16fac:	ff848613          	add	a2,s1,-8
   16fb0:	02091793          	sll	a5,s2,0x20
   16fb4:	0005871b          	sext.w	a4,a1
   16fb8:	02c47a63          	bgeu	s0,a2,16fec <__b2d+0xa2>
   16fbc:	ff44a703          	lw	a4,-12(s1)
   16fc0:	00d7573b          	srlw	a4,a4,a3
   16fc4:	8f4d                	or	a4,a4,a1
   16fc6:	2701                	sext.w	a4,a4
   16fc8:	a015                	j	16fec <__b2d+0xa2>
   16fca:	472d                	li	a4,11
   16fcc:	00e50a63          	beq	a0,a4,16fe0 <__b2d+0x96>
   16fd0:	3ff00737          	lui	a4,0x3ff00
   16fd4:	00f917bb          	sllw	a5,s2,a5
   16fd8:	8fd9                	or	a5,a5,a4
   16fda:	1782                	sll	a5,a5,0x20
   16fdc:	4701                	li	a4,0
   16fde:	a039                	j	16fec <__b2d+0xa2>
   16fe0:	4701                	li	a4,0
   16fe2:	3ff007b7          	lui	a5,0x3ff00
   16fe6:	00f967b3          	or	a5,s2,a5
   16fea:	1782                	sll	a5,a5,0x20
   16fec:	70a2                	ld	ra,40(sp)
   16fee:	7402                	ld	s0,32(sp)
   16ff0:	9381                	srl	a5,a5,0x20
   16ff2:	1702                	sll	a4,a4,0x20
   16ff4:	9301                	srl	a4,a4,0x20
   16ff6:	1782                	sll	a5,a5,0x20
   16ff8:	8fd9                	or	a5,a5,a4
   16ffa:	64e2                	ld	s1,24(sp)
   16ffc:	6942                	ld	s2,16(sp)
   16ffe:	69a2                	ld	s3,8(sp)
   17000:	6a02                	ld	s4,0(sp)
   17002:	f2078553          	fmv.d.x	fa0,a5
   17006:	6145                	add	sp,sp,48
   17008:	8082                	ret
   1700a:	46ad                	li	a3,11
   1700c:	9e89                	subw	a3,a3,a0
   1700e:	3ff00737          	lui	a4,0x3ff00
   17012:	00d957bb          	srlw	a5,s2,a3
   17016:	8fd9                	or	a5,a5,a4
   17018:	1782                	sll	a5,a5,0x20
   1701a:	4701                	li	a4,0
   1701c:	01447663          	bgeu	s0,s4,17028 <__b2d+0xde>
   17020:	ff84a703          	lw	a4,-8(s1)
   17024:	00d7573b          	srlw	a4,a4,a3
   17028:	2555                	addw	a0,a0,21
   1702a:	00a9153b          	sllw	a0,s2,a0
   1702e:	8f49                	or	a4,a4,a0
   17030:	2701                	sext.w	a4,a4
   17032:	bf6d                	j	16fec <__b2d+0xa2>

0000000000017034 <__d2b>:
   17034:	7139                	add	sp,sp,-64
   17036:	e852                	sd	s4,16(sp)
   17038:	8a2e                	mv	s4,a1
   1703a:	4585                	li	a1,1
   1703c:	f822                	sd	s0,48(sp)
   1703e:	f04a                	sd	s2,32(sp)
   17040:	fc06                	sd	ra,56(sp)
   17042:	f426                	sd	s1,40(sp)
   17044:	ec4e                	sd	s3,24(sp)
   17046:	e2050453          	fmv.x.d	s0,fa0
   1704a:	8932                	mv	s2,a2
   1704c:	d56ff0ef          	jal	165a2 <_Balloc>
   17050:	c955                	beqz	a0,17104 <__d2b+0xd0>
   17052:	42045793          	sra	a5,s0,0x20
   17056:	0147d99b          	srlw	s3,a5,0x14
   1705a:	7ff9f993          	and	s3,s3,2047
   1705e:	17b2                	sll	a5,a5,0x2c
   17060:	84aa                	mv	s1,a0
   17062:	93b1                	srl	a5,a5,0x2c
   17064:	00098563          	beqz	s3,1706e <__d2b+0x3a>
   17068:	00100737          	lui	a4,0x100
   1706c:	8fd9                	or	a5,a5,a4
   1706e:	c63e                	sw	a5,12(sp)
   17070:	2401                	sext.w	s0,s0
   17072:	e029                	bnez	s0,170b4 <__d2b+0x80>
   17074:	0068                	add	a0,sp,12
   17076:	fccff0ef          	jal	16842 <__lo0bits>
   1707a:	47b2                	lw	a5,12(sp)
   1707c:	4405                	li	s0,1
   1707e:	c8c0                	sw	s0,20(s1)
   17080:	cc9c                	sw	a5,24(s1)
   17082:	0205051b          	addw	a0,a0,32
   17086:	06098063          	beqz	s3,170e6 <__d2b+0xb2>
   1708a:	bcd9899b          	addw	s3,s3,-1075
   1708e:	00a989bb          	addw	s3,s3,a0
   17092:	03500413          	li	s0,53
   17096:	013a2023          	sw	s3,0(s4)
   1709a:	40a4053b          	subw	a0,s0,a0
   1709e:	70e2                	ld	ra,56(sp)
   170a0:	7442                	ld	s0,48(sp)
   170a2:	00a92023          	sw	a0,0(s2)
   170a6:	69e2                	ld	s3,24(sp)
   170a8:	7902                	ld	s2,32(sp)
   170aa:	6a42                	ld	s4,16(sp)
   170ac:	8526                	mv	a0,s1
   170ae:	74a2                	ld	s1,40(sp)
   170b0:	6121                	add	sp,sp,64
   170b2:	8082                	ret
   170b4:	0028                	add	a0,sp,8
   170b6:	c422                	sw	s0,8(sp)
   170b8:	f8aff0ef          	jal	16842 <__lo0bits>
   170bc:	47b2                	lw	a5,12(sp)
   170be:	4722                	lw	a4,8(sp)
   170c0:	c919                	beqz	a0,170d6 <__d2b+0xa2>
   170c2:	02000693          	li	a3,32
   170c6:	9e89                	subw	a3,a3,a0
   170c8:	00d796bb          	sllw	a3,a5,a3
   170cc:	8f55                	or	a4,a4,a3
   170ce:	00a7d7bb          	srlw	a5,a5,a0
   170d2:	2701                	sext.w	a4,a4
   170d4:	c63e                	sw	a5,12(sp)
   170d6:	00f03433          	snez	s0,a5
   170da:	0405                	add	s0,s0,1
   170dc:	cc98                	sw	a4,24(s1)
   170de:	ccdc                	sw	a5,28(s1)
   170e0:	c8c0                	sw	s0,20(s1)
   170e2:	fa0994e3          	bnez	s3,1708a <__d2b+0x56>
   170e6:	bce5051b          	addw	a0,a0,-1074
   170ea:	00241793          	sll	a5,s0,0x2
   170ee:	00aa2023          	sw	a0,0(s4)
   170f2:	97a6                	add	a5,a5,s1
   170f4:	4bc8                	lw	a0,20(a5)
   170f6:	0054141b          	sllw	s0,s0,0x5
   170fa:	eeaff0ef          	jal	167e4 <__hi0bits>
   170fe:	40a4053b          	subw	a0,s0,a0
   17102:	bf71                	j	1709e <__d2b+0x6a>
   17104:	66e5                	lui	a3,0x19
   17106:	6565                	lui	a0,0x19
   17108:	29868693          	add	a3,a3,664 # 19298 <__clzdi2+0xf6>
   1710c:	4601                	li	a2,0
   1710e:	30f00593          	li	a1,783
   17112:	2b050513          	add	a0,a0,688 # 192b0 <__clzdi2+0x10e>
   17116:	007000ef          	jal	1791c <__assert_func>

000000000001711a <__ratio>:
   1711a:	7179                	add	sp,sp,-48
   1711c:	ec26                	sd	s1,24(sp)
   1711e:	84ae                	mv	s1,a1
   17120:	002c                	add	a1,sp,8
   17122:	f406                	sd	ra,40(sp)
   17124:	f022                	sd	s0,32(sp)
   17126:	e84a                	sd	s2,16(sp)
   17128:	892a                	mv	s2,a0
   1712a:	e21ff0ef          	jal	16f4a <__b2d>
   1712e:	006c                	add	a1,sp,12
   17130:	8526                	mv	a0,s1
   17132:	e2050453          	fmv.x.d	s0,fa0
   17136:	e15ff0ef          	jal	16f4a <__b2d>
   1713a:	01492783          	lw	a5,20(s2)
   1713e:	48d0                	lw	a2,20(s1)
   17140:	46b2                	lw	a3,12(sp)
   17142:	4722                	lw	a4,8(sp)
   17144:	9f91                	subw	a5,a5,a2
   17146:	0057979b          	sllw	a5,a5,0x5
   1714a:	9f15                	subw	a4,a4,a3
   1714c:	00e786bb          	addw	a3,a5,a4
   17150:	87b6                	mv	a5,a3
   17152:	e2050753          	fmv.x.d	a4,fa0
   17156:	02d05963          	blez	a3,17188 <__ratio+0x6e>
   1715a:	02045693          	srl	a3,s0,0x20
   1715e:	0147979b          	sllw	a5,a5,0x14
   17162:	9fb5                	addw	a5,a5,a3
   17164:	56fd                	li	a3,-1
   17166:	9281                	srl	a3,a3,0x20
   17168:	1782                	sll	a5,a5,0x20
   1716a:	8ee1                	and	a3,a3,s0
   1716c:	00f6e433          	or	s0,a3,a5
   17170:	f20407d3          	fmv.d.x	fa5,s0
   17174:	70a2                	ld	ra,40(sp)
   17176:	7402                	ld	s0,32(sp)
   17178:	f2070753          	fmv.d.x	fa4,a4
   1717c:	64e2                	ld	s1,24(sp)
   1717e:	6942                	ld	s2,16(sp)
   17180:	1ae7f553          	fdiv.d	fa0,fa5,fa4
   17184:	6145                	add	sp,sp,48
   17186:	8082                	ret
   17188:	02075693          	srl	a3,a4,0x20
   1718c:	0147979b          	sllw	a5,a5,0x14
   17190:	40f687bb          	subw	a5,a3,a5
   17194:	56fd                	li	a3,-1
   17196:	9281                	srl	a3,a3,0x20
   17198:	1782                	sll	a5,a5,0x20
   1719a:	8f75                	and	a4,a4,a3
   1719c:	8f5d                	or	a4,a4,a5
   1719e:	bfc9                	j	17170 <__ratio+0x56>

00000000000171a0 <_mprec_log10>:
   171a0:	47dd                	li	a5,23
   171a2:	00a7db63          	bge	a5,a0,171b8 <_mprec_log10+0x18>
   171a6:	1e01b507          	fld	fa0,480(gp) # 1b520 <__SDATA_BEGIN__+0x38>
   171aa:	1e81b787          	fld	fa5,488(gp) # 1b528 <__SDATA_BEGIN__+0x40>
   171ae:	357d                	addw	a0,a0,-1
   171b0:	12f57553          	fmul.d	fa0,fa0,fa5
   171b4:	fd6d                	bnez	a0,171ae <_mprec_log10+0xe>
   171b6:	8082                	ret
   171b8:	67e5                	lui	a5,0x19
   171ba:	050e                	sll	a0,a0,0x3
   171bc:	6d078793          	add	a5,a5,1744 # 196d0 <__mprec_tens>
   171c0:	97aa                	add	a5,a5,a0
   171c2:	2388                	fld	fa0,0(a5)
   171c4:	8082                	ret

00000000000171c6 <__copybits>:
   171c6:	4a54                	lw	a3,20(a2)
   171c8:	35fd                	addw	a1,a1,-1
   171ca:	4055d59b          	sraw	a1,a1,0x5
   171ce:	2585                	addw	a1,a1,1
   171d0:	01860793          	add	a5,a2,24 # 3ff00018 <__BSS_END__+0x3fee44d8>
   171d4:	068a                	sll	a3,a3,0x2
   171d6:	058a                	sll	a1,a1,0x2
   171d8:	96be                	add	a3,a3,a5
   171da:	95aa                	add	a1,a1,a0
   171dc:	02d7f163          	bgeu	a5,a3,171fe <__copybits+0x38>
   171e0:	872a                	mv	a4,a0
   171e2:	0007a803          	lw	a6,0(a5)
   171e6:	0791                	add	a5,a5,4
   171e8:	0711                	add	a4,a4,4 # 100004 <__BSS_END__+0xe44c4>
   171ea:	ff072e23          	sw	a6,-4(a4)
   171ee:	fed7eae3          	bltu	a5,a3,171e2 <__copybits+0x1c>
   171f2:	40c687b3          	sub	a5,a3,a2
   171f6:	179d                	add	a5,a5,-25
   171f8:	9bf1                	and	a5,a5,-4
   171fa:	0791                	add	a5,a5,4
   171fc:	953e                	add	a0,a0,a5
   171fe:	00b57763          	bgeu	a0,a1,1720c <__copybits+0x46>
   17202:	0511                	add	a0,a0,4
   17204:	fe052e23          	sw	zero,-4(a0)
   17208:	feb56de3          	bltu	a0,a1,17202 <__copybits+0x3c>
   1720c:	8082                	ret

000000000001720e <__any_on>:
   1720e:	4958                	lw	a4,20(a0)
   17210:	4055d613          	sra	a2,a1,0x5
   17214:	01850693          	add	a3,a0,24
   17218:	00c75d63          	bge	a4,a2,17232 <__any_on+0x24>
   1721c:	070a                	sll	a4,a4,0x2
   1721e:	00e687b3          	add	a5,a3,a4
   17222:	02f6f863          	bgeu	a3,a5,17252 <__any_on+0x44>
   17226:	ffc7a703          	lw	a4,-4(a5)
   1722a:	17f1                	add	a5,a5,-4
   1722c:	db7d                	beqz	a4,17222 <__any_on+0x14>
   1722e:	4505                	li	a0,1
   17230:	8082                	ret
   17232:	00261793          	sll	a5,a2,0x2
   17236:	97b6                	add	a5,a5,a3
   17238:	fee655e3          	bge	a2,a4,17222 <__any_on+0x14>
   1723c:	89fd                	and	a1,a1,31
   1723e:	d1f5                	beqz	a1,17222 <__any_on+0x14>
   17240:	4390                	lw	a2,0(a5)
   17242:	4505                	li	a0,1
   17244:	00b6573b          	srlw	a4,a2,a1
   17248:	00b7173b          	sllw	a4,a4,a1
   1724c:	fcc70be3          	beq	a4,a2,17222 <__any_on+0x14>
   17250:	8082                	ret
   17252:	4501                	li	a0,0
   17254:	8082                	ret

0000000000017256 <_realloc_r>:
   17256:	715d                	add	sp,sp,-80
   17258:	f84a                	sd	s2,48(sp)
   1725a:	e486                	sd	ra,72(sp)
   1725c:	8932                	mv	s2,a2
   1725e:	16058363          	beqz	a1,173c4 <_realloc_r+0x16e>
   17262:	e0a2                	sd	s0,64(sp)
   17264:	fc26                	sd	s1,56(sp)
   17266:	842e                	mv	s0,a1
   17268:	f44e                	sd	s3,40(sp)
   1726a:	f052                	sd	s4,32(sp)
   1726c:	ec56                	sd	s5,24(sp)
   1726e:	89aa                	mv	s3,a0
   17270:	a80fa0ef          	jal	114f0 <__malloc_lock>
   17274:	ff843783          	ld	a5,-8(s0)
   17278:	01790493          	add	s1,s2,23
   1727c:	02e00713          	li	a4,46
   17280:	ff040a93          	add	s5,s0,-16
   17284:	ffc7fa13          	and	s4,a5,-4
   17288:	0c977363          	bgeu	a4,s1,1734e <_realloc_r+0xf8>
   1728c:	80000737          	lui	a4,0x80000
   17290:	98c1                	and	s1,s1,-16
   17292:	fff74713          	not	a4,a4
   17296:	0c976063          	bltu	a4,s1,17356 <_realloc_r+0x100>
   1729a:	0b24ee63          	bltu	s1,s2,17356 <_realloc_r+0x100>
   1729e:	0c9a5763          	bge	s4,s1,1736c <_realloc_r+0x116>
   172a2:	676d                	lui	a4,0x1b
   172a4:	e062                	sd	s8,0(sp)
   172a6:	b3070c13          	add	s8,a4,-1232 # 1ab30 <__malloc_av_>
   172aa:	010c3603          	ld	a2,16(s8)
   172ae:	014a86b3          	add	a3,s5,s4
   172b2:	6698                	ld	a4,8(a3)
   172b4:	12d60f63          	beq	a2,a3,173f2 <_realloc_r+0x19c>
   172b8:	ffe77613          	and	a2,a4,-2
   172bc:	9636                	add	a2,a2,a3
   172be:	6610                	ld	a2,8(a2)
   172c0:	8a05                	and	a2,a2,1
   172c2:	e66d                	bnez	a2,173ac <_realloc_r+0x156>
   172c4:	9b71                	and	a4,a4,-4
   172c6:	00ea0633          	add	a2,s4,a4
   172ca:	08965b63          	bge	a2,s1,17360 <_realloc_r+0x10a>
   172ce:	8b85                	and	a5,a5,1
   172d0:	e78d                	bnez	a5,172fa <_realloc_r+0xa4>
   172d2:	e45e                	sd	s7,8(sp)
   172d4:	ff043b83          	ld	s7,-16(s0)
   172d8:	e85a                	sd	s6,16(sp)
   172da:	417a8bb3          	sub	s7,s5,s7
   172de:	008bb783          	ld	a5,8(s7)
   172e2:	9bf1                	and	a5,a5,-4
   172e4:	973e                	add	a4,a4,a5
   172e6:	01470b33          	add	s6,a4,s4
   172ea:	249b5563          	bge	s6,s1,17534 <_realloc_r+0x2de>
   172ee:	00fa0b33          	add	s6,s4,a5
   172f2:	1c9b5763          	bge	s6,s1,174c0 <_realloc_r+0x26a>
   172f6:	6b42                	ld	s6,16(sp)
   172f8:	6ba2                	ld	s7,8(sp)
   172fa:	85ca                	mv	a1,s2
   172fc:	854e                	mv	a0,s3
   172fe:	bf1f90ef          	jal	10eee <_malloc_r>
   17302:	892a                	mv	s2,a0
   17304:	2e050863          	beqz	a0,175f4 <_realloc_r+0x39e>
   17308:	ff843783          	ld	a5,-8(s0)
   1730c:	ff050713          	add	a4,a0,-16
   17310:	9bf9                	and	a5,a5,-2
   17312:	97d6                	add	a5,a5,s5
   17314:	1ae78063          	beq	a5,a4,174b4 <_realloc_r+0x25e>
   17318:	ff8a0613          	add	a2,s4,-8
   1731c:	04800793          	li	a5,72
   17320:	20c7e663          	bltu	a5,a2,1752c <_realloc_r+0x2d6>
   17324:	02700713          	li	a4,39
   17328:	16c76963          	bltu	a4,a2,1749a <_realloc_r+0x244>
   1732c:	87aa                	mv	a5,a0
   1732e:	8722                	mv	a4,s0
   17330:	6314                	ld	a3,0(a4)
   17332:	e394                	sd	a3,0(a5)
   17334:	6714                	ld	a3,8(a4)
   17336:	e794                	sd	a3,8(a5)
   17338:	6b18                	ld	a4,16(a4)
   1733a:	eb98                	sd	a4,16(a5)
   1733c:	85a2                	mv	a1,s0
   1733e:	854e                	mv	a0,s3
   17340:	96bf90ef          	jal	10caa <_free_r>
   17344:	854e                	mv	a0,s3
   17346:	9acfa0ef          	jal	114f2 <__malloc_unlock>
   1734a:	6c02                	ld	s8,0(sp)
   1734c:	a0b1                	j	17398 <_realloc_r+0x142>
   1734e:	02000493          	li	s1,32
   17352:	f524f6e3          	bgeu	s1,s2,1729e <_realloc_r+0x48>
   17356:	47b1                	li	a5,12
   17358:	00f9a023          	sw	a5,0(s3)
   1735c:	4901                	li	s2,0
   1735e:	a82d                	j	17398 <_realloc_r+0x142>
   17360:	6e9c                	ld	a5,24(a3)
   17362:	6a98                	ld	a4,16(a3)
   17364:	6c02                	ld	s8,0(sp)
   17366:	8a32                	mv	s4,a2
   17368:	ef1c                	sd	a5,24(a4)
   1736a:	eb98                	sd	a4,16(a5)
   1736c:	008ab783          	ld	a5,8(s5)
   17370:	409a06b3          	sub	a3,s4,s1
   17374:	467d                	li	a2,31
   17376:	8b85                	and	a5,a5,1
   17378:	014a8733          	add	a4,s5,s4
   1737c:	04d66a63          	bltu	a2,a3,173d0 <_realloc_r+0x17a>
   17380:	0147e7b3          	or	a5,a5,s4
   17384:	00fab423          	sd	a5,8(s5)
   17388:	671c                	ld	a5,8(a4)
   1738a:	0017e793          	or	a5,a5,1
   1738e:	e71c                	sd	a5,8(a4)
   17390:	854e                	mv	a0,s3
   17392:	960fa0ef          	jal	114f2 <__malloc_unlock>
   17396:	8922                	mv	s2,s0
   17398:	6406                	ld	s0,64(sp)
   1739a:	60a6                	ld	ra,72(sp)
   1739c:	74e2                	ld	s1,56(sp)
   1739e:	79a2                	ld	s3,40(sp)
   173a0:	7a02                	ld	s4,32(sp)
   173a2:	6ae2                	ld	s5,24(sp)
   173a4:	854a                	mv	a0,s2
   173a6:	7942                	ld	s2,48(sp)
   173a8:	6161                	add	sp,sp,80
   173aa:	8082                	ret
   173ac:	8b85                	and	a5,a5,1
   173ae:	f7b1                	bnez	a5,172fa <_realloc_r+0xa4>
   173b0:	e45e                	sd	s7,8(sp)
   173b2:	ff043b83          	ld	s7,-16(s0)
   173b6:	e85a                	sd	s6,16(sp)
   173b8:	417a8bb3          	sub	s7,s5,s7
   173bc:	008bb783          	ld	a5,8(s7)
   173c0:	9bf1                	and	a5,a5,-4
   173c2:	b735                	j	172ee <_realloc_r+0x98>
   173c4:	60a6                	ld	ra,72(sp)
   173c6:	7942                	ld	s2,48(sp)
   173c8:	85b2                	mv	a1,a2
   173ca:	6161                	add	sp,sp,80
   173cc:	b23f906f          	j	10eee <_malloc_r>
   173d0:	8fc5                	or	a5,a5,s1
   173d2:	00fab423          	sd	a5,8(s5)
   173d6:	009a85b3          	add	a1,s5,s1
   173da:	0016e693          	or	a3,a3,1
   173de:	e594                	sd	a3,8(a1)
   173e0:	671c                	ld	a5,8(a4)
   173e2:	05c1                	add	a1,a1,16
   173e4:	854e                	mv	a0,s3
   173e6:	0017e793          	or	a5,a5,1
   173ea:	e71c                	sd	a5,8(a4)
   173ec:	8bff90ef          	jal	10caa <_free_r>
   173f0:	b745                	j	17390 <_realloc_r+0x13a>
   173f2:	9b71                	and	a4,a4,-4
   173f4:	014706b3          	add	a3,a4,s4
   173f8:	02048613          	add	a2,s1,32
   173fc:	1cc6d363          	bge	a3,a2,175c2 <_realloc_r+0x36c>
   17400:	8b85                	and	a5,a5,1
   17402:	ee079ce3          	bnez	a5,172fa <_realloc_r+0xa4>
   17406:	e45e                	sd	s7,8(sp)
   17408:	ff043b83          	ld	s7,-16(s0)
   1740c:	e85a                	sd	s6,16(sp)
   1740e:	417a8bb3          	sub	s7,s5,s7
   17412:	008bb783          	ld	a5,8(s7)
   17416:	9bf1                	and	a5,a5,-4
   17418:	973e                	add	a4,a4,a5
   1741a:	01470b33          	add	s6,a4,s4
   1741e:	eccb48e3          	blt	s6,a2,172ee <_realloc_r+0x98>
   17422:	018bb783          	ld	a5,24(s7)
   17426:	010bb703          	ld	a4,16(s7)
   1742a:	ff8a0613          	add	a2,s4,-8
   1742e:	04800693          	li	a3,72
   17432:	ef1c                	sd	a5,24(a4)
   17434:	eb98                	sd	a4,16(a5)
   17436:	010b8913          	add	s2,s7,16
   1743a:	1cc6ec63          	bltu	a3,a2,17612 <_realloc_r+0x3bc>
   1743e:	02700713          	li	a4,39
   17442:	87ca                	mv	a5,s2
   17444:	00c77f63          	bgeu	a4,a2,17462 <_realloc_r+0x20c>
   17448:	6018                	ld	a4,0(s0)
   1744a:	03700793          	li	a5,55
   1744e:	00ebb823          	sd	a4,16(s7)
   17452:	6418                	ld	a4,8(s0)
   17454:	00ebbc23          	sd	a4,24(s7)
   17458:	1cc7e263          	bltu	a5,a2,1761c <_realloc_r+0x3c6>
   1745c:	0441                	add	s0,s0,16
   1745e:	020b8793          	add	a5,s7,32
   17462:	6018                	ld	a4,0(s0)
   17464:	e398                	sd	a4,0(a5)
   17466:	6418                	ld	a4,8(s0)
   17468:	e798                	sd	a4,8(a5)
   1746a:	6818                	ld	a4,16(s0)
   1746c:	eb98                	sd	a4,16(a5)
   1746e:	009b8733          	add	a4,s7,s1
   17472:	409b07b3          	sub	a5,s6,s1
   17476:	00ec3823          	sd	a4,16(s8)
   1747a:	0017e793          	or	a5,a5,1
   1747e:	e71c                	sd	a5,8(a4)
   17480:	008bb783          	ld	a5,8(s7)
   17484:	854e                	mv	a0,s3
   17486:	8b85                	and	a5,a5,1
   17488:	8fc5                	or	a5,a5,s1
   1748a:	00fbb423          	sd	a5,8(s7)
   1748e:	864fa0ef          	jal	114f2 <__malloc_unlock>
   17492:	6b42                	ld	s6,16(sp)
   17494:	6ba2                	ld	s7,8(sp)
   17496:	6c02                	ld	s8,0(sp)
   17498:	b701                	j	17398 <_realloc_r+0x142>
   1749a:	6014                	ld	a3,0(s0)
   1749c:	03700713          	li	a4,55
   174a0:	e114                	sd	a3,0(a0)
   174a2:	6414                	ld	a3,8(s0)
   174a4:	e514                	sd	a3,8(a0)
   174a6:	10c76363          	bltu	a4,a2,175ac <_realloc_r+0x356>
   174aa:	01040713          	add	a4,s0,16
   174ae:	01050793          	add	a5,a0,16
   174b2:	bdbd                	j	17330 <_realloc_r+0xda>
   174b4:	ff853783          	ld	a5,-8(a0)
   174b8:	6c02                	ld	s8,0(sp)
   174ba:	9bf1                	and	a5,a5,-4
   174bc:	9a3e                	add	s4,s4,a5
   174be:	b57d                	j	1736c <_realloc_r+0x116>
   174c0:	018bb783          	ld	a5,24(s7)
   174c4:	010bb703          	ld	a4,16(s7)
   174c8:	ff8a0613          	add	a2,s4,-8
   174cc:	04800693          	li	a3,72
   174d0:	ef1c                	sd	a5,24(a4)
   174d2:	eb98                	sd	a4,16(a5)
   174d4:	010b8913          	add	s2,s7,16
   174d8:	0cc6e563          	bltu	a3,a2,175a2 <_realloc_r+0x34c>
   174dc:	02700713          	li	a4,39
   174e0:	87ca                	mv	a5,s2
   174e2:	02c77863          	bgeu	a4,a2,17512 <_realloc_r+0x2bc>
   174e6:	6018                	ld	a4,0(s0)
   174e8:	03700793          	li	a5,55
   174ec:	00ebb823          	sd	a4,16(s7)
   174f0:	6418                	ld	a4,8(s0)
   174f2:	00ebbc23          	sd	a4,24(s7)
   174f6:	0ec7fb63          	bgeu	a5,a2,175ec <_realloc_r+0x396>
   174fa:	681c                	ld	a5,16(s0)
   174fc:	02fbb023          	sd	a5,32(s7)
   17500:	6c1c                	ld	a5,24(s0)
   17502:	02fbb423          	sd	a5,40(s7)
   17506:	08d60263          	beq	a2,a3,1758a <_realloc_r+0x334>
   1750a:	02040413          	add	s0,s0,32
   1750e:	030b8793          	add	a5,s7,48
   17512:	6018                	ld	a4,0(s0)
   17514:	e398                	sd	a4,0(a5)
   17516:	6418                	ld	a4,8(s0)
   17518:	e798                	sd	a4,8(a5)
   1751a:	6818                	ld	a4,16(s0)
   1751c:	eb98                	sd	a4,16(a5)
   1751e:	8a5a                	mv	s4,s6
   17520:	8ade                	mv	s5,s7
   17522:	6b42                	ld	s6,16(sp)
   17524:	6ba2                	ld	s7,8(sp)
   17526:	6c02                	ld	s8,0(sp)
   17528:	844a                	mv	s0,s2
   1752a:	b589                	j	1736c <_realloc_r+0x116>
   1752c:	85a2                	mv	a1,s0
   1752e:	e36fd0ef          	jal	14b64 <memmove>
   17532:	b529                	j	1733c <_realloc_r+0xe6>
   17534:	6e9c                	ld	a5,24(a3)
   17536:	6a98                	ld	a4,16(a3)
   17538:	ff8a0613          	add	a2,s4,-8
   1753c:	04800693          	li	a3,72
   17540:	ef1c                	sd	a5,24(a4)
   17542:	eb98                	sd	a4,16(a5)
   17544:	010bb703          	ld	a4,16(s7)
   17548:	018bb783          	ld	a5,24(s7)
   1754c:	010b8913          	add	s2,s7,16
   17550:	ef1c                	sd	a5,24(a4)
   17552:	eb98                	sd	a4,16(a5)
   17554:	04c6e763          	bltu	a3,a2,175a2 <_realloc_r+0x34c>
   17558:	02700713          	li	a4,39
   1755c:	87ca                	mv	a5,s2
   1755e:	fac77ae3          	bgeu	a4,a2,17512 <_realloc_r+0x2bc>
   17562:	6018                	ld	a4,0(s0)
   17564:	03700793          	li	a5,55
   17568:	00ebb823          	sd	a4,16(s7)
   1756c:	6418                	ld	a4,8(s0)
   1756e:	00ebbc23          	sd	a4,24(s7)
   17572:	06c7fd63          	bgeu	a5,a2,175ec <_realloc_r+0x396>
   17576:	6818                	ld	a4,16(s0)
   17578:	04800793          	li	a5,72
   1757c:	02ebb023          	sd	a4,32(s7)
   17580:	6c18                	ld	a4,24(s0)
   17582:	02ebb423          	sd	a4,40(s7)
   17586:	f8f612e3          	bne	a2,a5,1750a <_realloc_r+0x2b4>
   1758a:	7018                	ld	a4,32(s0)
   1758c:	040b8793          	add	a5,s7,64
   17590:	03040413          	add	s0,s0,48
   17594:	02ebb823          	sd	a4,48(s7)
   17598:	ff843703          	ld	a4,-8(s0)
   1759c:	02ebbc23          	sd	a4,56(s7)
   175a0:	bf8d                	j	17512 <_realloc_r+0x2bc>
   175a2:	85a2                	mv	a1,s0
   175a4:	854a                	mv	a0,s2
   175a6:	dbefd0ef          	jal	14b64 <memmove>
   175aa:	bf95                	j	1751e <_realloc_r+0x2c8>
   175ac:	6818                	ld	a4,16(s0)
   175ae:	e918                	sd	a4,16(a0)
   175b0:	6c18                	ld	a4,24(s0)
   175b2:	ed18                	sd	a4,24(a0)
   175b4:	04f60663          	beq	a2,a5,17600 <_realloc_r+0x3aa>
   175b8:	02040713          	add	a4,s0,32
   175bc:	02050793          	add	a5,a0,32
   175c0:	bb85                	j	17330 <_realloc_r+0xda>
   175c2:	9aa6                	add	s5,s5,s1
   175c4:	409687b3          	sub	a5,a3,s1
   175c8:	015c3823          	sd	s5,16(s8)
   175cc:	0017e793          	or	a5,a5,1
   175d0:	00fab423          	sd	a5,8(s5)
   175d4:	ff843783          	ld	a5,-8(s0)
   175d8:	854e                	mv	a0,s3
   175da:	8922                	mv	s2,s0
   175dc:	8b85                	and	a5,a5,1
   175de:	8fc5                	or	a5,a5,s1
   175e0:	fef43c23          	sd	a5,-8(s0)
   175e4:	f0ff90ef          	jal	114f2 <__malloc_unlock>
   175e8:	6c02                	ld	s8,0(sp)
   175ea:	b37d                	j	17398 <_realloc_r+0x142>
   175ec:	0441                	add	s0,s0,16
   175ee:	020b8793          	add	a5,s7,32
   175f2:	b705                	j	17512 <_realloc_r+0x2bc>
   175f4:	854e                	mv	a0,s3
   175f6:	efdf90ef          	jal	114f2 <__malloc_unlock>
   175fa:	4901                	li	s2,0
   175fc:	6c02                	ld	s8,0(sp)
   175fe:	bb69                	j	17398 <_realloc_r+0x142>
   17600:	7014                	ld	a3,32(s0)
   17602:	03040713          	add	a4,s0,48
   17606:	03050793          	add	a5,a0,48
   1760a:	f114                	sd	a3,32(a0)
   1760c:	7414                	ld	a3,40(s0)
   1760e:	f514                	sd	a3,40(a0)
   17610:	b305                	j	17330 <_realloc_r+0xda>
   17612:	85a2                	mv	a1,s0
   17614:	854a                	mv	a0,s2
   17616:	d4efd0ef          	jal	14b64 <memmove>
   1761a:	bd91                	j	1746e <_realloc_r+0x218>
   1761c:	681c                	ld	a5,16(s0)
   1761e:	02fbb023          	sd	a5,32(s7)
   17622:	6c1c                	ld	a5,24(s0)
   17624:	02fbb423          	sd	a5,40(s7)
   17628:	00d60763          	beq	a2,a3,17636 <_realloc_r+0x3e0>
   1762c:	02040413          	add	s0,s0,32
   17630:	030b8793          	add	a5,s7,48
   17634:	b53d                	j	17462 <_realloc_r+0x20c>
   17636:	7018                	ld	a4,32(s0)
   17638:	040b8793          	add	a5,s7,64
   1763c:	03040413          	add	s0,s0,48
   17640:	02ebb823          	sd	a4,48(s7)
   17644:	ff843703          	ld	a4,-8(s0)
   17648:	02ebbc23          	sd	a4,56(s7)
   1764c:	bd19                	j	17462 <_realloc_r+0x20c>

000000000001764e <_wctomb_r>:
   1764e:	0e01b783          	ld	a5,224(gp) # 1b420 <__global_locale+0xe0>
   17652:	8782                	jr	a5

0000000000017654 <__ascii_wctomb>:
   17654:	0006079b          	sext.w	a5,a2
   17658:	cd91                	beqz	a1,17674 <__ascii_wctomb+0x20>
   1765a:	0ff00713          	li	a4,255
   1765e:	00f76663          	bltu	a4,a5,1766a <__ascii_wctomb+0x16>
   17662:	00c58023          	sb	a2,0(a1)
   17666:	4505                	li	a0,1
   17668:	8082                	ret
   1766a:	08a00793          	li	a5,138
   1766e:	c11c                	sw	a5,0(a0)
   17670:	557d                	li	a0,-1
   17672:	8082                	ret
   17674:	4501                	li	a0,0
   17676:	8082                	ret

0000000000017678 <_wcrtomb_r>:
   17678:	7179                	add	sp,sp,-48
   1767a:	f022                	sd	s0,32(sp)
   1767c:	ec26                	sd	s1,24(sp)
   1767e:	f406                	sd	ra,40(sp)
   17680:	0e01b783          	ld	a5,224(gp) # 1b420 <__global_locale+0xe0>
   17684:	842a                	mv	s0,a0
   17686:	84b6                	mv	s1,a3
   17688:	c991                	beqz	a1,1769c <_wcrtomb_r+0x24>
   1768a:	9782                	jalr	a5
   1768c:	57fd                	li	a5,-1
   1768e:	00f50d63          	beq	a0,a5,176a8 <_wcrtomb_r+0x30>
   17692:	70a2                	ld	ra,40(sp)
   17694:	7402                	ld	s0,32(sp)
   17696:	64e2                	ld	s1,24(sp)
   17698:	6145                	add	sp,sp,48
   1769a:	8082                	ret
   1769c:	4601                	li	a2,0
   1769e:	858a                	mv	a1,sp
   176a0:	9782                	jalr	a5
   176a2:	57fd                	li	a5,-1
   176a4:	fef517e3          	bne	a0,a5,17692 <_wcrtomb_r+0x1a>
   176a8:	0004a023          	sw	zero,0(s1)
   176ac:	08a00793          	li	a5,138
   176b0:	70a2                	ld	ra,40(sp)
   176b2:	c01c                	sw	a5,0(s0)
   176b4:	7402                	ld	s0,32(sp)
   176b6:	64e2                	ld	s1,24(sp)
   176b8:	6145                	add	sp,sp,48
   176ba:	8082                	ret

00000000000176bc <wcrtomb>:
   176bc:	7179                	add	sp,sp,-48
   176be:	f022                	sd	s0,32(sp)
   176c0:	ec26                	sd	s1,24(sp)
   176c2:	f406                	sd	ra,40(sp)
   176c4:	2201b483          	ld	s1,544(gp) # 1b560 <_impure_ptr>
   176c8:	0e01b783          	ld	a5,224(gp) # 1b420 <__global_locale+0xe0>
   176cc:	8432                	mv	s0,a2
   176ce:	cd11                	beqz	a0,176ea <wcrtomb+0x2e>
   176d0:	862e                	mv	a2,a1
   176d2:	86a2                	mv	a3,s0
   176d4:	85aa                	mv	a1,a0
   176d6:	8526                	mv	a0,s1
   176d8:	9782                	jalr	a5
   176da:	57fd                	li	a5,-1
   176dc:	00f50f63          	beq	a0,a5,176fa <wcrtomb+0x3e>
   176e0:	70a2                	ld	ra,40(sp)
   176e2:	7402                	ld	s0,32(sp)
   176e4:	64e2                	ld	s1,24(sp)
   176e6:	6145                	add	sp,sp,48
   176e8:	8082                	ret
   176ea:	86b2                	mv	a3,a2
   176ec:	858a                	mv	a1,sp
   176ee:	4601                	li	a2,0
   176f0:	8526                	mv	a0,s1
   176f2:	9782                	jalr	a5
   176f4:	57fd                	li	a5,-1
   176f6:	fef515e3          	bne	a0,a5,176e0 <wcrtomb+0x24>
   176fa:	00042023          	sw	zero,0(s0)
   176fe:	70a2                	ld	ra,40(sp)
   17700:	7402                	ld	s0,32(sp)
   17702:	08a00793          	li	a5,138
   17706:	c09c                	sw	a5,0(s1)
   17708:	64e2                	ld	s1,24(sp)
   1770a:	6145                	add	sp,sp,48
   1770c:	8082                	ret

000000000001770e <__smakebuf_r>:
   1770e:	01059783          	lh	a5,16(a1)
   17712:	7135                	add	sp,sp,-160
   17714:	e922                	sd	s0,144(sp)
   17716:	ed06                	sd	ra,152(sp)
   17718:	0027f713          	and	a4,a5,2
   1771c:	842e                	mv	s0,a1
   1771e:	cb19                	beqz	a4,17734 <__smakebuf_r+0x26>
   17720:	07758793          	add	a5,a1,119
   17724:	e19c                	sd	a5,0(a1)
   17726:	ed9c                	sd	a5,24(a1)
   17728:	4785                	li	a5,1
   1772a:	d19c                	sw	a5,32(a1)
   1772c:	60ea                	ld	ra,152(sp)
   1772e:	644a                	ld	s0,144(sp)
   17730:	610d                	add	sp,sp,160
   17732:	8082                	ret
   17734:	01259583          	lh	a1,18(a1)
   17738:	e526                	sd	s1,136(sp)
   1773a:	e14a                	sd	s2,128(sp)
   1773c:	fcce                	sd	s3,120(sp)
   1773e:	f8d2                	sd	s4,112(sp)
   17740:	84aa                	mv	s1,a0
   17742:	0605c463          	bltz	a1,177aa <__smakebuf_r+0x9c>
   17746:	0030                	add	a2,sp,8
   17748:	164000ef          	jal	178ac <_fstat_r>
   1774c:	04054d63          	bltz	a0,177a6 <__smakebuf_r+0x98>
   17750:	4932                	lw	s2,12(sp)
   17752:	67bd                	lui	a5,0xf
   17754:	6985                	lui	s3,0x1
   17756:	00f97933          	and	s2,s2,a5
   1775a:	6789                	lui	a5,0x2
   1775c:	40f90933          	sub	s2,s2,a5
   17760:	00193913          	seqz	s2,s2
   17764:	40000a13          	li	s4,1024
   17768:	80098993          	add	s3,s3,-2048 # 800 <exit-0xf8e8>
   1776c:	85d2                	mv	a1,s4
   1776e:	8526                	mv	a0,s1
   17770:	f7ef90ef          	jal	10eee <_malloc_r>
   17774:	01041783          	lh	a5,16(s0)
   17778:	c539                	beqz	a0,177c6 <__smakebuf_r+0xb8>
   1777a:	0807e793          	or	a5,a5,128
   1777e:	e008                	sd	a0,0(s0)
   17780:	ec08                	sd	a0,24(s0)
   17782:	00f41823          	sh	a5,16(s0)
   17786:	03442023          	sw	s4,32(s0)
   1778a:	06091563          	bnez	s2,177f4 <__smakebuf_r+0xe6>
   1778e:	0137e7b3          	or	a5,a5,s3
   17792:	60ea                	ld	ra,152(sp)
   17794:	00f41823          	sh	a5,16(s0)
   17798:	644a                	ld	s0,144(sp)
   1779a:	64aa                	ld	s1,136(sp)
   1779c:	690a                	ld	s2,128(sp)
   1779e:	79e6                	ld	s3,120(sp)
   177a0:	7a46                	ld	s4,112(sp)
   177a2:	610d                	add	sp,sp,160
   177a4:	8082                	ret
   177a6:	01041783          	lh	a5,16(s0)
   177aa:	0807f793          	and	a5,a5,128
   177ae:	4901                	li	s2,0
   177b0:	cf95                	beqz	a5,177ec <__smakebuf_r+0xde>
   177b2:	04000a13          	li	s4,64
   177b6:	85d2                	mv	a1,s4
   177b8:	8526                	mv	a0,s1
   177ba:	f34f90ef          	jal	10eee <_malloc_r>
   177be:	01041783          	lh	a5,16(s0)
   177c2:	4981                	li	s3,0
   177c4:	f95d                	bnez	a0,1777a <__smakebuf_r+0x6c>
   177c6:	2007f713          	and	a4,a5,512
   177ca:	ef15                	bnez	a4,17806 <__smakebuf_r+0xf8>
   177cc:	9bf1                	and	a5,a5,-4
   177ce:	0027e793          	or	a5,a5,2
   177d2:	07740713          	add	a4,s0,119
   177d6:	00f41823          	sh	a5,16(s0)
   177da:	4785                	li	a5,1
   177dc:	64aa                	ld	s1,136(sp)
   177de:	690a                	ld	s2,128(sp)
   177e0:	79e6                	ld	s3,120(sp)
   177e2:	7a46                	ld	s4,112(sp)
   177e4:	e018                	sd	a4,0(s0)
   177e6:	ec18                	sd	a4,24(s0)
   177e8:	d01c                	sw	a5,32(s0)
   177ea:	b789                	j	1772c <__smakebuf_r+0x1e>
   177ec:	40000a13          	li	s4,1024
   177f0:	4981                	li	s3,0
   177f2:	bfad                	j	1776c <__smakebuf_r+0x5e>
   177f4:	01241583          	lh	a1,18(s0)
   177f8:	8526                	mv	a0,s1
   177fa:	0ec000ef          	jal	178e6 <_isatty_r>
   177fe:	e909                	bnez	a0,17810 <__smakebuf_r+0x102>
   17800:	01041783          	lh	a5,16(s0)
   17804:	b769                	j	1778e <__smakebuf_r+0x80>
   17806:	64aa                	ld	s1,136(sp)
   17808:	690a                	ld	s2,128(sp)
   1780a:	79e6                	ld	s3,120(sp)
   1780c:	7a46                	ld	s4,112(sp)
   1780e:	bf39                	j	1772c <__smakebuf_r+0x1e>
   17810:	01045783          	lhu	a5,16(s0)
   17814:	9bf1                	and	a5,a5,-4
   17816:	0017e793          	or	a5,a5,1
   1781a:	0107979b          	sllw	a5,a5,0x10
   1781e:	4107d79b          	sraw	a5,a5,0x10
   17822:	b7b5                	j	1778e <__smakebuf_r+0x80>

0000000000017824 <__swhatbuf_r>:
   17824:	7175                	add	sp,sp,-144
   17826:	e122                	sd	s0,128(sp)
   17828:	842e                	mv	s0,a1
   1782a:	01259583          	lh	a1,18(a1)
   1782e:	fca6                	sd	s1,120(sp)
   17830:	f8ca                	sd	s2,112(sp)
   17832:	e506                	sd	ra,136(sp)
   17834:	84b2                	mv	s1,a2
   17836:	8936                	mv	s2,a3
   17838:	0205cc63          	bltz	a1,17870 <__swhatbuf_r+0x4c>
   1783c:	0030                	add	a2,sp,8
   1783e:	06e000ef          	jal	178ac <_fstat_r>
   17842:	02054763          	bltz	a0,17870 <__swhatbuf_r+0x4c>
   17846:	47b2                	lw	a5,12(sp)
   17848:	673d                	lui	a4,0xf
   1784a:	60aa                	ld	ra,136(sp)
   1784c:	8ff9                	and	a5,a5,a4
   1784e:	6709                	lui	a4,0x2
   17850:	8f99                	sub	a5,a5,a4
   17852:	640a                	ld	s0,128(sp)
   17854:	0017b793          	seqz	a5,a5
   17858:	00f92023          	sw	a5,0(s2)
   1785c:	40000713          	li	a4,1024
   17860:	e098                	sd	a4,0(s1)
   17862:	6505                	lui	a0,0x1
   17864:	74e6                	ld	s1,120(sp)
   17866:	7946                	ld	s2,112(sp)
   17868:	80050513          	add	a0,a0,-2048 # 800 <exit-0xf8e8>
   1786c:	6149                	add	sp,sp,144
   1786e:	8082                	ret
   17870:	01045783          	lhu	a5,16(s0)
   17874:	0807f793          	and	a5,a5,128
   17878:	cf91                	beqz	a5,17894 <__swhatbuf_r+0x70>
   1787a:	60aa                	ld	ra,136(sp)
   1787c:	640a                	ld	s0,128(sp)
   1787e:	4781                	li	a5,0
   17880:	00f92023          	sw	a5,0(s2)
   17884:	04000713          	li	a4,64
   17888:	e098                	sd	a4,0(s1)
   1788a:	7946                	ld	s2,112(sp)
   1788c:	74e6                	ld	s1,120(sp)
   1788e:	4501                	li	a0,0
   17890:	6149                	add	sp,sp,144
   17892:	8082                	ret
   17894:	60aa                	ld	ra,136(sp)
   17896:	640a                	ld	s0,128(sp)
   17898:	00f92023          	sw	a5,0(s2)
   1789c:	40000713          	li	a4,1024
   178a0:	e098                	sd	a4,0(s1)
   178a2:	7946                	ld	s2,112(sp)
   178a4:	74e6                	ld	s1,120(sp)
   178a6:	4501                	li	a0,0
   178a8:	6149                	add	sp,sp,144
   178aa:	8082                	ret

00000000000178ac <_fstat_r>:
   178ac:	1101                	add	sp,sp,-32
   178ae:	872e                	mv	a4,a1
   178b0:	e822                	sd	s0,16(sp)
   178b2:	e426                	sd	s1,8(sp)
   178b4:	842a                	mv	s0,a0
   178b6:	85b2                	mv	a1,a2
   178b8:	853a                	mv	a0,a4
   178ba:	ec06                	sd	ra,24(sp)
   178bc:	2401a023          	sw	zero,576(gp) # 1b580 <errno>
   178c0:	570000ef          	jal	17e30 <_fstat>
   178c4:	57fd                	li	a5,-1
   178c6:	00f50763          	beq	a0,a5,178d4 <_fstat_r+0x28>
   178ca:	60e2                	ld	ra,24(sp)
   178cc:	6442                	ld	s0,16(sp)
   178ce:	64a2                	ld	s1,8(sp)
   178d0:	6105                	add	sp,sp,32
   178d2:	8082                	ret
   178d4:	2401a783          	lw	a5,576(gp) # 1b580 <errno>
   178d8:	dbed                	beqz	a5,178ca <_fstat_r+0x1e>
   178da:	60e2                	ld	ra,24(sp)
   178dc:	c01c                	sw	a5,0(s0)
   178de:	6442                	ld	s0,16(sp)
   178e0:	64a2                	ld	s1,8(sp)
   178e2:	6105                	add	sp,sp,32
   178e4:	8082                	ret

00000000000178e6 <_isatty_r>:
   178e6:	1101                	add	sp,sp,-32
   178e8:	e822                	sd	s0,16(sp)
   178ea:	e426                	sd	s1,8(sp)
   178ec:	842a                	mv	s0,a0
   178ee:	852e                	mv	a0,a1
   178f0:	ec06                	sd	ra,24(sp)
   178f2:	2401a023          	sw	zero,576(gp) # 1b580 <errno>
   178f6:	57e000ef          	jal	17e74 <_isatty>
   178fa:	57fd                	li	a5,-1
   178fc:	00f50763          	beq	a0,a5,1790a <_isatty_r+0x24>
   17900:	60e2                	ld	ra,24(sp)
   17902:	6442                	ld	s0,16(sp)
   17904:	64a2                	ld	s1,8(sp)
   17906:	6105                	add	sp,sp,32
   17908:	8082                	ret
   1790a:	2401a783          	lw	a5,576(gp) # 1b580 <errno>
   1790e:	dbed                	beqz	a5,17900 <_isatty_r+0x1a>
   17910:	60e2                	ld	ra,24(sp)
   17912:	c01c                	sw	a5,0(s0)
   17914:	6442                	ld	s0,16(sp)
   17916:	64a2                	ld	s1,8(sp)
   17918:	6105                	add	sp,sp,32
   1791a:	8082                	ret

000000000001791c <__assert_func>:
   1791c:	2201b703          	ld	a4,544(gp) # 1b560 <_impure_ptr>
   17920:	1141                	add	sp,sp,-16
   17922:	87b6                	mv	a5,a3
   17924:	8832                	mv	a6,a2
   17926:	e406                	sd	ra,8(sp)
   17928:	01873883          	ld	a7,24(a4) # 2018 <exit-0xe0d0>
   1792c:	86aa                	mv	a3,a0
   1792e:	872e                	mv	a4,a1
   17930:	863e                	mv	a2,a5
   17932:	00080d63          	beqz	a6,1794c <__assert_func+0x30>
   17936:	67e5                	lui	a5,0x19
   17938:	2f878793          	add	a5,a5,760 # 192f8 <__clzdi2+0x156>
   1793c:	65e5                	lui	a1,0x19
   1793e:	30858593          	add	a1,a1,776 # 19308 <__clzdi2+0x166>
   17942:	8546                	mv	a0,a7
   17944:	0ec000ef          	jal	17a30 <fiprintf>
   17948:	11a000ef          	jal	17a62 <abort>
   1794c:	6865                	lui	a6,0x19
   1794e:	25080793          	add	a5,a6,592 # 19250 <__clzdi2+0xae>
   17952:	25080813          	add	a6,a6,592
   17956:	b7dd                	j	1793c <__assert_func+0x20>

0000000000017958 <__assert>:
   17958:	1141                	add	sp,sp,-16
   1795a:	86b2                	mv	a3,a2
   1795c:	4601                	li	a2,0
   1795e:	e406                	sd	ra,8(sp)
   17960:	fbdff0ef          	jal	1791c <__assert_func>

0000000000017964 <_calloc_r>:
   17964:	02c5b7b3          	mulhu	a5,a1,a2
   17968:	1141                	add	sp,sp,-16
   1796a:	e406                	sd	ra,8(sp)
   1796c:	e022                	sd	s0,0(sp)
   1796e:	02c585b3          	mul	a1,a1,a2
   17972:	efb5                	bnez	a5,179ee <_calloc_r+0x8a>
   17974:	d7af90ef          	jal	10eee <_malloc_r>
   17978:	842a                	mv	s0,a0
   1797a:	cd35                	beqz	a0,179f6 <_calloc_r+0x92>
   1797c:	ff853603          	ld	a2,-8(a0)
   17980:	04800713          	li	a4,72
   17984:	9a71                	and	a2,a2,-4
   17986:	1661                	add	a2,a2,-8
   17988:	04c76263          	bltu	a4,a2,179cc <_calloc_r+0x68>
   1798c:	02700693          	li	a3,39
   17990:	87aa                	mv	a5,a0
   17992:	02c6f263          	bgeu	a3,a2,179b6 <_calloc_r+0x52>
   17996:	00053023          	sd	zero,0(a0)
   1799a:	00053423          	sd	zero,8(a0)
   1799e:	03700793          	li	a5,55
   179a2:	02c7fd63          	bgeu	a5,a2,179dc <_calloc_r+0x78>
   179a6:	00053823          	sd	zero,16(a0)
   179aa:	00053c23          	sd	zero,24(a0)
   179ae:	02050793          	add	a5,a0,32
   179b2:	04e60863          	beq	a2,a4,17a02 <_calloc_r+0x9e>
   179b6:	0007b023          	sd	zero,0(a5)
   179ba:	0007b423          	sd	zero,8(a5)
   179be:	0007b823          	sd	zero,16(a5)
   179c2:	60a2                	ld	ra,8(sp)
   179c4:	8522                	mv	a0,s0
   179c6:	6402                	ld	s0,0(sp)
   179c8:	0141                	add	sp,sp,16
   179ca:	8082                	ret
   179cc:	4581                	li	a1,0
   179ce:	886f90ef          	jal	10a54 <memset>
   179d2:	60a2                	ld	ra,8(sp)
   179d4:	8522                	mv	a0,s0
   179d6:	6402                	ld	s0,0(sp)
   179d8:	0141                	add	sp,sp,16
   179da:	8082                	ret
   179dc:	01050793          	add	a5,a0,16
   179e0:	0007b023          	sd	zero,0(a5)
   179e4:	0007b423          	sd	zero,8(a5)
   179e8:	0007b823          	sd	zero,16(a5)
   179ec:	bfd9                	j	179c2 <_calloc_r+0x5e>
   179ee:	06e000ef          	jal	17a5c <__errno>
   179f2:	47b1                	li	a5,12
   179f4:	c11c                	sw	a5,0(a0)
   179f6:	4401                	li	s0,0
   179f8:	60a2                	ld	ra,8(sp)
   179fa:	8522                	mv	a0,s0
   179fc:	6402                	ld	s0,0(sp)
   179fe:	0141                	add	sp,sp,16
   17a00:	8082                	ret
   17a02:	02053023          	sd	zero,32(a0)
   17a06:	03050793          	add	a5,a0,48
   17a0a:	02053423          	sd	zero,40(a0)
   17a0e:	b765                	j	179b6 <_calloc_r+0x52>

0000000000017a10 <_fiprintf_r>:
   17a10:	715d                	add	sp,sp,-80
   17a12:	02810313          	add	t1,sp,40
   17a16:	f436                	sd	a3,40(sp)
   17a18:	869a                	mv	a3,t1
   17a1a:	ec06                	sd	ra,24(sp)
   17a1c:	f83a                	sd	a4,48(sp)
   17a1e:	fc3e                	sd	a5,56(sp)
   17a20:	e0c2                	sd	a6,64(sp)
   17a22:	e4c6                	sd	a7,72(sp)
   17a24:	e41a                	sd	t1,8(sp)
   17a26:	f80fb0ef          	jal	131a6 <_vfiprintf_r>
   17a2a:	60e2                	ld	ra,24(sp)
   17a2c:	6161                	add	sp,sp,80
   17a2e:	8082                	ret

0000000000017a30 <fiprintf>:
   17a30:	8e2a                	mv	t3,a0
   17a32:	715d                	add	sp,sp,-80
   17a34:	2201b503          	ld	a0,544(gp) # 1b560 <_impure_ptr>
   17a38:	02010313          	add	t1,sp,32
   17a3c:	f032                	sd	a2,32(sp)
   17a3e:	f436                	sd	a3,40(sp)
   17a40:	862e                	mv	a2,a1
   17a42:	869a                	mv	a3,t1
   17a44:	85f2                	mv	a1,t3
   17a46:	ec06                	sd	ra,24(sp)
   17a48:	f83a                	sd	a4,48(sp)
   17a4a:	fc3e                	sd	a5,56(sp)
   17a4c:	e0c2                	sd	a6,64(sp)
   17a4e:	e4c6                	sd	a7,72(sp)
   17a50:	e41a                	sd	t1,8(sp)
   17a52:	f54fb0ef          	jal	131a6 <_vfiprintf_r>
   17a56:	60e2                	ld	ra,24(sp)
   17a58:	6161                	add	sp,sp,80
   17a5a:	8082                	ret

0000000000017a5c <__errno>:
   17a5c:	2201b503          	ld	a0,544(gp) # 1b560 <_impure_ptr>
   17a60:	8082                	ret

0000000000017a62 <abort>:
   17a62:	1141                	add	sp,sp,-16
   17a64:	4519                	li	a0,6
   17a66:	e406                	sd	ra,8(sp)
   17a68:	19c000ef          	jal	17c04 <raise>
   17a6c:	4505                	li	a0,1
   17a6e:	3a0000ef          	jal	17e0e <_exit>

0000000000017a72 <_init_signal_r>:
   17a72:	15053783          	ld	a5,336(a0)
   17a76:	c399                	beqz	a5,17a7c <_init_signal_r+0xa>
   17a78:	4501                	li	a0,0
   17a7a:	8082                	ret
   17a7c:	1141                	add	sp,sp,-16
   17a7e:	10000593          	li	a1,256
   17a82:	e022                	sd	s0,0(sp)
   17a84:	e406                	sd	ra,8(sp)
   17a86:	842a                	mv	s0,a0
   17a88:	c66f90ef          	jal	10eee <_malloc_r>
   17a8c:	14a43823          	sd	a0,336(s0)
   17a90:	cd09                	beqz	a0,17aaa <_init_signal_r+0x38>
   17a92:	10050793          	add	a5,a0,256
   17a96:	00053023          	sd	zero,0(a0)
   17a9a:	0521                	add	a0,a0,8
   17a9c:	fef51de3          	bne	a0,a5,17a96 <_init_signal_r+0x24>
   17aa0:	4501                	li	a0,0
   17aa2:	60a2                	ld	ra,8(sp)
   17aa4:	6402                	ld	s0,0(sp)
   17aa6:	0141                	add	sp,sp,16
   17aa8:	8082                	ret
   17aaa:	557d                	li	a0,-1
   17aac:	bfdd                	j	17aa2 <_init_signal_r+0x30>

0000000000017aae <_signal_r>:
   17aae:	7179                	add	sp,sp,-48
   17ab0:	ec26                	sd	s1,24(sp)
   17ab2:	f406                	sd	ra,40(sp)
   17ab4:	47fd                	li	a5,31
   17ab6:	84aa                	mv	s1,a0
   17ab8:	02b7e063          	bltu	a5,a1,17ad8 <_signal_r+0x2a>
   17abc:	15053783          	ld	a5,336(a0)
   17ac0:	f022                	sd	s0,32(sp)
   17ac2:	842e                	mv	s0,a1
   17ac4:	cf91                	beqz	a5,17ae0 <_signal_r+0x32>
   17ac6:	040e                	sll	s0,s0,0x3
   17ac8:	97a2                	add	a5,a5,s0
   17aca:	7402                	ld	s0,32(sp)
   17acc:	6388                	ld	a0,0(a5)
   17ace:	e390                	sd	a2,0(a5)
   17ad0:	70a2                	ld	ra,40(sp)
   17ad2:	64e2                	ld	s1,24(sp)
   17ad4:	6145                	add	sp,sp,48
   17ad6:	8082                	ret
   17ad8:	47d9                	li	a5,22
   17ada:	c11c                	sw	a5,0(a0)
   17adc:	557d                	li	a0,-1
   17ade:	bfcd                	j	17ad0 <_signal_r+0x22>
   17ae0:	10000593          	li	a1,256
   17ae4:	e432                	sd	a2,8(sp)
   17ae6:	c08f90ef          	jal	10eee <_malloc_r>
   17aea:	14a4b823          	sd	a0,336(s1)
   17aee:	6622                	ld	a2,8(sp)
   17af0:	87aa                	mv	a5,a0
   17af2:	872a                	mv	a4,a0
   17af4:	10050693          	add	a3,a0,256
   17af8:	c519                	beqz	a0,17b06 <_signal_r+0x58>
   17afa:	00073023          	sd	zero,0(a4)
   17afe:	0721                	add	a4,a4,8
   17b00:	fed71de3          	bne	a4,a3,17afa <_signal_r+0x4c>
   17b04:	b7c9                	j	17ac6 <_signal_r+0x18>
   17b06:	7402                	ld	s0,32(sp)
   17b08:	557d                	li	a0,-1
   17b0a:	b7d9                	j	17ad0 <_signal_r+0x22>

0000000000017b0c <_raise_r>:
   17b0c:	1101                	add	sp,sp,-32
   17b0e:	e426                	sd	s1,8(sp)
   17b10:	ec06                	sd	ra,24(sp)
   17b12:	47fd                	li	a5,31
   17b14:	84aa                	mv	s1,a0
   17b16:	04b7ef63          	bltu	a5,a1,17b74 <_raise_r+0x68>
   17b1a:	15053783          	ld	a5,336(a0)
   17b1e:	e822                	sd	s0,16(sp)
   17b20:	842e                	mv	s0,a1
   17b22:	c795                	beqz	a5,17b4e <_raise_r+0x42>
   17b24:	00359713          	sll	a4,a1,0x3
   17b28:	97ba                	add	a5,a5,a4
   17b2a:	6398                	ld	a4,0(a5)
   17b2c:	c30d                	beqz	a4,17b4e <_raise_r+0x42>
   17b2e:	4685                	li	a3,1
   17b30:	00d70963          	beq	a4,a3,17b42 <_raise_r+0x36>
   17b34:	56fd                	li	a3,-1
   17b36:	02d70763          	beq	a4,a3,17b64 <_raise_r+0x58>
   17b3a:	0007b023          	sd	zero,0(a5)
   17b3e:	852e                	mv	a0,a1
   17b40:	9702                	jalr	a4
   17b42:	6442                	ld	s0,16(sp)
   17b44:	4501                	li	a0,0
   17b46:	60e2                	ld	ra,24(sp)
   17b48:	64a2                	ld	s1,8(sp)
   17b4a:	6105                	add	sp,sp,32
   17b4c:	8082                	ret
   17b4e:	8526                	mv	a0,s1
   17b50:	290000ef          	jal	17de0 <_getpid_r>
   17b54:	8622                	mv	a2,s0
   17b56:	6442                	ld	s0,16(sp)
   17b58:	60e2                	ld	ra,24(sp)
   17b5a:	85aa                	mv	a1,a0
   17b5c:	8526                	mv	a0,s1
   17b5e:	64a2                	ld	s1,8(sp)
   17b60:	6105                	add	sp,sp,32
   17b62:	a491                	j	17da6 <_kill_r>
   17b64:	6442                	ld	s0,16(sp)
   17b66:	60e2                	ld	ra,24(sp)
   17b68:	47d9                	li	a5,22
   17b6a:	c11c                	sw	a5,0(a0)
   17b6c:	64a2                	ld	s1,8(sp)
   17b6e:	4505                	li	a0,1
   17b70:	6105                	add	sp,sp,32
   17b72:	8082                	ret
   17b74:	47d9                	li	a5,22
   17b76:	c11c                	sw	a5,0(a0)
   17b78:	557d                	li	a0,-1
   17b7a:	b7f1                	j	17b46 <_raise_r+0x3a>

0000000000017b7c <__sigtramp_r>:
   17b7c:	47fd                	li	a5,31
   17b7e:	08b7e163          	bltu	a5,a1,17c00 <__sigtramp_r+0x84>
   17b82:	15053783          	ld	a5,336(a0)
   17b86:	1101                	add	sp,sp,-32
   17b88:	e822                	sd	s0,16(sp)
   17b8a:	e426                	sd	s1,8(sp)
   17b8c:	ec06                	sd	ra,24(sp)
   17b8e:	842e                	mv	s0,a1
   17b90:	84aa                	mv	s1,a0
   17b92:	c7a1                	beqz	a5,17bda <__sigtramp_r+0x5e>
   17b94:	00341713          	sll	a4,s0,0x3
   17b98:	97ba                	add	a5,a5,a4
   17b9a:	6398                	ld	a4,0(a5)
   17b9c:	c30d                	beqz	a4,17bbe <__sigtramp_r+0x42>
   17b9e:	56fd                	li	a3,-1
   17ba0:	02d70b63          	beq	a4,a3,17bd6 <__sigtramp_r+0x5a>
   17ba4:	4685                	li	a3,1
   17ba6:	02d70263          	beq	a4,a3,17bca <__sigtramp_r+0x4e>
   17baa:	8522                	mv	a0,s0
   17bac:	0007b023          	sd	zero,0(a5)
   17bb0:	9702                	jalr	a4
   17bb2:	4501                	li	a0,0
   17bb4:	60e2                	ld	ra,24(sp)
   17bb6:	6442                	ld	s0,16(sp)
   17bb8:	64a2                	ld	s1,8(sp)
   17bba:	6105                	add	sp,sp,32
   17bbc:	8082                	ret
   17bbe:	60e2                	ld	ra,24(sp)
   17bc0:	6442                	ld	s0,16(sp)
   17bc2:	64a2                	ld	s1,8(sp)
   17bc4:	4505                	li	a0,1
   17bc6:	6105                	add	sp,sp,32
   17bc8:	8082                	ret
   17bca:	60e2                	ld	ra,24(sp)
   17bcc:	6442                	ld	s0,16(sp)
   17bce:	64a2                	ld	s1,8(sp)
   17bd0:	450d                	li	a0,3
   17bd2:	6105                	add	sp,sp,32
   17bd4:	8082                	ret
   17bd6:	4509                	li	a0,2
   17bd8:	bff1                	j	17bb4 <__sigtramp_r+0x38>
   17bda:	10000593          	li	a1,256
   17bde:	b10f90ef          	jal	10eee <_malloc_r>
   17be2:	14a4b823          	sd	a0,336(s1)
   17be6:	87aa                	mv	a5,a0
   17be8:	c911                	beqz	a0,17bfc <__sigtramp_r+0x80>
   17bea:	872a                	mv	a4,a0
   17bec:	10050693          	add	a3,a0,256
   17bf0:	00073023          	sd	zero,0(a4)
   17bf4:	0721                	add	a4,a4,8
   17bf6:	fed71de3          	bne	a4,a3,17bf0 <__sigtramp_r+0x74>
   17bfa:	bf69                	j	17b94 <__sigtramp_r+0x18>
   17bfc:	557d                	li	a0,-1
   17bfe:	bf5d                	j	17bb4 <__sigtramp_r+0x38>
   17c00:	557d                	li	a0,-1
   17c02:	8082                	ret

0000000000017c04 <raise>:
   17c04:	1101                	add	sp,sp,-32
   17c06:	e426                	sd	s1,8(sp)
   17c08:	ec06                	sd	ra,24(sp)
   17c0a:	47fd                	li	a5,31
   17c0c:	2201b483          	ld	s1,544(gp) # 1b560 <_impure_ptr>
   17c10:	04a7ee63          	bltu	a5,a0,17c6c <raise+0x68>
   17c14:	1504b783          	ld	a5,336(s1)
   17c18:	e822                	sd	s0,16(sp)
   17c1a:	842a                	mv	s0,a0
   17c1c:	c78d                	beqz	a5,17c46 <raise+0x42>
   17c1e:	00351713          	sll	a4,a0,0x3
   17c22:	97ba                	add	a5,a5,a4
   17c24:	6398                	ld	a4,0(a5)
   17c26:	c305                	beqz	a4,17c46 <raise+0x42>
   17c28:	4685                	li	a3,1
   17c2a:	00d70863          	beq	a4,a3,17c3a <raise+0x36>
   17c2e:	56fd                	li	a3,-1
   17c30:	02d70663          	beq	a4,a3,17c5c <raise+0x58>
   17c34:	0007b023          	sd	zero,0(a5)
   17c38:	9702                	jalr	a4
   17c3a:	6442                	ld	s0,16(sp)
   17c3c:	4501                	li	a0,0
   17c3e:	60e2                	ld	ra,24(sp)
   17c40:	64a2                	ld	s1,8(sp)
   17c42:	6105                	add	sp,sp,32
   17c44:	8082                	ret
   17c46:	8526                	mv	a0,s1
   17c48:	198000ef          	jal	17de0 <_getpid_r>
   17c4c:	8622                	mv	a2,s0
   17c4e:	6442                	ld	s0,16(sp)
   17c50:	60e2                	ld	ra,24(sp)
   17c52:	85aa                	mv	a1,a0
   17c54:	8526                	mv	a0,s1
   17c56:	64a2                	ld	s1,8(sp)
   17c58:	6105                	add	sp,sp,32
   17c5a:	a2b1                	j	17da6 <_kill_r>
   17c5c:	6442                	ld	s0,16(sp)
   17c5e:	60e2                	ld	ra,24(sp)
   17c60:	47d9                	li	a5,22
   17c62:	c09c                	sw	a5,0(s1)
   17c64:	4505                	li	a0,1
   17c66:	64a2                	ld	s1,8(sp)
   17c68:	6105                	add	sp,sp,32
   17c6a:	8082                	ret
   17c6c:	47d9                	li	a5,22
   17c6e:	c09c                	sw	a5,0(s1)
   17c70:	557d                	li	a0,-1
   17c72:	b7f1                	j	17c3e <raise+0x3a>

0000000000017c74 <signal>:
   17c74:	1101                	add	sp,sp,-32
   17c76:	e04a                	sd	s2,0(sp)
   17c78:	ec06                	sd	ra,24(sp)
   17c7a:	47fd                	li	a5,31
   17c7c:	2201b903          	ld	s2,544(gp) # 1b560 <_impure_ptr>
   17c80:	02a7e463          	bltu	a5,a0,17ca8 <signal+0x34>
   17c84:	e822                	sd	s0,16(sp)
   17c86:	842a                	mv	s0,a0
   17c88:	15093503          	ld	a0,336(s2)
   17c8c:	e426                	sd	s1,8(sp)
   17c8e:	84ae                	mv	s1,a1
   17c90:	c10d                	beqz	a0,17cb2 <signal+0x3e>
   17c92:	040e                	sll	s0,s0,0x3
   17c94:	008507b3          	add	a5,a0,s0
   17c98:	6388                	ld	a0,0(a5)
   17c9a:	6442                	ld	s0,16(sp)
   17c9c:	e384                	sd	s1,0(a5)
   17c9e:	64a2                	ld	s1,8(sp)
   17ca0:	60e2                	ld	ra,24(sp)
   17ca2:	6902                	ld	s2,0(sp)
   17ca4:	6105                	add	sp,sp,32
   17ca6:	8082                	ret
   17ca8:	47d9                	li	a5,22
   17caa:	00f92023          	sw	a5,0(s2)
   17cae:	557d                	li	a0,-1
   17cb0:	bfc5                	j	17ca0 <signal+0x2c>
   17cb2:	10000593          	li	a1,256
   17cb6:	854a                	mv	a0,s2
   17cb8:	a36f90ef          	jal	10eee <_malloc_r>
   17cbc:	14a93823          	sd	a0,336(s2)
   17cc0:	87aa                	mv	a5,a0
   17cc2:	10050713          	add	a4,a0,256
   17cc6:	c519                	beqz	a0,17cd4 <signal+0x60>
   17cc8:	0007b023          	sd	zero,0(a5)
   17ccc:	07a1                	add	a5,a5,8
   17cce:	fef71de3          	bne	a4,a5,17cc8 <signal+0x54>
   17cd2:	b7c1                	j	17c92 <signal+0x1e>
   17cd4:	6442                	ld	s0,16(sp)
   17cd6:	64a2                	ld	s1,8(sp)
   17cd8:	557d                	li	a0,-1
   17cda:	b7d9                	j	17ca0 <signal+0x2c>

0000000000017cdc <_init_signal>:
   17cdc:	1141                	add	sp,sp,-16
   17cde:	e022                	sd	s0,0(sp)
   17ce0:	2201b403          	ld	s0,544(gp) # 1b560 <_impure_ptr>
   17ce4:	e406                	sd	ra,8(sp)
   17ce6:	15043783          	ld	a5,336(s0)
   17cea:	c791                	beqz	a5,17cf6 <_init_signal+0x1a>
   17cec:	4501                	li	a0,0
   17cee:	60a2                	ld	ra,8(sp)
   17cf0:	6402                	ld	s0,0(sp)
   17cf2:	0141                	add	sp,sp,16
   17cf4:	8082                	ret
   17cf6:	10000593          	li	a1,256
   17cfa:	8522                	mv	a0,s0
   17cfc:	9f2f90ef          	jal	10eee <_malloc_r>
   17d00:	14a43823          	sd	a0,336(s0)
   17d04:	c909                	beqz	a0,17d16 <_init_signal+0x3a>
   17d06:	10050793          	add	a5,a0,256
   17d0a:	00053023          	sd	zero,0(a0)
   17d0e:	0521                	add	a0,a0,8
   17d10:	fef51de3          	bne	a0,a5,17d0a <_init_signal+0x2e>
   17d14:	bfe1                	j	17cec <_init_signal+0x10>
   17d16:	557d                	li	a0,-1
   17d18:	bfd9                	j	17cee <_init_signal+0x12>

0000000000017d1a <__sigtramp>:
   17d1a:	1101                	add	sp,sp,-32
   17d1c:	e426                	sd	s1,8(sp)
   17d1e:	ec06                	sd	ra,24(sp)
   17d20:	47fd                	li	a5,31
   17d22:	2201b483          	ld	s1,544(gp) # 1b560 <_impure_ptr>
   17d26:	06a7ee63          	bltu	a5,a0,17da2 <__sigtramp+0x88>
   17d2a:	1504b783          	ld	a5,336(s1)
   17d2e:	e822                	sd	s0,16(sp)
   17d30:	842a                	mv	s0,a0
   17d32:	c7a9                	beqz	a5,17d7c <__sigtramp+0x62>
   17d34:	00341713          	sll	a4,s0,0x3
   17d38:	97ba                	add	a5,a5,a4
   17d3a:	6398                	ld	a4,0(a5)
   17d3c:	c30d                	beqz	a4,17d5e <__sigtramp+0x44>
   17d3e:	56fd                	li	a3,-1
   17d40:	02d70b63          	beq	a4,a3,17d76 <__sigtramp+0x5c>
   17d44:	4685                	li	a3,1
   17d46:	02d70263          	beq	a4,a3,17d6a <__sigtramp+0x50>
   17d4a:	8522                	mv	a0,s0
   17d4c:	0007b023          	sd	zero,0(a5)
   17d50:	9702                	jalr	a4
   17d52:	6442                	ld	s0,16(sp)
   17d54:	4501                	li	a0,0
   17d56:	60e2                	ld	ra,24(sp)
   17d58:	64a2                	ld	s1,8(sp)
   17d5a:	6105                	add	sp,sp,32
   17d5c:	8082                	ret
   17d5e:	6442                	ld	s0,16(sp)
   17d60:	60e2                	ld	ra,24(sp)
   17d62:	64a2                	ld	s1,8(sp)
   17d64:	4505                	li	a0,1
   17d66:	6105                	add	sp,sp,32
   17d68:	8082                	ret
   17d6a:	6442                	ld	s0,16(sp)
   17d6c:	60e2                	ld	ra,24(sp)
   17d6e:	64a2                	ld	s1,8(sp)
   17d70:	450d                	li	a0,3
   17d72:	6105                	add	sp,sp,32
   17d74:	8082                	ret
   17d76:	6442                	ld	s0,16(sp)
   17d78:	4509                	li	a0,2
   17d7a:	bff1                	j	17d56 <__sigtramp+0x3c>
   17d7c:	10000593          	li	a1,256
   17d80:	8526                	mv	a0,s1
   17d82:	96cf90ef          	jal	10eee <_malloc_r>
   17d86:	14a4b823          	sd	a0,336(s1)
   17d8a:	87aa                	mv	a5,a0
   17d8c:	c911                	beqz	a0,17da0 <__sigtramp+0x86>
   17d8e:	872a                	mv	a4,a0
   17d90:	10050693          	add	a3,a0,256
   17d94:	00073023          	sd	zero,0(a4)
   17d98:	0721                	add	a4,a4,8
   17d9a:	fee69de3          	bne	a3,a4,17d94 <__sigtramp+0x7a>
   17d9e:	bf59                	j	17d34 <__sigtramp+0x1a>
   17da0:	6442                	ld	s0,16(sp)
   17da2:	557d                	li	a0,-1
   17da4:	bf4d                	j	17d56 <__sigtramp+0x3c>

0000000000017da6 <_kill_r>:
   17da6:	1101                	add	sp,sp,-32
   17da8:	872e                	mv	a4,a1
   17daa:	e822                	sd	s0,16(sp)
   17dac:	e426                	sd	s1,8(sp)
   17dae:	842a                	mv	s0,a0
   17db0:	85b2                	mv	a1,a2
   17db2:	853a                	mv	a0,a4
   17db4:	ec06                	sd	ra,24(sp)
   17db6:	2401a023          	sw	zero,576(gp) # 1b580 <errno>
   17dba:	0e0000ef          	jal	17e9a <_kill>
   17dbe:	57fd                	li	a5,-1
   17dc0:	00f50763          	beq	a0,a5,17dce <_kill_r+0x28>
   17dc4:	60e2                	ld	ra,24(sp)
   17dc6:	6442                	ld	s0,16(sp)
   17dc8:	64a2                	ld	s1,8(sp)
   17dca:	6105                	add	sp,sp,32
   17dcc:	8082                	ret
   17dce:	2401a783          	lw	a5,576(gp) # 1b580 <errno>
   17dd2:	dbed                	beqz	a5,17dc4 <_kill_r+0x1e>
   17dd4:	60e2                	ld	ra,24(sp)
   17dd6:	c01c                	sw	a5,0(s0)
   17dd8:	6442                	ld	s0,16(sp)
   17dda:	64a2                	ld	s1,8(sp)
   17ddc:	6105                	add	sp,sp,32
   17dde:	8082                	ret

0000000000017de0 <_getpid_r>:
   17de0:	a841                	j	17e70 <_getpid>

0000000000017de2 <_close>:
   17de2:	1141                	add	sp,sp,-16
   17de4:	e406                	sd	ra,8(sp)
   17de6:	e022                	sd	s0,0(sp)
   17de8:	03900893          	li	a7,57
   17dec:	00000073          	ecall
   17df0:	842a                	mv	s0,a0
   17df2:	00054763          	bltz	a0,17e00 <_close+0x1e>
   17df6:	2501                	sext.w	a0,a0
   17df8:	60a2                	ld	ra,8(sp)
   17dfa:	6402                	ld	s0,0(sp)
   17dfc:	0141                	add	sp,sp,16
   17dfe:	8082                	ret
   17e00:	c5dff0ef          	jal	17a5c <__errno>
   17e04:	4080043b          	negw	s0,s0
   17e08:	c100                	sw	s0,0(a0)
   17e0a:	557d                	li	a0,-1
   17e0c:	b7f5                	j	17df8 <_close+0x16>

0000000000017e0e <_exit>:
   17e0e:	05d00893          	li	a7,93
   17e12:	00000073          	ecall
   17e16:	00054363          	bltz	a0,17e1c <_exit+0xe>
   17e1a:	a001                	j	17e1a <_exit+0xc>
   17e1c:	1141                	add	sp,sp,-16
   17e1e:	e022                	sd	s0,0(sp)
   17e20:	842a                	mv	s0,a0
   17e22:	e406                	sd	ra,8(sp)
   17e24:	4080043b          	negw	s0,s0
   17e28:	c35ff0ef          	jal	17a5c <__errno>
   17e2c:	c100                	sw	s0,0(a0)
   17e2e:	a001                	j	17e2e <_exit+0x20>

0000000000017e30 <_fstat>:
   17e30:	7135                	add	sp,sp,-160
   17e32:	e526                	sd	s1,136(sp)
   17e34:	ed06                	sd	ra,152(sp)
   17e36:	84ae                	mv	s1,a1
   17e38:	e922                	sd	s0,144(sp)
   17e3a:	05000893          	li	a7,80
   17e3e:	858a                	mv	a1,sp
   17e40:	00000073          	ecall
   17e44:	842a                	mv	s0,a0
   17e46:	00054e63          	bltz	a0,17e62 <_fstat+0x32>
   17e4a:	0005041b          	sext.w	s0,a0
   17e4e:	8526                	mv	a0,s1
   17e50:	858a                	mv	a1,sp
   17e52:	134000ef          	jal	17f86 <_conv_stat>
   17e56:	60ea                	ld	ra,152(sp)
   17e58:	8522                	mv	a0,s0
   17e5a:	644a                	ld	s0,144(sp)
   17e5c:	64aa                	ld	s1,136(sp)
   17e5e:	610d                	add	sp,sp,160
   17e60:	8082                	ret
   17e62:	4080043b          	negw	s0,s0
   17e66:	bf7ff0ef          	jal	17a5c <__errno>
   17e6a:	c100                	sw	s0,0(a0)
   17e6c:	547d                	li	s0,-1
   17e6e:	b7c5                	j	17e4e <_fstat+0x1e>

0000000000017e70 <_getpid>:
   17e70:	4505                	li	a0,1
   17e72:	8082                	ret

0000000000017e74 <_isatty>:
   17e74:	7119                	add	sp,sp,-128
   17e76:	002c                	add	a1,sp,8
   17e78:	fc86                	sd	ra,120(sp)
   17e7a:	fb7ff0ef          	jal	17e30 <_fstat>
   17e7e:	57fd                	li	a5,-1
   17e80:	00f50963          	beq	a0,a5,17e92 <_isatty+0x1e>
   17e84:	4532                	lw	a0,12(sp)
   17e86:	70e6                	ld	ra,120(sp)
   17e88:	40d5551b          	sraw	a0,a0,0xd
   17e8c:	8905                	and	a0,a0,1
   17e8e:	6109                	add	sp,sp,128
   17e90:	8082                	ret
   17e92:	70e6                	ld	ra,120(sp)
   17e94:	4501                	li	a0,0
   17e96:	6109                	add	sp,sp,128
   17e98:	8082                	ret

0000000000017e9a <_kill>:
   17e9a:	1141                	add	sp,sp,-16
   17e9c:	e406                	sd	ra,8(sp)
   17e9e:	bbfff0ef          	jal	17a5c <__errno>
   17ea2:	60a2                	ld	ra,8(sp)
   17ea4:	47d9                	li	a5,22
   17ea6:	c11c                	sw	a5,0(a0)
   17ea8:	557d                	li	a0,-1
   17eaa:	0141                	add	sp,sp,16
   17eac:	8082                	ret

0000000000017eae <_lseek>:
   17eae:	1141                	add	sp,sp,-16
   17eb0:	e406                	sd	ra,8(sp)
   17eb2:	e022                	sd	s0,0(sp)
   17eb4:	03e00893          	li	a7,62
   17eb8:	00000073          	ecall
   17ebc:	842a                	mv	s0,a0
   17ebe:	00054763          	bltz	a0,17ecc <_lseek+0x1e>
   17ec2:	60a2                	ld	ra,8(sp)
   17ec4:	8522                	mv	a0,s0
   17ec6:	6402                	ld	s0,0(sp)
   17ec8:	0141                	add	sp,sp,16
   17eca:	8082                	ret
   17ecc:	4080043b          	negw	s0,s0
   17ed0:	b8dff0ef          	jal	17a5c <__errno>
   17ed4:	c100                	sw	s0,0(a0)
   17ed6:	547d                	li	s0,-1
   17ed8:	b7ed                	j	17ec2 <_lseek+0x14>

0000000000017eda <_read>:
   17eda:	1141                	add	sp,sp,-16
   17edc:	e406                	sd	ra,8(sp)
   17ede:	e022                	sd	s0,0(sp)
   17ee0:	03f00893          	li	a7,63
   17ee4:	00000073          	ecall
   17ee8:	842a                	mv	s0,a0
   17eea:	00054763          	bltz	a0,17ef8 <_read+0x1e>
   17eee:	60a2                	ld	ra,8(sp)
   17ef0:	8522                	mv	a0,s0
   17ef2:	6402                	ld	s0,0(sp)
   17ef4:	0141                	add	sp,sp,16
   17ef6:	8082                	ret
   17ef8:	4080043b          	negw	s0,s0
   17efc:	b61ff0ef          	jal	17a5c <__errno>
   17f00:	c100                	sw	s0,0(a0)
   17f02:	547d                	li	s0,-1
   17f04:	b7ed                	j	17eee <_read+0x14>

0000000000017f06 <_sbrk>:
   17f06:	2701b703          	ld	a4,624(gp) # 1b5b0 <heap_end.0>
   17f0a:	1141                	add	sp,sp,-16
   17f0c:	e406                	sd	ra,8(sp)
   17f0e:	87aa                	mv	a5,a0
   17f10:	ef01                	bnez	a4,17f28 <_sbrk+0x22>
   17f12:	0d600893          	li	a7,214
   17f16:	4501                	li	a0,0
   17f18:	00000073          	ecall
   17f1c:	567d                	li	a2,-1
   17f1e:	872a                	mv	a4,a0
   17f20:	02c50563          	beq	a0,a2,17f4a <_sbrk+0x44>
   17f24:	26a1b823          	sd	a0,624(gp) # 1b5b0 <heap_end.0>
   17f28:	0d600893          	li	a7,214
   17f2c:	00e78533          	add	a0,a5,a4
   17f30:	00000073          	ecall
   17f34:	2701b703          	ld	a4,624(gp) # 1b5b0 <heap_end.0>
   17f38:	97ba                	add	a5,a5,a4
   17f3a:	00f51863          	bne	a0,a5,17f4a <_sbrk+0x44>
   17f3e:	60a2                	ld	ra,8(sp)
   17f40:	26a1b823          	sd	a0,624(gp) # 1b5b0 <heap_end.0>
   17f44:	853a                	mv	a0,a4
   17f46:	0141                	add	sp,sp,16
   17f48:	8082                	ret
   17f4a:	b13ff0ef          	jal	17a5c <__errno>
   17f4e:	60a2                	ld	ra,8(sp)
   17f50:	47b1                	li	a5,12
   17f52:	c11c                	sw	a5,0(a0)
   17f54:	557d                	li	a0,-1
   17f56:	0141                	add	sp,sp,16
   17f58:	8082                	ret

0000000000017f5a <_write>:
   17f5a:	1141                	add	sp,sp,-16
   17f5c:	e406                	sd	ra,8(sp)
   17f5e:	e022                	sd	s0,0(sp)
   17f60:	04000893          	li	a7,64
   17f64:	00000073          	ecall
   17f68:	842a                	mv	s0,a0
   17f6a:	00054763          	bltz	a0,17f78 <_write+0x1e>
   17f6e:	60a2                	ld	ra,8(sp)
   17f70:	8522                	mv	a0,s0
   17f72:	6402                	ld	s0,0(sp)
   17f74:	0141                	add	sp,sp,16
   17f76:	8082                	ret
   17f78:	4080043b          	negw	s0,s0
   17f7c:	ae1ff0ef          	jal	17a5c <__errno>
   17f80:	c100                	sw	s0,0(a0)
   17f82:	547d                	li	s0,-1
   17f84:	b7ed                	j	17f6e <_write+0x14>

0000000000017f86 <_conv_stat>:
   17f86:	0185d703          	lhu	a4,24(a1)
   17f8a:	0145d783          	lhu	a5,20(a1)
   17f8e:	4dd0                	lw	a2,28(a1)
   17f90:	7194                	ld	a3,32(a1)
   17f92:	0005b303          	ld	t1,0(a1)
   17f96:	0085b883          	ld	a7,8(a1)
   17f9a:	0105a803          	lw	a6,16(a1)
   17f9e:	0107171b          	sllw	a4,a4,0x10
   17fa2:	8fd9                	or	a5,a5,a4
   17fa4:	00c51623          	sh	a2,12(a0)
   17fa8:	00d51723          	sh	a3,14(a0)
   17fac:	00651023          	sh	t1,0(a0)
   17fb0:	01151123          	sh	a7,2(a0)
   17fb4:	01052223          	sw	a6,4(a0)
   17fb8:	c51c                	sw	a5,8(a0)
   17fba:	7998                	ld	a4,48(a1)
   17fbc:	65bc                	ld	a5,72(a1)
   17fbe:	61b0                	ld	a2,64(a1)
   17fc0:	5d94                	lw	a3,56(a1)
   17fc2:	e918                	sd	a4,16(a0)
   17fc4:	ed1c                	sd	a5,24(a0)
   17fc6:	6db8                	ld	a4,88(a1)
   17fc8:	75bc                	ld	a5,104(a1)
   17fca:	e930                	sd	a2,80(a0)
   17fcc:	e534                	sd	a3,72(a0)
   17fce:	f518                	sd	a4,40(a0)
   17fd0:	fd1c                	sd	a5,56(a0)
   17fd2:	8082                	ret

0000000000017fd4 <__eqtf2>:
   17fd4:	882a                	mv	a6,a0
   17fd6:	002027f3          	frrm	a5
   17fda:	6521                	lui	a0,0x8
   17fdc:	0305d713          	srl	a4,a1,0x30
   17fe0:	157d                	add	a0,a0,-1 # 7fff <exit-0x80e9>
   17fe2:	5e7d                	li	t3,-1
   17fe4:	010e5893          	srl	a7,t3,0x10
   17fe8:	0306d313          	srl	t1,a3,0x30
   17fec:	8f69                	and	a4,a4,a0
   17fee:	0115f7b3          	and	a5,a1,a7
   17ff2:	00a37333          	and	t1,t1,a0
   17ff6:	0116f8b3          	and	a7,a3,a7
   17ffa:	91fd                	srl	a1,a1,0x3f
   17ffc:	92fd                	srl	a3,a3,0x3f
   17ffe:	00a71863          	bne	a4,a0,1800e <__eqtf2+0x3a>
   18002:	0107e533          	or	a0,a5,a6
   18006:	e905                	bnez	a0,18036 <__eqtf2+0x62>
   18008:	04e31663          	bne	t1,a4,18054 <__eqtf2+0x80>
   1800c:	a019                	j	18012 <__eqtf2+0x3e>
   1800e:	04a31563          	bne	t1,a0,18058 <__eqtf2+0x84>
   18012:	00c8e533          	or	a0,a7,a2
   18016:	c129                	beqz	a0,18058 <__eqtf2+0x84>
   18018:	66a1                	lui	a3,0x8
   1801a:	16fd                	add	a3,a3,-1 # 7fff <exit-0x80e9>
   1801c:	02d71863          	bne	a4,a3,1804c <__eqtf2+0x78>
   18020:	0107e833          	or	a6,a5,a6
   18024:	02080063          	beqz	a6,18044 <__eqtf2+0x70>
   18028:	577d                	li	a4,-1
   1802a:	8345                	srl	a4,a4,0x11
   1802c:	00f76c63          	bltu	a4,a5,18044 <__eqtf2+0x70>
   18030:	00186073          	csrs	fflags,16
   18034:	a005                	j	18054 <__eqtf2+0x80>
   18036:	011e5e13          	srl	t3,t3,0x11
   1803a:	fefe7be3          	bgeu	t3,a5,18030 <__eqtf2+0x5c>
   1803e:	4505                	li	a0,1
   18040:	02e31d63          	bne	t1,a4,1807a <__eqtf2+0xa6>
   18044:	00c8e633          	or	a2,a7,a2
   18048:	4505                	li	a0,1
   1804a:	ca05                	beqz	a2,1807a <__eqtf2+0xa6>
   1804c:	57fd                	li	a5,-1
   1804e:	83c5                	srl	a5,a5,0x11
   18050:	ff17f0e3          	bgeu	a5,a7,18030 <__eqtf2+0x5c>
   18054:	4505                	li	a0,1
   18056:	8082                	ret
   18058:	4505                	li	a0,1
   1805a:	02671063          	bne	a4,t1,1807a <__eqtf2+0xa6>
   1805e:	01179e63          	bne	a5,a7,1807a <__eqtf2+0xa6>
   18062:	00c81c63          	bne	a6,a2,1807a <__eqtf2+0xa6>
   18066:	00d58863          	beq	a1,a3,18076 <__eqtf2+0xa2>
   1806a:	eb01                	bnez	a4,1807a <__eqtf2+0xa6>
   1806c:	0107e7b3          	or	a5,a5,a6
   18070:	00f03533          	snez	a0,a5
   18074:	8082                	ret
   18076:	4501                	li	a0,0
   18078:	8082                	ret
   1807a:	8082                	ret

000000000001807c <__getf2>:
   1807c:	88aa                	mv	a7,a0
   1807e:	002027f3          	frrm	a5
   18082:	6321                	lui	t1,0x8
   18084:	0305d813          	srl	a6,a1,0x30
   18088:	137d                	add	t1,t1,-1 # 7fff <exit-0x80e9>
   1808a:	577d                	li	a4,-1
   1808c:	8341                	srl	a4,a4,0x10
   1808e:	0306d793          	srl	a5,a3,0x30
   18092:	00687833          	and	a6,a6,t1
   18096:	00e5fe33          	and	t3,a1,a4
   1809a:	0067f533          	and	a0,a5,t1
   1809e:	8f75                	and	a4,a4,a3
   180a0:	91fd                	srl	a1,a1,0x3f
   180a2:	92fd                	srl	a3,a3,0x3f
   180a4:	00681563          	bne	a6,t1,180ae <__getf2+0x32>
   180a8:	011e67b3          	or	a5,t3,a7
   180ac:	ebb1                	bnez	a5,18100 <__getf2+0x84>
   180ae:	00651563          	bne	a0,t1,180b8 <__getf2+0x3c>
   180b2:	00c767b3          	or	a5,a4,a2
   180b6:	e7a9                	bnez	a5,18100 <__getf2+0x84>
   180b8:	4781                	li	a5,0
   180ba:	00081663          	bnez	a6,180c6 <__getf2+0x4a>
   180be:	011e67b3          	or	a5,t3,a7
   180c2:	0017b793          	seqz	a5,a5
   180c6:	e129                	bnez	a0,18108 <__getf2+0x8c>
   180c8:	00c76333          	or	t1,a4,a2
   180cc:	c799                	beqz	a5,180da <__getf2+0x5e>
   180ce:	00030a63          	beqz	t1,180e2 <__getf2+0x66>
   180d2:	4505                	li	a0,1
   180d4:	e699                	bnez	a3,180e2 <__getf2+0x66>
   180d6:	557d                	li	a0,-1
   180d8:	8082                	ret
   180da:	02031863          	bnez	t1,1810a <__getf2+0x8e>
   180de:	557d                	li	a0,-1
   180e0:	c99d                	beqz	a1,18116 <__getf2+0x9a>
   180e2:	8082                	ret
   180e4:	fea847e3          	blt	a6,a0,180d2 <__getf2+0x56>
   180e8:	ffc76be3          	bltu	a4,t3,180de <__getf2+0x62>
   180ec:	00ee1763          	bne	t3,a4,180fa <__getf2+0x7e>
   180f0:	ff1667e3          	bltu	a2,a7,180de <__getf2+0x62>
   180f4:	4501                	li	a0,0
   180f6:	fec8f6e3          	bgeu	a7,a2,180e2 <__getf2+0x66>
   180fa:	4505                	li	a0,1
   180fc:	f1fd                	bnez	a1,180e2 <__getf2+0x66>
   180fe:	bfe1                	j	180d6 <__getf2+0x5a>
   18100:	00186073          	csrs	fflags,16
   18104:	5579                	li	a0,-2
   18106:	8082                	ret
   18108:	f7e9                	bnez	a5,180d2 <__getf2+0x56>
   1810a:	fcb69ae3          	bne	a3,a1,180de <__getf2+0x62>
   1810e:	fd055be3          	bge	a0,a6,180e4 <__getf2+0x68>
   18112:	557d                	li	a0,-1
   18114:	f6f9                	bnez	a3,180e2 <__getf2+0x66>
   18116:	4505                	li	a0,1
   18118:	8082                	ret

000000000001811a <__letf2>:
   1811a:	88aa                	mv	a7,a0
   1811c:	002027f3          	frrm	a5
   18120:	6321                	lui	t1,0x8
   18122:	0305d813          	srl	a6,a1,0x30
   18126:	137d                	add	t1,t1,-1 # 7fff <exit-0x80e9>
   18128:	577d                	li	a4,-1
   1812a:	8341                	srl	a4,a4,0x10
   1812c:	0306d793          	srl	a5,a3,0x30
   18130:	00687833          	and	a6,a6,t1
   18134:	00e5fe33          	and	t3,a1,a4
   18138:	0067f533          	and	a0,a5,t1
   1813c:	8f75                	and	a4,a4,a3
   1813e:	91fd                	srl	a1,a1,0x3f
   18140:	92fd                	srl	a3,a3,0x3f
   18142:	00681563          	bne	a6,t1,1814c <__letf2+0x32>
   18146:	011e67b3          	or	a5,t3,a7
   1814a:	ebb1                	bnez	a5,1819e <__letf2+0x84>
   1814c:	00651563          	bne	a0,t1,18156 <__letf2+0x3c>
   18150:	00c767b3          	or	a5,a4,a2
   18154:	e7a9                	bnez	a5,1819e <__letf2+0x84>
   18156:	4781                	li	a5,0
   18158:	00081663          	bnez	a6,18164 <__letf2+0x4a>
   1815c:	011e67b3          	or	a5,t3,a7
   18160:	0017b793          	seqz	a5,a5
   18164:	e129                	bnez	a0,181a6 <__letf2+0x8c>
   18166:	00c76333          	or	t1,a4,a2
   1816a:	c799                	beqz	a5,18178 <__letf2+0x5e>
   1816c:	00030a63          	beqz	t1,18180 <__letf2+0x66>
   18170:	4505                	li	a0,1
   18172:	e699                	bnez	a3,18180 <__letf2+0x66>
   18174:	557d                	li	a0,-1
   18176:	8082                	ret
   18178:	02031863          	bnez	t1,181a8 <__letf2+0x8e>
   1817c:	557d                	li	a0,-1
   1817e:	c99d                	beqz	a1,181b4 <__letf2+0x9a>
   18180:	8082                	ret
   18182:	fea847e3          	blt	a6,a0,18170 <__letf2+0x56>
   18186:	ffc76be3          	bltu	a4,t3,1817c <__letf2+0x62>
   1818a:	00ee1763          	bne	t3,a4,18198 <__letf2+0x7e>
   1818e:	ff1667e3          	bltu	a2,a7,1817c <__letf2+0x62>
   18192:	4501                	li	a0,0
   18194:	fec8f6e3          	bgeu	a7,a2,18180 <__letf2+0x66>
   18198:	4505                	li	a0,1
   1819a:	f1fd                	bnez	a1,18180 <__letf2+0x66>
   1819c:	bfe1                	j	18174 <__letf2+0x5a>
   1819e:	00186073          	csrs	fflags,16
   181a2:	4509                	li	a0,2
   181a4:	8082                	ret
   181a6:	f7e9                	bnez	a5,18170 <__letf2+0x56>
   181a8:	fcb69ae3          	bne	a3,a1,1817c <__letf2+0x62>
   181ac:	fd055be3          	bge	a0,a6,18182 <__letf2+0x68>
   181b0:	557d                	li	a0,-1
   181b2:	f6f9                	bnez	a3,18180 <__letf2+0x66>
   181b4:	4505                	li	a0,1
   181b6:	8082                	ret

00000000000181b8 <__multf3>:
   181b8:	711d                	add	sp,sp,-96
   181ba:	e8a2                	sd	s0,80(sp)
   181bc:	f456                	sd	s5,40(sp)
   181be:	e862                	sd	s8,16(sp)
   181c0:	ec86                	sd	ra,88(sp)
   181c2:	e4a6                	sd	s1,72(sp)
   181c4:	e0ca                	sd	s2,64(sp)
   181c6:	fc4e                	sd	s3,56(sp)
   181c8:	f852                	sd	s4,48(sp)
   181ca:	f05a                	sd	s6,32(sp)
   181cc:	ec5e                	sd	s7,24(sp)
   181ce:	e466                	sd	s9,8(sp)
   181d0:	842a                	mv	s0,a0
   181d2:	8c32                	mv	s8,a2
   181d4:	8ab6                	mv	s5,a3
   181d6:	002029f3          	frrm	s3
   181da:	6721                	lui	a4,0x8
   181dc:	0305d793          	srl	a5,a1,0x30
   181e0:	177d                	add	a4,a4,-1 # 7fff <exit-0x80e9>
   181e2:	01059493          	sll	s1,a1,0x10
   181e6:	8ff9                	and	a5,a5,a4
   181e8:	2981                	sext.w	s3,s3
   181ea:	80c1                	srl	s1,s1,0x10
   181ec:	03f5db13          	srl	s6,a1,0x3f
   181f0:	c785                	beqz	a5,18218 <__multf3+0x60>
   181f2:	00078a1b          	sext.w	s4,a5
   181f6:	06e78f63          	beq	a5,a4,18274 <__multf3+0xbc>
   181fa:	048e                	sll	s1,s1,0x3
   181fc:	03d55713          	srl	a4,a0,0x3d
   18200:	8f45                	or	a4,a4,s1
   18202:	7a71                	lui	s4,0xffffc
   18204:	4485                	li	s1,1
   18206:	14ce                	sll	s1,s1,0x33
   18208:	0a05                	add	s4,s4,1 # ffffffffffffc001 <__BSS_END__+0xfffffffffffe04c1>
   1820a:	8cd9                	or	s1,s1,a4
   1820c:	00351b93          	sll	s7,a0,0x3
   18210:	9a3e                	add	s4,s4,a5
   18212:	4c81                	li	s9,0
   18214:	4901                	li	s2,0
   18216:	a895                	j	1828a <__multf3+0xd2>
   18218:	00956bb3          	or	s7,a0,s1
   1821c:	280b8263          	beqz	s7,184a0 <__multf3+0x2e8>
   18220:	c89d                	beqz	s1,18256 <__multf3+0x9e>
   18222:	8526                	mv	a0,s1
   18224:	77f000ef          	jal	191a2 <__clzdi2>
   18228:	2501                	sext.w	a0,a0
   1822a:	ff150793          	add	a5,a0,-15
   1822e:	03d00713          	li	a4,61
   18232:	0037869b          	addw	a3,a5,3
   18236:	40f707bb          	subw	a5,a4,a5
   1823a:	00d494b3          	sll	s1,s1,a3
   1823e:	00f457b3          	srl	a5,s0,a5
   18242:	8fc5                	or	a5,a5,s1
   18244:	00d414b3          	sll	s1,s0,a3
   18248:	7a71                	lui	s4,0xffffc
   1824a:	0a45                	add	s4,s4,17 # ffffffffffffc011 <__BSS_END__+0xfffffffffffe04d1>
   1824c:	8ba6                	mv	s7,s1
   1824e:	40aa0a33          	sub	s4,s4,a0
   18252:	84be                	mv	s1,a5
   18254:	bf7d                	j	18212 <__multf3+0x5a>
   18256:	74d000ef          	jal	191a2 <__clzdi2>
   1825a:	0405051b          	addw	a0,a0,64
   1825e:	ff150793          	add	a5,a0,-15
   18262:	03c00713          	li	a4,60
   18266:	fcf754e3          	bge	a4,a5,1822e <__multf3+0x76>
   1826a:	fc37879b          	addw	a5,a5,-61
   1826e:	00f417b3          	sll	a5,s0,a5
   18272:	bfd9                	j	18248 <__multf3+0x90>
   18274:	00956bb3          	or	s7,a0,s1
   18278:	220b8863          	beqz	s7,184a8 <__multf3+0x2f0>
   1827c:	4905                	li	s2,1
   1827e:	193e                	sll	s2,s2,0x2f
   18280:	0124b933          	sltu	s2,s1,s2
   18284:	0912                	sll	s2,s2,0x4
   18286:	8baa                	mv	s7,a0
   18288:	4c8d                	li	s9,3
   1828a:	6621                	lui	a2,0x8
   1828c:	030ad713          	srl	a4,s5,0x30
   18290:	56fd                	li	a3,-1
   18292:	167d                	add	a2,a2,-1 # 7fff <exit-0x80e9>
   18294:	0106d413          	srl	s0,a3,0x10
   18298:	8f71                	and	a4,a4,a2
   1829a:	008af433          	and	s0,s5,s0
   1829e:	8562                	mv	a0,s8
   182a0:	03fada93          	srl	s5,s5,0x3f
   182a4:	20070563          	beqz	a4,184ae <__multf3+0x2f6>
   182a8:	0007079b          	sext.w	a5,a4
   182ac:	24c70e63          	beq	a4,a2,18508 <__multf3+0x350>
   182b0:	040e                	sll	s0,s0,0x3
   182b2:	03dc5793          	srl	a5,s8,0x3d
   182b6:	8fc1                	or	a5,a5,s0
   182b8:	4405                	li	s0,1
   182ba:	144e                	sll	s0,s0,0x33
   182bc:	8c5d                	or	s0,s0,a5
   182be:	77f1                	lui	a5,0xffffc
   182c0:	0785                	add	a5,a5,1 # ffffffffffffc001 <__BSS_END__+0xfffffffffffe04c1>
   182c2:	003c1513          	sll	a0,s8,0x3
   182c6:	97ba                	add	a5,a5,a4
   182c8:	4701                	li	a4,0
   182ca:	014786b3          	add	a3,a5,s4
   182ce:	002c9793          	sll	a5,s9,0x2
   182d2:	8fd9                	or	a5,a5,a4
   182d4:	4629                	li	a2,10
   182d6:	00168893          	add	a7,a3,1
   182da:	2af64f63          	blt	a2,a5,18598 <__multf3+0x3e0>
   182de:	4589                	li	a1,2
   182e0:	015b4633          	xor	a2,s6,s5
   182e4:	24f5c463          	blt	a1,a5,1852c <__multf3+0x374>
   182e8:	17fd                	add	a5,a5,-1
   182ea:	4585                	li	a1,1
   182ec:	24f5ff63          	bgeu	a1,a5,1854a <__multf3+0x392>
   182f0:	57fd                	li	a5,-1
   182f2:	9381                	srl	a5,a5,0x20
   182f4:	020bd713          	srl	a4,s7,0x20
   182f8:	02055593          	srl	a1,a0,0x20
   182fc:	01748fb3          	add	t6,s1,s7
   18300:	00850f33          	add	t5,a0,s0
   18304:	00fbfbb3          	and	s7,s7,a5
   18308:	8fe9                	and	a5,a5,a0
   1830a:	00af3eb3          	sltu	t4,t5,a0
   1830e:	03778533          	mul	a0,a5,s7
   18312:	009fbe33          	sltu	t3,t6,s1
   18316:	02f707b3          	mul	a5,a4,a5
   1831a:	02055813          	srl	a6,a0,0x20
   1831e:	02b70733          	mul	a4,a4,a1
   18322:	037585b3          	mul	a1,a1,s7
   18326:	95be                	add	a1,a1,a5
   18328:	982e                	add	a6,a6,a1
   1832a:	00f87563          	bgeu	a6,a5,18334 <__multf3+0x17c>
   1832e:	4785                	li	a5,1
   18330:	1782                	sll	a5,a5,0x20
   18332:	973e                	add	a4,a4,a5
   18334:	57fd                	li	a5,-1
   18336:	9381                	srl	a5,a5,0x20
   18338:	02085313          	srl	t1,a6,0x20
   1833c:	00f87833          	and	a6,a6,a5
   18340:	8d7d                	and	a0,a0,a5
   18342:	1802                	sll	a6,a6,0x20
   18344:	020fd393          	srl	t2,t6,0x20
   18348:	933a                	add	t1,t1,a4
   1834a:	982a                	add	a6,a6,a0
   1834c:	020f5713          	srl	a4,t5,0x20
   18350:	00fff533          	and	a0,t6,a5
   18354:	00ff77b3          	and	a5,t5,a5
   18358:	02a785b3          	mul	a1,a5,a0
   1835c:	02f387b3          	mul	a5,t2,a5
   18360:	0205d293          	srl	t0,a1,0x20
   18364:	02e383b3          	mul	t2,t2,a4
   18368:	02a70733          	mul	a4,a4,a0
   1836c:	973e                	add	a4,a4,a5
   1836e:	92ba                	add	t0,t0,a4
   18370:	00f2f563          	bgeu	t0,a5,1837a <__multf3+0x1c2>
   18374:	4785                	li	a5,1
   18376:	1782                	sll	a5,a5,0x20
   18378:	93be                	add	t2,t2,a5
   1837a:	57fd                	li	a5,-1
   1837c:	9381                	srl	a5,a5,0x20
   1837e:	0202d713          	srl	a4,t0,0x20
   18382:	00f2f2b3          	and	t0,t0,a5
   18386:	8dfd                	and	a1,a1,a5
   18388:	1282                	sll	t0,t0,0x20
   1838a:	02045513          	srl	a0,s0,0x20
   1838e:	92ae                	add	t0,t0,a1
   18390:	0204d593          	srl	a1,s1,0x20
   18394:	8cfd                	and	s1,s1,a5
   18396:	8fe1                	and	a5,a5,s0
   18398:	02f48a33          	mul	s4,s1,a5
   1839c:	02a58433          	mul	s0,a1,a0
   183a0:	02f587b3          	mul	a5,a1,a5
   183a4:	02950533          	mul	a0,a0,s1
   183a8:	00f505b3          	add	a1,a0,a5
   183ac:	020a5513          	srl	a0,s4,0x20
   183b0:	952e                	add	a0,a0,a1
   183b2:	00f57563          	bgeu	a0,a5,183bc <__multf3+0x204>
   183b6:	4785                	li	a5,1
   183b8:	1782                	sll	a5,a5,0x20
   183ba:	943e                	add	s0,s0,a5
   183bc:	02055593          	srl	a1,a0,0x20
   183c0:	95a2                	add	a1,a1,s0
   183c2:	547d                	li	s0,-1
   183c4:	9001                	srl	s0,s0,0x20
   183c6:	008577b3          	and	a5,a0,s0
   183ca:	1782                	sll	a5,a5,0x20
   183cc:	008a7a33          	and	s4,s4,s0
   183d0:	97d2                	add	a5,a5,s4
   183d2:	4501                	li	a0,0
   183d4:	000e8363          	beqz	t4,183da <__multf3+0x222>
   183d8:	857e                	mv	a0,t6
   183da:	4f81                	li	t6,0
   183dc:	000e0363          	beqz	t3,183e2 <__multf3+0x22a>
   183e0:	8ffa                	mv	t6,t5
   183e2:	00628433          	add	s0,t0,t1
   183e6:	00543f33          	sltu	t5,s0,t0
   183ea:	977a                	add	a4,a4,t5
   183ec:	971e                	add	a4,a4,t2
   183ee:	01de7e33          	and	t3,t3,t4
   183f2:	01e73f33          	sltu	t5,a4,t5
   183f6:	953a                	add	a0,a0,a4
   183f8:	9f72                	add	t5,t5,t3
   183fa:	00e53733          	sltu	a4,a0,a4
   183fe:	957e                	add	a0,a0,t6
   18400:	977a                	add	a4,a4,t5
   18402:	01f53fb3          	sltu	t6,a0,t6
   18406:	41040e33          	sub	t3,s0,a6
   1840a:	01c43eb3          	sltu	t4,s0,t3
   1840e:	9fba                	add	t6,t6,a4
   18410:	40650733          	sub	a4,a0,t1
   18414:	00e53f33          	sltu	t5,a0,a4
   18418:	41d70733          	sub	a4,a4,t4
   1841c:	4e81                	li	t4,0
   1841e:	01c47663          	bgeu	s0,t3,1842a <__multf3+0x272>
   18422:	40a30333          	sub	t1,t1,a0
   18426:	00133e93          	seqz	t4,t1
   1842a:	9fae                	add	t6,t6,a1
   1842c:	40fe0333          	sub	t1,t3,a5
   18430:	40b705b3          	sub	a1,a4,a1
   18434:	00b73533          	sltu	a0,a4,a1
   18438:	006e3733          	sltu	a4,t3,t1
   1843c:	01eeef33          	or	t5,t4,t5
   18440:	40e78733          	sub	a4,a5,a4
   18444:	4e81                	li	t4,0
   18446:	006e7463          	bgeu	t3,t1,1844e <__multf3+0x296>
   1844a:	0015be93          	seqz	t4,a1
   1844e:	95ba                	add	a1,a1,a4
   18450:	00f5b733          	sltu	a4,a1,a5
   18454:	977e                	add	a4,a4,t6
   18456:	00aeeeb3          	or	t4,t4,a0
   1845a:	41e70733          	sub	a4,a4,t5
   1845e:	00d31513          	sll	a0,t1,0xd
   18462:	41d70733          	sub	a4,a4,t4
   18466:	01056533          	or	a0,a0,a6
   1846a:	0736                	sll	a4,a4,0xd
   1846c:	00a03533          	snez	a0,a0
   18470:	03335313          	srl	t1,t1,0x33
   18474:	0335d413          	srl	s0,a1,0x33
   18478:	00656533          	or	a0,a0,t1
   1847c:	05b6                	sll	a1,a1,0xd
   1847e:	00b71793          	sll	a5,a4,0xb
   18482:	8c59                	or	s0,s0,a4
   18484:	8d4d                	or	a0,a0,a1
   18486:	0007db63          	bgez	a5,1849c <__multf3+0x2e4>
   1848a:	00155793          	srl	a5,a0,0x1
   1848e:	8905                	and	a0,a0,1
   18490:	8fc9                	or	a5,a5,a0
   18492:	03f41513          	sll	a0,s0,0x3f
   18496:	8d5d                	or	a0,a0,a5
   18498:	8005                	srl	s0,s0,0x1
   1849a:	86c6                	mv	a3,a7
   1849c:	88b6                	mv	a7,a3
   1849e:	a87d                	j	1855c <__multf3+0x3a4>
   184a0:	4481                	li	s1,0
   184a2:	4a01                	li	s4,0
   184a4:	4c85                	li	s9,1
   184a6:	b3bd                	j	18214 <__multf3+0x5c>
   184a8:	4481                	li	s1,0
   184aa:	4c89                	li	s9,2
   184ac:	b3a5                	j	18214 <__multf3+0x5c>
   184ae:	008c67b3          	or	a5,s8,s0
   184b2:	c7a5                	beqz	a5,1851a <__multf3+0x362>
   184b4:	c81d                	beqz	s0,184ea <__multf3+0x332>
   184b6:	8522                	mv	a0,s0
   184b8:	4eb000ef          	jal	191a2 <__clzdi2>
   184bc:	2501                	sext.w	a0,a0
   184be:	ff150793          	add	a5,a0,-15
   184c2:	03d00713          	li	a4,61
   184c6:	0037869b          	addw	a3,a5,3
   184ca:	40f707bb          	subw	a5,a4,a5
   184ce:	00d41433          	sll	s0,s0,a3
   184d2:	00fc57b3          	srl	a5,s8,a5
   184d6:	0087e733          	or	a4,a5,s0
   184da:	00dc1433          	sll	s0,s8,a3
   184de:	77f1                	lui	a5,0xffffc
   184e0:	07c5                	add	a5,a5,17 # ffffffffffffc011 <__BSS_END__+0xfffffffffffe04d1>
   184e2:	8f89                	sub	a5,a5,a0
   184e4:	8522                	mv	a0,s0
   184e6:	843a                	mv	s0,a4
   184e8:	b3c5                	j	182c8 <__multf3+0x110>
   184ea:	4b9000ef          	jal	191a2 <__clzdi2>
   184ee:	0405051b          	addw	a0,a0,64
   184f2:	ff150793          	add	a5,a0,-15
   184f6:	03c00713          	li	a4,60
   184fa:	fcf754e3          	bge	a4,a5,184c2 <__multf3+0x30a>
   184fe:	fc37879b          	addw	a5,a5,-61
   18502:	00fc1733          	sll	a4,s8,a5
   18506:	bfe1                	j	184de <__multf3+0x326>
   18508:	008c6733          	or	a4,s8,s0
   1850c:	cf01                	beqz	a4,18524 <__multf3+0x36c>
   1850e:	82c5                	srl	a3,a3,0x11
   18510:	470d                	li	a4,3
   18512:	da86ece3          	bltu	a3,s0,182ca <__multf3+0x112>
   18516:	4941                	li	s2,16
   18518:	bb4d                	j	182ca <__multf3+0x112>
   1851a:	4401                	li	s0,0
   1851c:	4501                	li	a0,0
   1851e:	4781                	li	a5,0
   18520:	4705                	li	a4,1
   18522:	b365                	j	182ca <__multf3+0x112>
   18524:	4401                	li	s0,0
   18526:	4501                	li	a0,0
   18528:	4709                	li	a4,2
   1852a:	b345                	j	182ca <__multf3+0x112>
   1852c:	4585                	li	a1,1
   1852e:	00f597b3          	sll	a5,a1,a5
   18532:	5307f593          	and	a1,a5,1328
   18536:	e9a5                	bnez	a1,185a6 <__multf3+0x3ee>
   18538:	2407f593          	and	a1,a5,576
   1853c:	24059963          	bnez	a1,1878e <__multf3+0x5d6>
   18540:	0887f793          	and	a5,a5,136
   18544:	da0786e3          	beqz	a5,182f0 <__multf3+0x138>
   18548:	8656                	mv	a2,s5
   1854a:	4789                	li	a5,2
   1854c:	24f70963          	beq	a4,a5,1879e <__multf3+0x5e6>
   18550:	478d                	li	a5,3
   18552:	22f70f63          	beq	a4,a5,18790 <__multf3+0x5d8>
   18556:	4785                	li	a5,1
   18558:	24f70863          	beq	a4,a5,187a8 <__multf3+0x5f0>
   1855c:	6711                	lui	a4,0x4
   1855e:	177d                	add	a4,a4,-1 # 3fff <exit-0xc0e9>
   18560:	9746                	add	a4,a4,a7
   18562:	0ce05f63          	blez	a4,18640 <__multf3+0x488>
   18566:	00757793          	and	a5,a0,7
   1856a:	c7b9                	beqz	a5,185b8 <__multf3+0x400>
   1856c:	4789                	li	a5,2
   1856e:	00196913          	or	s2,s2,1
   18572:	04f98263          	beq	s3,a5,185b6 <__multf3+0x3fe>
   18576:	478d                	li	a5,3
   18578:	02f98b63          	beq	s3,a5,185ae <__multf3+0x3f6>
   1857c:	02099e63          	bnez	s3,185b8 <__multf3+0x400>
   18580:	00f57793          	and	a5,a0,15
   18584:	4691                	li	a3,4
   18586:	02d78963          	beq	a5,a3,185b8 <__multf3+0x400>
   1858a:	00450793          	add	a5,a0,4
   1858e:	00a7b6b3          	sltu	a3,a5,a0
   18592:	9436                	add	s0,s0,a3
   18594:	853e                	mv	a0,a5
   18596:	a00d                	j	185b8 <__multf3+0x400>
   18598:	46bd                	li	a3,15
   1859a:	1ed78b63          	beq	a5,a3,18790 <__multf3+0x5d8>
   1859e:	46ad                	li	a3,11
   185a0:	865a                	mv	a2,s6
   185a2:	fad783e3          	beq	a5,a3,18548 <__multf3+0x390>
   185a6:	8426                	mv	s0,s1
   185a8:	855e                	mv	a0,s7
   185aa:	8766                	mv	a4,s9
   185ac:	bf79                	j	1854a <__multf3+0x392>
   185ae:	e609                	bnez	a2,185b8 <__multf3+0x400>
   185b0:	00850793          	add	a5,a0,8
   185b4:	bfe9                	j	1858e <__multf3+0x3d6>
   185b6:	fe6d                	bnez	a2,185b0 <__multf3+0x3f8>
   185b8:	00b41793          	sll	a5,s0,0xb
   185bc:	0007d863          	bgez	a5,185cc <__multf3+0x414>
   185c0:	57fd                	li	a5,-1
   185c2:	17d2                	sll	a5,a5,0x34
   185c4:	17fd                	add	a5,a5,-1
   185c6:	6711                	lui	a4,0x4
   185c8:	8c7d                	and	s0,s0,a5
   185ca:	9746                	add	a4,a4,a7
   185cc:	67a1                	lui	a5,0x8
   185ce:	17f9                	add	a5,a5,-2 # 7ffe <exit-0x80ea>
   185d0:	66a1                	lui	a3,0x8
   185d2:	04e7c263          	blt	a5,a4,18616 <__multf3+0x45e>
   185d6:	00355793          	srl	a5,a0,0x3
   185da:	03d41513          	sll	a0,s0,0x3d
   185de:	8d5d                	or	a0,a0,a5
   185e0:	00345793          	srl	a5,s0,0x3
   185e4:	00f6161b          	sllw	a2,a2,0xf
   185e8:	01079593          	sll	a1,a5,0x10
   185ec:	8f51                	or	a4,a4,a2
   185ee:	1742                	sll	a4,a4,0x30
   185f0:	81c1                	srl	a1,a1,0x10
   185f2:	8dd9                	or	a1,a1,a4
   185f4:	00090463          	beqz	s2,185fc <__multf3+0x444>
   185f8:	00192073          	csrs	fflags,s2
   185fc:	60e6                	ld	ra,88(sp)
   185fe:	6446                	ld	s0,80(sp)
   18600:	64a6                	ld	s1,72(sp)
   18602:	6906                	ld	s2,64(sp)
   18604:	79e2                	ld	s3,56(sp)
   18606:	7a42                	ld	s4,48(sp)
   18608:	7aa2                	ld	s5,40(sp)
   1860a:	7b02                	ld	s6,32(sp)
   1860c:	6be2                	ld	s7,24(sp)
   1860e:	6c42                	ld	s8,16(sp)
   18610:	6ca2                	ld	s9,8(sp)
   18612:	6125                	add	sp,sp,96
   18614:	8082                	ret
   18616:	4709                	li	a4,2
   18618:	02e98263          	beq	s3,a4,1863c <__multf3+0x484>
   1861c:	470d                	li	a4,3
   1861e:	00e98863          	beq	s3,a4,1862e <__multf3+0x476>
   18622:	00099763          	bnez	s3,18630 <__multf3+0x478>
   18626:	4501                	li	a0,0
   18628:	fff68713          	add	a4,a3,-1 # 7fff <exit-0x80e9>
   1862c:	a021                	j	18634 <__multf3+0x47c>
   1862e:	de65                	beqz	a2,18626 <__multf3+0x46e>
   18630:	557d                	li	a0,-1
   18632:	873e                	mv	a4,a5
   18634:	00596913          	or	s2,s2,5
   18638:	87aa                	mv	a5,a0
   1863a:	b76d                	j	185e4 <__multf3+0x42c>
   1863c:	f66d                	bnez	a2,18626 <__multf3+0x46e>
   1863e:	bfcd                	j	18630 <__multf3+0x478>
   18640:	4685                	li	a3,1
   18642:	e721                	bnez	a4,1868a <__multf3+0x4d2>
   18644:	00757693          	and	a3,a0,7
   18648:	87a2                	mv	a5,s0
   1864a:	ca9d                	beqz	a3,18680 <__multf3+0x4c8>
   1864c:	4689                	li	a3,2
   1864e:	00196913          	or	s2,s2,1
   18652:	02d98663          	beq	s3,a3,1867e <__multf3+0x4c6>
   18656:	468d                	li	a3,3
   18658:	00d98f63          	beq	s3,a3,18676 <__multf3+0x4be>
   1865c:	02099263          	bnez	s3,18680 <__multf3+0x4c8>
   18660:	00f57693          	and	a3,a0,15
   18664:	4591                	li	a1,4
   18666:	00b68d63          	beq	a3,a1,18680 <__multf3+0x4c8>
   1866a:	ffc53793          	sltiu	a5,a0,-4
   1866e:	0017c793          	xor	a5,a5,1
   18672:	97a2                	add	a5,a5,s0
   18674:	a031                	j	18680 <__multf3+0x4c8>
   18676:	e609                	bnez	a2,18680 <__multf3+0x4c8>
   18678:	ff853793          	sltiu	a5,a0,-8
   1867c:	bfcd                	j	1866e <__multf3+0x4b6>
   1867e:	fe6d                	bnez	a2,18678 <__multf3+0x4c0>
   18680:	0347d693          	srl	a3,a5,0x34
   18684:	0016c693          	xor	a3,a3,1
   18688:	8a85                	and	a3,a3,1
   1868a:	4805                	li	a6,1
   1868c:	40e80833          	sub	a6,a6,a4
   18690:	07400793          	li	a5,116
   18694:	0d07c263          	blt	a5,a6,18758 <__multf3+0x5a0>
   18698:	03f00713          	li	a4,63
   1869c:	0008079b          	sext.w	a5,a6
   186a0:	05074b63          	blt	a4,a6,186f6 <__multf3+0x53e>
   186a4:	04000593          	li	a1,64
   186a8:	9d9d                	subw	a1,a1,a5
   186aa:	00b41733          	sll	a4,s0,a1
   186ae:	00f55833          	srl	a6,a0,a5
   186b2:	00b515b3          	sll	a1,a0,a1
   186b6:	01076733          	or	a4,a4,a6
   186ba:	00b035b3          	snez	a1,a1
   186be:	8f4d                	or	a4,a4,a1
   186c0:	00f457b3          	srl	a5,s0,a5
   186c4:	00777593          	and	a1,a4,7
   186c8:	c1a5                	beqz	a1,18728 <__multf3+0x570>
   186ca:	4589                	li	a1,2
   186cc:	00196913          	or	s2,s2,1
   186d0:	04b98b63          	beq	s3,a1,18726 <__multf3+0x56e>
   186d4:	458d                	li	a1,3
   186d6:	04b98463          	beq	s3,a1,1871e <__multf3+0x566>
   186da:	04099763          	bnez	s3,18728 <__multf3+0x570>
   186de:	00f77593          	and	a1,a4,15
   186e2:	4511                	li	a0,4
   186e4:	04a58263          	beq	a1,a0,18728 <__multf3+0x570>
   186e8:	00470593          	add	a1,a4,4 # 4004 <exit-0xc0e4>
   186ec:	00e5b533          	sltu	a0,a1,a4
   186f0:	97aa                	add	a5,a5,a0
   186f2:	872e                	mv	a4,a1
   186f4:	a815                	j	18728 <__multf3+0x570>
   186f6:	fc07871b          	addw	a4,a5,-64
   186fa:	04000893          	li	a7,64
   186fe:	00e45733          	srl	a4,s0,a4
   18702:	4581                	li	a1,0
   18704:	01180763          	beq	a6,a7,18712 <__multf3+0x55a>
   18708:	08000593          	li	a1,128
   1870c:	9d9d                	subw	a1,a1,a5
   1870e:	00b415b3          	sll	a1,s0,a1
   18712:	8dc9                	or	a1,a1,a0
   18714:	00b035b3          	snez	a1,a1
   18718:	8f4d                	or	a4,a4,a1
   1871a:	4781                	li	a5,0
   1871c:	b765                	j	186c4 <__multf3+0x50c>
   1871e:	e609                	bnez	a2,18728 <__multf3+0x570>
   18720:	00870593          	add	a1,a4,8
   18724:	b7e1                	j	186ec <__multf3+0x534>
   18726:	fe6d                	bnez	a2,18720 <__multf3+0x568>
   18728:	00c79593          	sll	a1,a5,0xc
   1872c:	0005df63          	bgez	a1,1874a <__multf3+0x592>
   18730:	00196913          	or	s2,s2,1
   18734:	4781                	li	a5,0
   18736:	4501                	li	a0,0
   18738:	4705                	li	a4,1
   1873a:	ea0685e3          	beqz	a3,185e4 <__multf3+0x42c>
   1873e:	00197693          	and	a3,s2,1
   18742:	0686                	sll	a3,a3,0x1
   18744:	0126e933          	or	s2,a3,s2
   18748:	bd71                	j	185e4 <__multf3+0x42c>
   1874a:	830d                	srl	a4,a4,0x3
   1874c:	03d79513          	sll	a0,a5,0x3d
   18750:	8d59                	or	a0,a0,a4
   18752:	838d                	srl	a5,a5,0x3
   18754:	4701                	li	a4,0
   18756:	b7d5                	j	1873a <__multf3+0x582>
   18758:	8d41                	or	a0,a0,s0
   1875a:	cd11                	beqz	a0,18776 <__multf3+0x5be>
   1875c:	4789                	li	a5,2
   1875e:	00196913          	or	s2,s2,1
   18762:	02f98363          	beq	s3,a5,18788 <__multf3+0x5d0>
   18766:	478d                	li	a5,3
   18768:	00f98c63          	beq	s3,a5,18780 <__multf3+0x5c8>
   1876c:	4505                	li	a0,1
   1876e:	00099363          	bnez	s3,18774 <__multf3+0x5bc>
   18772:	4515                	li	a0,5
   18774:	810d                	srl	a0,a0,0x3
   18776:	00296913          	or	s2,s2,2
   1877a:	4781                	li	a5,0
   1877c:	4701                	li	a4,0
   1877e:	b59d                	j	185e4 <__multf3+0x42c>
   18780:	4525                	li	a0,9
   18782:	da6d                	beqz	a2,18774 <__multf3+0x5bc>
   18784:	4505                	li	a0,1
   18786:	b7fd                	j	18774 <__multf3+0x5bc>
   18788:	4525                	li	a0,9
   1878a:	f66d                	bnez	a2,18774 <__multf3+0x5bc>
   1878c:	bfe5                	j	18784 <__multf3+0x5cc>
   1878e:	4941                	li	s2,16
   18790:	4785                	li	a5,1
   18792:	6721                	lui	a4,0x8
   18794:	17be                	sll	a5,a5,0x2f
   18796:	4501                	li	a0,0
   18798:	177d                	add	a4,a4,-1 # 7fff <exit-0x80e9>
   1879a:	4601                	li	a2,0
   1879c:	b5a1                	j	185e4 <__multf3+0x42c>
   1879e:	6721                	lui	a4,0x8
   187a0:	4781                	li	a5,0
   187a2:	4501                	li	a0,0
   187a4:	177d                	add	a4,a4,-1 # 7fff <exit-0x80e9>
   187a6:	bd3d                	j	185e4 <__multf3+0x42c>
   187a8:	4781                	li	a5,0
   187aa:	4501                	li	a0,0
   187ac:	bfc1                	j	1877c <__multf3+0x5c4>

00000000000187ae <__subtf3>:
   187ae:	7179                	add	sp,sp,-48
   187b0:	f406                	sd	ra,40(sp)
   187b2:	f022                	sd	s0,32(sp)
   187b4:	ec26                	sd	s1,24(sp)
   187b6:	e84a                	sd	s2,16(sp)
   187b8:	e44e                	sd	s3,8(sp)
   187ba:	e052                	sd	s4,0(sp)
   187bc:	002024f3          	frrm	s1
   187c0:	577d                	li	a4,-1
   187c2:	8341                	srl	a4,a4,0x10
   187c4:	0305d813          	srl	a6,a1,0x30
   187c8:	03f5d913          	srl	s2,a1,0x3f
   187cc:	8df9                	and	a1,a1,a4
   187ce:	058e                	sll	a1,a1,0x3
   187d0:	03d55893          	srl	a7,a0,0x3d
   187d4:	67a1                	lui	a5,0x8
   187d6:	17fd                	add	a5,a5,-1 # 7fff <exit-0x80e9>
   187d8:	0306d313          	srl	t1,a3,0x30
   187dc:	00b8e8b3          	or	a7,a7,a1
   187e0:	03f6d593          	srl	a1,a3,0x3f
   187e4:	8ef9                	and	a3,a3,a4
   187e6:	00f87833          	and	a6,a6,a5
   187ea:	03d65713          	srl	a4,a2,0x3d
   187ee:	068e                	sll	a3,a3,0x3
   187f0:	00f37333          	and	t1,t1,a5
   187f4:	2481                	sext.w	s1,s1
   187f6:	89c2                	mv	s3,a6
   187f8:	050e                	sll	a0,a0,0x3
   187fa:	8f55                	or	a4,a4,a3
   187fc:	060e                	sll	a2,a2,0x3
   187fe:	00f31563          	bne	t1,a5,18808 <__subtf3+0x5a>
   18802:	00c767b3          	or	a5,a4,a2
   18806:	e399                	bnez	a5,1880c <__subtf3+0x5e>
   18808:	0015c593          	xor	a1,a1,1
   1880c:	406806bb          	subw	a3,a6,t1
   18810:	6e21                	lui	t3,0x8
   18812:	0006879b          	sext.w	a5,a3
   18816:	1e7d                	add	t3,t3,-1 # 7fff <exit-0x80e9>
   18818:	2b259763          	bne	a1,s2,18ac6 <__subtf3+0x318>
   1881c:	0ef05863          	blez	a5,1890c <__subtf3+0x15e>
   18820:	06031963          	bnez	t1,18892 <__subtf3+0xe4>
   18824:	00c767b3          	or	a5,a4,a2
   18828:	e791                	bnez	a5,18834 <__subtf3+0x86>
   1882a:	05c80763          	beq	a6,t3,18878 <__subtf3+0xca>
   1882e:	8746                	mv	a4,a7
   18830:	862a                	mv	a2,a0
   18832:	abf9                	j	18e10 <__subtf3+0x662>
   18834:	fff6879b          	addw	a5,a3,-1
   18838:	ef95                	bnez	a5,18874 <__subtf3+0xc6>
   1883a:	962a                	add	a2,a2,a0
   1883c:	9746                	add	a4,a4,a7
   1883e:	00a63533          	sltu	a0,a2,a0
   18842:	972a                	add	a4,a4,a0
   18844:	00c71693          	sll	a3,a4,0xc
   18848:	4781                	li	a5,0
   1884a:	0e06d463          	bgez	a3,18932 <__subtf3+0x184>
   1884e:	66a1                	lui	a3,0x8
   18850:	0985                	add	s3,s3,1
   18852:	16fd                	add	a3,a3,-1 # 7fff <exit-0x80e9>
   18854:	24d98563          	beq	s3,a3,18a9e <__subtf3+0x2f0>
   18858:	56fd                	li	a3,-1
   1885a:	16ce                	sll	a3,a3,0x33
   1885c:	16fd                	add	a3,a3,-1
   1885e:	8ef9                	and	a3,a3,a4
   18860:	00165713          	srl	a4,a2,0x1
   18864:	8a05                	and	a2,a2,1
   18866:	8f51                	or	a4,a4,a2
   18868:	03f69613          	sll	a2,a3,0x3f
   1886c:	8e59                	or	a2,a2,a4
   1886e:	0016d713          	srl	a4,a3,0x1
   18872:	a0c1                	j	18932 <__subtf3+0x184>
   18874:	03c81463          	bne	a6,t3,1889c <__subtf3+0xee>
   18878:	00a8e633          	or	a2,a7,a0
   1887c:	6c060c63          	beqz	a2,18f54 <__subtf3+0x7a6>
   18880:	0328d793          	srl	a5,a7,0x32
   18884:	0017c793          	xor	a5,a5,1
   18888:	8b85                	and	a5,a5,1
   1888a:	0792                	sll	a5,a5,0x4
   1888c:	8746                	mv	a4,a7
   1888e:	862a                	mv	a2,a0
   18890:	a04d                	j	18932 <__subtf3+0x184>
   18892:	ffc803e3          	beq	a6,t3,18878 <__subtf3+0xca>
   18896:	4685                	li	a3,1
   18898:	16ce                	sll	a3,a3,0x33
   1889a:	8f55                	or	a4,a4,a3
   1889c:	07400693          	li	a3,116
   188a0:	06f6c163          	blt	a3,a5,18902 <__subtf3+0x154>
   188a4:	03f00693          	li	a3,63
   188a8:	02f6c963          	blt	a3,a5,188da <__subtf3+0x12c>
   188ac:	04000593          	li	a1,64
   188b0:	9d9d                	subw	a1,a1,a5
   188b2:	00b716b3          	sll	a3,a4,a1
   188b6:	00f65833          	srl	a6,a2,a5
   188ba:	00b615b3          	sll	a1,a2,a1
   188be:	0106e6b3          	or	a3,a3,a6
   188c2:	00b035b3          	snez	a1,a1
   188c6:	8ecd                	or	a3,a3,a1
   188c8:	00f75733          	srl	a4,a4,a5
   188cc:	9536                	add	a0,a0,a3
   188ce:	9746                	add	a4,a4,a7
   188d0:	00d536b3          	sltu	a3,a0,a3
   188d4:	862a                	mv	a2,a0
   188d6:	9736                	add	a4,a4,a3
   188d8:	b7b5                	j	18844 <__subtf3+0x96>
   188da:	fc07869b          	addw	a3,a5,-64
   188de:	04000813          	li	a6,64
   188e2:	00d756b3          	srl	a3,a4,a3
   188e6:	4581                	li	a1,0
   188e8:	01078763          	beq	a5,a6,188f6 <__subtf3+0x148>
   188ec:	08000593          	li	a1,128
   188f0:	9d9d                	subw	a1,a1,a5
   188f2:	00b715b3          	sll	a1,a4,a1
   188f6:	8dd1                	or	a1,a1,a2
   188f8:	00b035b3          	snez	a1,a1
   188fc:	8ecd                	or	a3,a3,a1
   188fe:	4701                	li	a4,0
   18900:	b7f1                	j	188cc <__subtf3+0x11e>
   18902:	00c766b3          	or	a3,a4,a2
   18906:	00d036b3          	snez	a3,a3
   1890a:	bfd5                	j	188fe <__subtf3+0x150>
   1890c:	c7e9                	beqz	a5,189d6 <__subtf3+0x228>
   1890e:	08081263          	bnez	a6,18992 <__subtf3+0x1e4>
   18912:	00a8e7b3          	or	a5,a7,a0
   18916:	e395                	bnez	a5,1893a <__subtf3+0x18c>
   18918:	63c31c63          	bne	t1,t3,18f50 <__subtf3+0x7a2>
   1891c:	00c767b3          	or	a5,a4,a2
   18920:	62078663          	beqz	a5,18f4c <__subtf3+0x79e>
   18924:	03275793          	srl	a5,a4,0x32
   18928:	0017c793          	xor	a5,a5,1
   1892c:	8b85                	and	a5,a5,1
   1892e:	0792                	sll	a5,a5,0x4
   18930:	899a                	mv	s3,t1
   18932:	88ba                	mv	a7,a4
   18934:	8532                	mv	a0,a2
   18936:	4701                	li	a4,0
   18938:	ab31                	j	18e54 <__subtf3+0x6a6>
   1893a:	fff6c793          	not	a5,a3
   1893e:	2781                	sext.w	a5,a5
   18940:	eb81                	bnez	a5,18950 <__subtf3+0x1a2>
   18942:	962a                	add	a2,a2,a0
   18944:	9746                	add	a4,a4,a7
   18946:	00a63533          	sltu	a0,a2,a0
   1894a:	972a                	add	a4,a4,a0
   1894c:	899a                	mv	s3,t1
   1894e:	bddd                	j	18844 <__subtf3+0x96>
   18950:	fdc306e3          	beq	t1,t3,1891c <__subtf3+0x16e>
   18954:	07400693          	li	a3,116
   18958:	06f6ca63          	blt	a3,a5,189cc <__subtf3+0x21e>
   1895c:	03f00693          	li	a3,63
   18960:	04f6c263          	blt	a3,a5,189a4 <__subtf3+0x1f6>
   18964:	04000593          	li	a1,64
   18968:	9d9d                	subw	a1,a1,a5
   1896a:	00b896b3          	sll	a3,a7,a1
   1896e:	00f55833          	srl	a6,a0,a5
   18972:	00b515b3          	sll	a1,a0,a1
   18976:	0106e6b3          	or	a3,a3,a6
   1897a:	00b035b3          	snez	a1,a1
   1897e:	8ecd                	or	a3,a3,a1
   18980:	00f8d7b3          	srl	a5,a7,a5
   18984:	9636                	add	a2,a2,a3
   18986:	97ba                	add	a5,a5,a4
   18988:	00d636b3          	sltu	a3,a2,a3
   1898c:	00d78733          	add	a4,a5,a3
   18990:	bf75                	j	1894c <__subtf3+0x19e>
   18992:	f9c305e3          	beq	t1,t3,1891c <__subtf3+0x16e>
   18996:	40d007bb          	negw	a5,a3
   1899a:	4685                	li	a3,1
   1899c:	16ce                	sll	a3,a3,0x33
   1899e:	00d8e8b3          	or	a7,a7,a3
   189a2:	bf4d                	j	18954 <__subtf3+0x1a6>
   189a4:	fc07869b          	addw	a3,a5,-64
   189a8:	04000813          	li	a6,64
   189ac:	00d8d6b3          	srl	a3,a7,a3
   189b0:	4581                	li	a1,0
   189b2:	01078763          	beq	a5,a6,189c0 <__subtf3+0x212>
   189b6:	08000593          	li	a1,128
   189ba:	9d9d                	subw	a1,a1,a5
   189bc:	00b895b3          	sll	a1,a7,a1
   189c0:	8dc9                	or	a1,a1,a0
   189c2:	00b035b3          	snez	a1,a1
   189c6:	8ecd                	or	a3,a3,a1
   189c8:	4781                	li	a5,0
   189ca:	bf6d                	j	18984 <__subtf3+0x1d6>
   189cc:	00a8e6b3          	or	a3,a7,a0
   189d0:	00d036b3          	snez	a3,a3
   189d4:	bfd5                	j	189c8 <__subtf3+0x21a>
   189d6:	00180693          	add	a3,a6,1
   189da:	03169e93          	sll	t4,a3,0x31
   189de:	65a1                	lui	a1,0x8
   189e0:	032ede93          	srl	t4,t4,0x32
   189e4:	15f9                	add	a1,a1,-2 # 7ffe <exit-0x80ea>
   189e6:	060e9d63          	bnez	t4,18a60 <__subtf3+0x2b2>
   189ea:	00a8e6b3          	or	a3,a7,a0
   189ee:	02081963          	bnez	a6,18a20 <__subtf3+0x272>
   189f2:	56068863          	beqz	a3,18f62 <__subtf3+0x7b4>
   189f6:	00c766b3          	or	a3,a4,a2
   189fa:	56068863          	beqz	a3,18f6a <__subtf3+0x7bc>
   189fe:	962a                	add	a2,a2,a0
   18a00:	9746                	add	a4,a4,a7
   18a02:	00a63533          	sltu	a0,a2,a0
   18a06:	00a708b3          	add	a7,a4,a0
   18a0a:	00c89713          	sll	a4,a7,0xc
   18a0e:	26075b63          	bgez	a4,18c84 <__subtf3+0x4d6>
   18a12:	577d                	li	a4,-1
   18a14:	174e                	sll	a4,a4,0x33
   18a16:	177d                	add	a4,a4,-1
   18a18:	00e8f733          	and	a4,a7,a4
   18a1c:	4985                	li	s3,1
   18a1e:	bf11                	j	18932 <__subtf3+0x184>
   18a20:	03c81563          	bne	a6,t3,18a4a <__subtf3+0x29c>
   18a24:	54068b63          	beqz	a3,18f7a <__subtf3+0x7cc>
   18a28:	0328d793          	srl	a5,a7,0x32
   18a2c:	0017c793          	xor	a5,a5,1
   18a30:	8b85                	and	a5,a5,1
   18a32:	0792                	sll	a5,a5,0x4
   18a34:	01031e63          	bne	t1,a6,18a50 <__subtf3+0x2a2>
   18a38:	00c765b3          	or	a1,a4,a2
   18a3c:	c989                	beqz	a1,18a4e <__subtf3+0x2a0>
   18a3e:	00d71593          	sll	a1,a4,0xd
   18a42:	0005c663          	bltz	a1,18a4e <__subtf3+0x2a0>
   18a46:	47c1                	li	a5,16
   18a48:	a019                	j	18a4e <__subtf3+0x2a0>
   18a4a:	ffc307e3          	beq	t1,t3,18a38 <__subtf3+0x28a>
   18a4e:	c691                	beqz	a3,18a5a <__subtf3+0x2ac>
   18a50:	8f51                	or	a4,a4,a2
   18a52:	2c071e63          	bnez	a4,18d2e <__subtf3+0x580>
   18a56:	8746                	mv	a4,a7
   18a58:	862a                	mv	a2,a0
   18a5a:	69a1                	lui	s3,0x8
   18a5c:	19fd                	add	s3,s3,-1 # 7fff <exit-0x80e9>
   18a5e:	bdd1                	j	18932 <__subtf3+0x184>
   18a60:	01c68e63          	beq	a3,t3,18a7c <__subtf3+0x2ce>
   18a64:	962a                	add	a2,a2,a0
   18a66:	00a63533          	sltu	a0,a2,a0
   18a6a:	9746                	add	a4,a4,a7
   18a6c:	972a                	add	a4,a4,a0
   18a6e:	03f71593          	sll	a1,a4,0x3f
   18a72:	8205                	srl	a2,a2,0x1
   18a74:	8e4d                	or	a2,a2,a1
   18a76:	8305                	srl	a4,a4,0x1
   18a78:	89b6                	mv	s3,a3
   18a7a:	bd65                	j	18932 <__subtf3+0x184>
   18a7c:	cc99                	beqz	s1,18a9a <__subtf3+0x2ec>
   18a7e:	478d                	li	a5,3
   18a80:	00f49863          	bne	s1,a5,18a90 <__subtf3+0x2e2>
   18a84:	00090b63          	beqz	s2,18a9a <__subtf3+0x2ec>
   18a88:	577d                	li	a4,-1
   18a8a:	567d                	li	a2,-1
   18a8c:	89ae                	mv	s3,a1
   18a8e:	a815                	j	18ac2 <__subtf3+0x314>
   18a90:	4789                	li	a5,2
   18a92:	fef49be3          	bne	s1,a5,18a88 <__subtf3+0x2da>
   18a96:	fe0909e3          	beqz	s2,18a88 <__subtf3+0x2da>
   18a9a:	89b6                	mv	s3,a3
   18a9c:	a00d                	j	18abe <__subtf3+0x310>
   18a9e:	c085                	beqz	s1,18abe <__subtf3+0x310>
   18aa0:	478d                	li	a5,3
   18aa2:	00f49963          	bne	s1,a5,18ab4 <__subtf3+0x306>
   18aa6:	00090c63          	beqz	s2,18abe <__subtf3+0x310>
   18aaa:	69a1                	lui	s3,0x8
   18aac:	577d                	li	a4,-1
   18aae:	567d                	li	a2,-1
   18ab0:	19f9                	add	s3,s3,-2 # 7ffe <exit-0x80ea>
   18ab2:	a801                	j	18ac2 <__subtf3+0x314>
   18ab4:	4789                	li	a5,2
   18ab6:	fef49ae3          	bne	s1,a5,18aaa <__subtf3+0x2fc>
   18aba:	fe0908e3          	beqz	s2,18aaa <__subtf3+0x2fc>
   18abe:	4701                	li	a4,0
   18ac0:	4601                	li	a2,0
   18ac2:	4795                	li	a5,5
   18ac4:	b5bd                	j	18932 <__subtf3+0x184>
   18ac6:	0af05863          	blez	a5,18b76 <__subtf3+0x3c8>
   18aca:	06031763          	bnez	t1,18b38 <__subtf3+0x38a>
   18ace:	00c767b3          	or	a5,a4,a2
   18ad2:	d4078ce3          	beqz	a5,1882a <__subtf3+0x7c>
   18ad6:	fff6879b          	addw	a5,a3,-1
   18ada:	e38d                	bnez	a5,18afc <__subtf3+0x34e>
   18adc:	40c50633          	sub	a2,a0,a2
   18ae0:	40e88733          	sub	a4,a7,a4
   18ae4:	00c53533          	sltu	a0,a0,a2
   18ae8:	8f09                	sub	a4,a4,a0
   18aea:	00c71793          	sll	a5,a4,0xc
   18aee:	3207d163          	bgez	a5,18e10 <__subtf3+0x662>
   18af2:	00d71413          	sll	s0,a4,0xd
   18af6:	8035                	srl	s0,s0,0xd
   18af8:	8a32                	mv	s4,a2
   18afa:	a49d                	j	18d60 <__subtf3+0x5b2>
   18afc:	d7c80ee3          	beq	a6,t3,18878 <__subtf3+0xca>
   18b00:	07400693          	li	a3,116
   18b04:	06f6c463          	blt	a3,a5,18b6c <__subtf3+0x3be>
   18b08:	03f00693          	li	a3,63
   18b0c:	02f6cc63          	blt	a3,a5,18b44 <__subtf3+0x396>
   18b10:	04000593          	li	a1,64
   18b14:	9d9d                	subw	a1,a1,a5
   18b16:	00b716b3          	sll	a3,a4,a1
   18b1a:	00f65833          	srl	a6,a2,a5
   18b1e:	00b615b3          	sll	a1,a2,a1
   18b22:	0106e6b3          	or	a3,a3,a6
   18b26:	00b035b3          	snez	a1,a1
   18b2a:	8ecd                	or	a3,a3,a1
   18b2c:	00f75733          	srl	a4,a4,a5
   18b30:	40d506b3          	sub	a3,a0,a3
   18b34:	8636                	mv	a2,a3
   18b36:	b76d                	j	18ae0 <__subtf3+0x332>
   18b38:	d5c800e3          	beq	a6,t3,18878 <__subtf3+0xca>
   18b3c:	4685                	li	a3,1
   18b3e:	16ce                	sll	a3,a3,0x33
   18b40:	8f55                	or	a4,a4,a3
   18b42:	bf7d                	j	18b00 <__subtf3+0x352>
   18b44:	fc07869b          	addw	a3,a5,-64
   18b48:	04000813          	li	a6,64
   18b4c:	00d756b3          	srl	a3,a4,a3
   18b50:	4581                	li	a1,0
   18b52:	01078763          	beq	a5,a6,18b60 <__subtf3+0x3b2>
   18b56:	08000593          	li	a1,128
   18b5a:	9d9d                	subw	a1,a1,a5
   18b5c:	00b715b3          	sll	a1,a4,a1
   18b60:	8dd1                	or	a1,a1,a2
   18b62:	00b035b3          	snez	a1,a1
   18b66:	8ecd                	or	a3,a3,a1
   18b68:	4701                	li	a4,0
   18b6a:	b7d9                	j	18b30 <__subtf3+0x382>
   18b6c:	00c766b3          	or	a3,a4,a2
   18b70:	00d036b3          	snez	a3,a3
   18b74:	bfd5                	j	18b68 <__subtf3+0x3ba>
   18b76:	cff9                	beqz	a5,18c54 <__subtf3+0x4a6>
   18b78:	08081963          	bnez	a6,18c0a <__subtf3+0x45c>
   18b7c:	00a8e7b3          	or	a5,a7,a0
   18b80:	e385                	bnez	a5,18ba0 <__subtf3+0x3f2>
   18b82:	3dc31d63          	bne	t1,t3,18f5c <__subtf3+0x7ae>
   18b86:	00c767b3          	or	a5,a4,a2
   18b8a:	3c078763          	beqz	a5,18f58 <__subtf3+0x7aa>
   18b8e:	03275793          	srl	a5,a4,0x32
   18b92:	0017c793          	xor	a5,a5,1
   18b96:	8b85                	and	a5,a5,1
   18b98:	0792                	sll	a5,a5,0x4
   18b9a:	899a                	mv	s3,t1
   18b9c:	892e                	mv	s2,a1
   18b9e:	bb51                	j	18932 <__subtf3+0x184>
   18ba0:	fff6c793          	not	a5,a3
   18ba4:	2781                	sext.w	a5,a5
   18ba6:	ef81                	bnez	a5,18bbe <__subtf3+0x410>
   18ba8:	40a60533          	sub	a0,a2,a0
   18bac:	00a637b3          	sltu	a5,a2,a0
   18bb0:	41170733          	sub	a4,a4,a7
   18bb4:	862a                	mv	a2,a0
   18bb6:	8f1d                	sub	a4,a4,a5
   18bb8:	899a                	mv	s3,t1
   18bba:	892e                	mv	s2,a1
   18bbc:	b73d                	j	18aea <__subtf3+0x33c>
   18bbe:	fdc304e3          	beq	t1,t3,18b86 <__subtf3+0x3d8>
   18bc2:	07400693          	li	a3,116
   18bc6:	08f6c263          	blt	a3,a5,18c4a <__subtf3+0x49c>
   18bca:	03f00693          	li	a3,63
   18bce:	04f6c763          	blt	a3,a5,18c1c <__subtf3+0x46e>
   18bd2:	04000813          	li	a6,64
   18bd6:	40f8083b          	subw	a6,a6,a5
   18bda:	010896b3          	sll	a3,a7,a6
   18bde:	00f55e33          	srl	t3,a0,a5
   18be2:	01051833          	sll	a6,a0,a6
   18be6:	01c6e6b3          	or	a3,a3,t3
   18bea:	01003833          	snez	a6,a6
   18bee:	0106e6b3          	or	a3,a3,a6
   18bf2:	00f8d7b3          	srl	a5,a7,a5
   18bf6:	40d606b3          	sub	a3,a2,a3
   18bfa:	00d63533          	sltu	a0,a2,a3
   18bfe:	40f707b3          	sub	a5,a4,a5
   18c02:	8636                	mv	a2,a3
   18c04:	40a78733          	sub	a4,a5,a0
   18c08:	bf45                	j	18bb8 <__subtf3+0x40a>
   18c0a:	f7c30ee3          	beq	t1,t3,18b86 <__subtf3+0x3d8>
   18c0e:	40d007bb          	negw	a5,a3
   18c12:	4685                	li	a3,1
   18c14:	16ce                	sll	a3,a3,0x33
   18c16:	00d8e8b3          	or	a7,a7,a3
   18c1a:	b765                	j	18bc2 <__subtf3+0x414>
   18c1c:	fc07869b          	addw	a3,a5,-64
   18c20:	04000e13          	li	t3,64
   18c24:	00d8d6b3          	srl	a3,a7,a3
   18c28:	4801                	li	a6,0
   18c2a:	01c78863          	beq	a5,t3,18c3a <__subtf3+0x48c>
   18c2e:	08000813          	li	a6,128
   18c32:	40f8083b          	subw	a6,a6,a5
   18c36:	01089833          	sll	a6,a7,a6
   18c3a:	00a86833          	or	a6,a6,a0
   18c3e:	01003833          	snez	a6,a6
   18c42:	0106e6b3          	or	a3,a3,a6
   18c46:	4781                	li	a5,0
   18c48:	b77d                	j	18bf6 <__subtf3+0x448>
   18c4a:	00a8e6b3          	or	a3,a7,a0
   18c4e:	00d036b3          	snez	a3,a3
   18c52:	bfd5                	j	18c46 <__subtf3+0x498>
   18c54:	00180693          	add	a3,a6,1
   18c58:	03169e93          	sll	t4,a3,0x31
   18c5c:	032ede93          	srl	t4,t4,0x32
   18c60:	0c0e9c63          	bnez	t4,18d38 <__subtf3+0x58a>
   18c64:	00c766b3          	or	a3,a4,a2
   18c68:	00a8eeb3          	or	t4,a7,a0
   18c6c:	06081763          	bnez	a6,18cda <__subtf3+0x52c>
   18c70:	020e9263          	bnez	t4,18c94 <__subtf3+0x4e6>
   18c74:	2e069963          	bnez	a3,18f66 <__subtf3+0x7b8>
   18c78:	ffe48913          	add	s2,s1,-2
   18c7c:	00193913          	seqz	s2,s2
   18c80:	4881                	li	a7,0
   18c82:	4601                	li	a2,0
   18c84:	00c8e533          	or	a0,a7,a2
   18c88:	18051663          	bnez	a0,18e14 <__subtf3+0x666>
   18c8c:	4881                	li	a7,0
   18c8e:	4981                	li	s3,0
   18c90:	4781                	li	a5,0
   18c92:	a40d                	j	18eb4 <__subtf3+0x706>
   18c94:	2c068b63          	beqz	a3,18f6a <__subtf3+0x7bc>
   18c98:	40c506b3          	sub	a3,a0,a2
   18c9c:	00d53833          	sltu	a6,a0,a3
   18ca0:	40e887b3          	sub	a5,a7,a4
   18ca4:	410787b3          	sub	a5,a5,a6
   18ca8:	00c79813          	sll	a6,a5,0xc
   18cac:	00085d63          	bgez	a6,18cc6 <__subtf3+0x518>
   18cb0:	40a60533          	sub	a0,a2,a0
   18cb4:	00a637b3          	sltu	a5,a2,a0
   18cb8:	41170733          	sub	a4,a4,a7
   18cbc:	862a                	mv	a2,a0
   18cbe:	40f708b3          	sub	a7,a4,a5
   18cc2:	892e                	mv	s2,a1
   18cc4:	b7c1                	j	18c84 <__subtf3+0x4d6>
   18cc6:	00f6e633          	or	a2,a3,a5
   18cca:	2a061263          	bnez	a2,18f6e <__subtf3+0x7c0>
   18cce:	ffe48913          	add	s2,s1,-2
   18cd2:	00193913          	seqz	s2,s2
   18cd6:	4881                	li	a7,0
   18cd8:	b775                	j	18c84 <__subtf3+0x4d6>
   18cda:	03c81963          	bne	a6,t3,18d0c <__subtf3+0x55e>
   18cde:	280e8b63          	beqz	t4,18f74 <__subtf3+0x7c6>
   18ce2:	0328d793          	srl	a5,a7,0x32
   18ce6:	0017c793          	xor	a5,a5,1
   18cea:	8b85                	and	a5,a5,1
   18cec:	0792                	sll	a5,a5,0x4
   18cee:	03031e63          	bne	t1,a6,18d2a <__subtf3+0x57c>
   18cf2:	ce99                	beqz	a3,18d10 <__subtf3+0x562>
   18cf4:	4805                	li	a6,1
   18cf6:	00d71313          	sll	t1,a4,0xd
   18cfa:	184a                	sll	a6,a6,0x32
   18cfc:	00034a63          	bltz	t1,18d10 <__subtf3+0x562>
   18d00:	892e                	mv	s2,a1
   18d02:	020e8063          	beqz	t4,18d22 <__subtf3+0x574>
   18d06:	4901                	li	s2,0
   18d08:	8742                	mv	a4,a6
   18d0a:	a819                	j	18d20 <__subtf3+0x572>
   18d0c:	ffc303e3          	beq	t1,t3,18cf2 <__subtf3+0x544>
   18d10:	000e9d63          	bnez	t4,18d2a <__subtf3+0x57c>
   18d14:	892e                	mv	s2,a1
   18d16:	d40692e3          	bnez	a3,18a5a <__subtf3+0x2ac>
   18d1a:	4705                	li	a4,1
   18d1c:	4901                	li	s2,0
   18d1e:	174a                	sll	a4,a4,0x32
   18d20:	4601                	li	a2,0
   18d22:	69a1                	lui	s3,0x8
   18d24:	19fd                	add	s3,s3,-1 # 7fff <exit-0x80e9>
   18d26:	47c1                	li	a5,16
   18d28:	b129                	j	18932 <__subtf3+0x184>
   18d2a:	d20686e3          	beqz	a3,18a56 <__subtf3+0x2a8>
   18d2e:	4705                	li	a4,1
   18d30:	4901                	li	s2,0
   18d32:	174a                	sll	a4,a4,0x32
   18d34:	4601                	li	a2,0
   18d36:	b315                	j	18a5a <__subtf3+0x2ac>
   18d38:	40c507b3          	sub	a5,a0,a2
   18d3c:	00f536b3          	sltu	a3,a0,a5
   18d40:	40e88433          	sub	s0,a7,a4
   18d44:	8c15                	sub	s0,s0,a3
   18d46:	00c41693          	sll	a3,s0,0xc
   18d4a:	8a3e                	mv	s4,a5
   18d4c:	0606d563          	bgez	a3,18db6 <__subtf3+0x608>
   18d50:	40a60a33          	sub	s4,a2,a0
   18d54:	41170433          	sub	s0,a4,a7
   18d58:	01463633          	sltu	a2,a2,s4
   18d5c:	8c11                	sub	s0,s0,a2
   18d5e:	892e                	mv	s2,a1
   18d60:	cc39                	beqz	s0,18dbe <__subtf3+0x610>
   18d62:	8522                	mv	a0,s0
   18d64:	43e000ef          	jal	191a2 <__clzdi2>
   18d68:	ff45061b          	addw	a2,a0,-12
   18d6c:	04000713          	li	a4,64
   18d70:	9f11                	subw	a4,a4,a2
   18d72:	00c41433          	sll	s0,s0,a2
   18d76:	00ea5733          	srl	a4,s4,a4
   18d7a:	8f41                	or	a4,a4,s0
   18d7c:	00ca1433          	sll	s0,s4,a2
   18d80:	09364163          	blt	a2,s3,18e02 <__subtf3+0x654>
   18d84:	4136063b          	subw	a2,a2,s3
   18d88:	0016089b          	addw	a7,a2,1
   18d8c:	03f00793          	li	a5,63
   18d90:	0517c563          	blt	a5,a7,18dda <__subtf3+0x62c>
   18d94:	04000793          	li	a5,64
   18d98:	411787bb          	subw	a5,a5,a7
   18d9c:	00f71633          	sll	a2,a4,a5
   18da0:	011456b3          	srl	a3,s0,a7
   18da4:	00f417b3          	sll	a5,s0,a5
   18da8:	8e55                	or	a2,a2,a3
   18daa:	00f037b3          	snez	a5,a5
   18dae:	8e5d                	or	a2,a2,a5
   18db0:	011758b3          	srl	a7,a4,a7
   18db4:	bdc1                	j	18c84 <__subtf3+0x4d6>
   18db6:	0087e633          	or	a2,a5,s0
   18dba:	f25d                	bnez	a2,18d60 <__subtf3+0x5b2>
   18dbc:	bf09                	j	18cce <__subtf3+0x520>
   18dbe:	8552                	mv	a0,s4
   18dc0:	3e2000ef          	jal	191a2 <__clzdi2>
   18dc4:	0345061b          	addw	a2,a0,52
   18dc8:	03f00793          	li	a5,63
   18dcc:	fac7d0e3          	bge	a5,a2,18d6c <__subtf3+0x5be>
   18dd0:	ff45071b          	addw	a4,a0,-12
   18dd4:	00ea1733          	sll	a4,s4,a4
   18dd8:	b765                	j	18d80 <__subtf3+0x5d2>
   18dda:	fc16061b          	addw	a2,a2,-63
   18dde:	04000593          	li	a1,64
   18de2:	00c75633          	srl	a2,a4,a2
   18de6:	4781                	li	a5,0
   18de8:	00b88863          	beq	a7,a1,18df8 <__subtf3+0x64a>
   18dec:	08000793          	li	a5,128
   18df0:	411787bb          	subw	a5,a5,a7
   18df4:	00f717b3          	sll	a5,a4,a5
   18df8:	8fc1                	or	a5,a5,s0
   18dfa:	00f037b3          	snez	a5,a5
   18dfe:	8e5d                	or	a2,a2,a5
   18e00:	bdd9                	j	18cd6 <__subtf3+0x528>
   18e02:	57fd                	li	a5,-1
   18e04:	17ce                	sll	a5,a5,0x33
   18e06:	17fd                	add	a5,a5,-1
   18e08:	40c989b3          	sub	s3,s3,a2
   18e0c:	8f7d                	and	a4,a4,a5
   18e0e:	8622                	mv	a2,s0
   18e10:	4781                	li	a5,0
   18e12:	b605                	j	18932 <__subtf3+0x184>
   18e14:	00161693          	sll	a3,a2,0x1
   18e18:	03f65793          	srl	a5,a2,0x3f
   18e1c:	00189713          	sll	a4,a7,0x1
   18e20:	0076f593          	and	a1,a3,7
   18e24:	973e                	add	a4,a4,a5
   18e26:	4781                	li	a5,0
   18e28:	c185                	beqz	a1,18e48 <__subtf3+0x69a>
   18e2a:	4789                	li	a5,2
   18e2c:	06f48463          	beq	s1,a5,18e94 <__subtf3+0x6e6>
   18e30:	478d                	li	a5,3
   18e32:	04f48863          	beq	s1,a5,18e82 <__subtf3+0x6d4>
   18e36:	4785                	li	a5,1
   18e38:	e881                	bnez	s1,18e48 <__subtf3+0x69a>
   18e3a:	00f6f593          	and	a1,a3,15
   18e3e:	4511                	li	a0,4
   18e40:	ffc6b693          	sltiu	a3,a3,-4
   18e44:	04a59463          	bne	a1,a0,18e8c <__subtf3+0x6de>
   18e48:	9351                	srl	a4,a4,0x34
   18e4a:	00174713          	xor	a4,a4,1
   18e4e:	8b05                	and	a4,a4,1
   18e50:	8532                	mv	a0,a2
   18e52:	4981                	li	s3,0
   18e54:	00767693          	and	a3,a2,7
   18e58:	caa9                	beqz	a3,18eaa <__subtf3+0x6fc>
   18e5a:	4689                	li	a3,2
   18e5c:	0017e793          	or	a5,a5,1
   18e60:	04d48363          	beq	s1,a3,18ea6 <__subtf3+0x6f8>
   18e64:	468d                	li	a3,3
   18e66:	02d48b63          	beq	s1,a3,18e9c <__subtf3+0x6ee>
   18e6a:	e0a1                	bnez	s1,18eaa <__subtf3+0x6fc>
   18e6c:	00f67693          	and	a3,a2,15
   18e70:	4591                	li	a1,4
   18e72:	02b68c63          	beq	a3,a1,18eaa <__subtf3+0x6fc>
   18e76:	00460513          	add	a0,a2,4
   18e7a:	00c53633          	sltu	a2,a0,a2
   18e7e:	98b2                	add	a7,a7,a2
   18e80:	a02d                	j	18eaa <__subtf3+0x6fc>
   18e82:	4785                	li	a5,1
   18e84:	fc0912e3          	bnez	s2,18e48 <__subtf3+0x69a>
   18e88:	ff86b693          	sltiu	a3,a3,-8
   18e8c:	0016c693          	xor	a3,a3,1
   18e90:	9736                	add	a4,a4,a3
   18e92:	bf5d                	j	18e48 <__subtf3+0x69a>
   18e94:	4785                	li	a5,1
   18e96:	fa0909e3          	beqz	s2,18e48 <__subtf3+0x69a>
   18e9a:	b7fd                	j	18e88 <__subtf3+0x6da>
   18e9c:	00091763          	bnez	s2,18eaa <__subtf3+0x6fc>
   18ea0:	00860513          	add	a0,a2,8
   18ea4:	bfd9                	j	18e7a <__subtf3+0x6cc>
   18ea6:	fe091de3          	bnez	s2,18ea0 <__subtf3+0x6f2>
   18eaa:	c709                	beqz	a4,18eb4 <__subtf3+0x706>
   18eac:	0017f713          	and	a4,a5,1
   18eb0:	0706                	sll	a4,a4,0x1
   18eb2:	8fd9                	or	a5,a5,a4
   18eb4:	00c89713          	sll	a4,a7,0xc
   18eb8:	00075c63          	bgez	a4,18ed0 <__subtf3+0x722>
   18ebc:	6721                	lui	a4,0x8
   18ebe:	0985                	add	s3,s3,1
   18ec0:	177d                	add	a4,a4,-1 # 7fff <exit-0x80e9>
   18ec2:	06e98163          	beq	s3,a4,18f24 <__subtf3+0x776>
   18ec6:	577d                	li	a4,-1
   18ec8:	174e                	sll	a4,a4,0x33
   18eca:	177d                	add	a4,a4,-1
   18ecc:	00e8f8b3          	and	a7,a7,a4
   18ed0:	03d89713          	sll	a4,a7,0x3d
   18ed4:	810d                	srl	a0,a0,0x3
   18ed6:	8d59                	or	a0,a0,a4
   18ed8:	6721                	lui	a4,0x8
   18eda:	177d                	add	a4,a4,-1 # 7fff <exit-0x80e9>
   18edc:	0038d893          	srl	a7,a7,0x3
   18ee0:	00e99a63          	bne	s3,a4,18ef4 <__subtf3+0x746>
   18ee4:	01156533          	or	a0,a0,a7
   18ee8:	4881                	li	a7,0
   18eea:	c509                	beqz	a0,18ef4 <__subtf3+0x746>
   18eec:	4885                	li	a7,1
   18eee:	18be                	sll	a7,a7,0x2f
   18ef0:	4501                	li	a0,0
   18ef2:	4901                	li	s2,0
   18ef4:	19c6                	sll	s3,s3,0x31
   18ef6:	00f9191b          	sllw	s2,s2,0xf
   18efa:	0319d993          	srl	s3,s3,0x31
   18efe:	01089593          	sll	a1,a7,0x10
   18f02:	0129e9b3          	or	s3,s3,s2
   18f06:	19c2                	sll	s3,s3,0x30
   18f08:	81c1                	srl	a1,a1,0x10
   18f0a:	0135e5b3          	or	a1,a1,s3
   18f0e:	c399                	beqz	a5,18f14 <__subtf3+0x766>
   18f10:	0017a073          	csrs	fflags,a5
   18f14:	70a2                	ld	ra,40(sp)
   18f16:	7402                	ld	s0,32(sp)
   18f18:	64e2                	ld	s1,24(sp)
   18f1a:	6942                	ld	s2,16(sp)
   18f1c:	69a2                	ld	s3,8(sp)
   18f1e:	6a02                	ld	s4,0(sp)
   18f20:	6145                	add	sp,sp,48
   18f22:	8082                	ret
   18f24:	4501                	li	a0,0
   18f26:	cc99                	beqz	s1,18f44 <__subtf3+0x796>
   18f28:	470d                	li	a4,3
   18f2a:	00e49863          	bne	s1,a4,18f3a <__subtf3+0x78c>
   18f2e:	00090b63          	beqz	s2,18f44 <__subtf3+0x796>
   18f32:	69a1                	lui	s3,0x8
   18f34:	557d                	li	a0,-1
   18f36:	19f9                	add	s3,s3,-2 # 7ffe <exit-0x80ea>
   18f38:	a031                	j	18f44 <__subtf3+0x796>
   18f3a:	4709                	li	a4,2
   18f3c:	fee49be3          	bne	s1,a4,18f32 <__subtf3+0x784>
   18f40:	fe0909e3          	beqz	s2,18f32 <__subtf3+0x784>
   18f44:	0057e793          	or	a5,a5,5
   18f48:	88aa                	mv	a7,a0
   18f4a:	b759                	j	18ed0 <__subtf3+0x722>
   18f4c:	4701                	li	a4,0
   18f4e:	4601                	li	a2,0
   18f50:	899a                	mv	s3,t1
   18f52:	bd7d                	j	18e10 <__subtf3+0x662>
   18f54:	4701                	li	a4,0
   18f56:	bd6d                	j	18e10 <__subtf3+0x662>
   18f58:	4701                	li	a4,0
   18f5a:	4601                	li	a2,0
   18f5c:	899a                	mv	s3,t1
   18f5e:	892e                	mv	s2,a1
   18f60:	bd45                	j	18e10 <__subtf3+0x662>
   18f62:	88ba                	mv	a7,a4
   18f64:	b305                	j	18c84 <__subtf3+0x4d6>
   18f66:	88ba                	mv	a7,a4
   18f68:	bba9                	j	18cc2 <__subtf3+0x514>
   18f6a:	862a                	mv	a2,a0
   18f6c:	bb21                	j	18c84 <__subtf3+0x4d6>
   18f6e:	88be                	mv	a7,a5
   18f70:	8636                	mv	a2,a3
   18f72:	bb09                	j	18c84 <__subtf3+0x4d6>
   18f74:	db0310e3          	bne	t1,a6,18d14 <__subtf3+0x566>
   18f78:	bbad                	j	18cf2 <__subtf3+0x544>
   18f7a:	9b031ce3          	bne	t1,a6,18932 <__subtf3+0x184>
   18f7e:	bc6d                	j	18a38 <__subtf3+0x28a>

0000000000018f80 <__unordtf2>:
   18f80:	872a                	mv	a4,a0
   18f82:	002027f3          	frrm	a5
   18f86:	557d                	li	a0,-1
   18f88:	01055793          	srl	a5,a0,0x10
   18f8c:	6821                	lui	a6,0x8
   18f8e:	00f5f8b3          	and	a7,a1,a5
   18f92:	187d                	add	a6,a6,-1 # 7fff <exit-0x80e9>
   18f94:	91c1                	srl	a1,a1,0x30
   18f96:	8ff5                	and	a5,a5,a3
   18f98:	0105f5b3          	and	a1,a1,a6
   18f9c:	92c1                	srl	a3,a3,0x30
   18f9e:	0106f6b3          	and	a3,a3,a6
   18fa2:	01059663          	bne	a1,a6,18fae <__unordtf2+0x2e>
   18fa6:	01176333          	or	t1,a4,a7
   18faa:	02031363          	bnez	t1,18fd0 <__unordtf2+0x50>
   18fae:	4501                	li	a0,0
   18fb0:	05069263          	bne	a3,a6,18ff4 <__unordtf2+0x74>
   18fb4:	00f66833          	or	a6,a2,a5
   18fb8:	02080e63          	beqz	a6,18ff4 <__unordtf2+0x74>
   18fbc:	02d59363          	bne	a1,a3,18fe2 <__unordtf2+0x62>
   18fc0:	01176733          	or	a4,a4,a7
   18fc4:	cf01                	beqz	a4,18fdc <__unordtf2+0x5c>
   18fc6:	577d                	li	a4,-1
   18fc8:	8345                	srl	a4,a4,0x11
   18fca:	03177163          	bgeu	a4,a7,18fec <__unordtf2+0x6c>
   18fce:	a039                	j	18fdc <__unordtf2+0x5c>
   18fd0:	8145                	srl	a0,a0,0x11
   18fd2:	01157d63          	bgeu	a0,a7,18fec <__unordtf2+0x6c>
   18fd6:	4505                	li	a0,1
   18fd8:	00b69e63          	bne	a3,a1,18ff4 <__unordtf2+0x74>
   18fdc:	8e5d                	or	a2,a2,a5
   18fde:	4505                	li	a0,1
   18fe0:	ca11                	beqz	a2,18ff4 <__unordtf2+0x74>
   18fe2:	577d                	li	a4,-1
   18fe4:	8345                	srl	a4,a4,0x11
   18fe6:	4505                	li	a0,1
   18fe8:	00f76663          	bltu	a4,a5,18ff4 <__unordtf2+0x74>
   18fec:	00186073          	csrs	fflags,16
   18ff0:	4505                	li	a0,1
   18ff2:	8082                	ret
   18ff4:	8082                	ret

0000000000018ff6 <__fixtfsi>:
   18ff6:	002027f3          	frrm	a5
   18ffa:	6711                	lui	a4,0x4
   18ffc:	00159693          	sll	a3,a1,0x1
   19000:	01059793          	sll	a5,a1,0x10
   19004:	92c5                	srl	a3,a3,0x31
   19006:	1779                	add	a4,a4,-2 # 3ffe <exit-0xc0ea>
   19008:	83c1                	srl	a5,a5,0x10
   1900a:	91fd                	srl	a1,a1,0x3f
   1900c:	00d74763          	blt	a4,a3,1901a <__fixtfsi+0x24>
   19010:	eeb1                	bnez	a3,1906c <__fixtfsi+0x76>
   19012:	8fc9                	or	a5,a5,a0
   19014:	4501                	li	a0,0
   19016:	eba9                	bnez	a5,19068 <__fixtfsi+0x72>
   19018:	8082                	ret
   1901a:	6711                	lui	a4,0x4
   1901c:	0775                	add	a4,a4,29 # 401d <exit-0xc0cb>
   1901e:	02d75063          	bge	a4,a3,1903e <__fixtfsi+0x48>
   19022:	c5b9                	beqz	a1,19070 <__fixtfsi+0x7a>
   19024:	6711                	lui	a4,0x4
   19026:	0779                	add	a4,a4,30 # 401e <exit-0xc0ca>
   19028:	04e69c63          	bne	a3,a4,19080 <__fixtfsi+0x8a>
   1902c:	0117d713          	srl	a4,a5,0x11
   19030:	eb21                	bnez	a4,19080 <__fixtfsi+0x8a>
   19032:	17be                	sll	a5,a5,0x2f
   19034:	8d5d                	or	a0,a0,a5
   19036:	e921                	bnez	a0,19086 <__fixtfsi+0x90>
   19038:	80000537          	lui	a0,0x80000
   1903c:	8082                	ret
   1903e:	4705                	li	a4,1
   19040:	1742                	sll	a4,a4,0x30
   19042:	8fd9                	or	a5,a5,a4
   19044:	6611                	lui	a2,0x4
   19046:	7771                	lui	a4,0xffffc
   19048:	2745                	addw	a4,a4,17 # ffffffffffffc011 <__BSS_END__+0xfffffffffffe04d1>
   1904a:	02f6061b          	addw	a2,a2,47 # 402f <exit-0xc0b9>
   1904e:	9f35                	addw	a4,a4,a3
   19050:	9e15                	subw	a2,a2,a3
   19052:	00e79733          	sll	a4,a5,a4
   19056:	00c7d7b3          	srl	a5,a5,a2
   1905a:	8f49                	or	a4,a4,a0
   1905c:	0007851b          	sext.w	a0,a5
   19060:	c199                	beqz	a1,19066 <__fixtfsi+0x70>
   19062:	40a0053b          	negw	a0,a0
   19066:	cf01                	beqz	a4,1907e <__fixtfsi+0x88>
   19068:	4785                	li	a5,1
   1906a:	a801                	j	1907a <__fixtfsi+0x84>
   1906c:	4501                	li	a0,0
   1906e:	bfed                	j	19068 <__fixtfsi+0x72>
   19070:	80000537          	lui	a0,0x80000
   19074:	fff54513          	not	a0,a0
   19078:	47c1                	li	a5,16
   1907a:	0017a073          	csrs	fflags,a5
   1907e:	8082                	ret
   19080:	80000537          	lui	a0,0x80000
   19084:	bfd5                	j	19078 <__fixtfsi+0x82>
   19086:	80000537          	lui	a0,0x80000
   1908a:	bff9                	j	19068 <__fixtfsi+0x72>

000000000001908c <__floatsitf>:
   1908c:	1101                	add	sp,sp,-32
   1908e:	ec06                	sd	ra,24(sp)
   19090:	e822                	sd	s0,16(sp)
   19092:	e426                	sd	s1,8(sp)
   19094:	c139                	beqz	a0,190da <__floatsitf+0x4e>
   19096:	0005079b          	sext.w	a5,a0
   1909a:	03f55493          	srl	s1,a0,0x3f
   1909e:	00055463          	bgez	a0,190a6 <__floatsitf+0x1a>
   190a2:	40f007bb          	negw	a5,a5
   190a6:	02079413          	sll	s0,a5,0x20
   190aa:	9001                	srl	s0,s0,0x20
   190ac:	8522                	mv	a0,s0
   190ae:	0f4000ef          	jal	191a2 <__clzdi2>
   190b2:	6591                	lui	a1,0x4
   190b4:	03e5859b          	addw	a1,a1,62 # 403e <exit-0xc0aa>
   190b8:	9d89                	subw	a1,a1,a0
   190ba:	3545                	addw	a0,a0,-15 # 7ffffff1 <__BSS_END__+0x7ffe44b1>
   190bc:	00a417b3          	sll	a5,s0,a0
   190c0:	60e2                	ld	ra,24(sp)
   190c2:	6442                	ld	s0,16(sp)
   190c4:	00f4949b          	sllw	s1,s1,0xf
   190c8:	8dc5                	or	a1,a1,s1
   190ca:	07c2                	sll	a5,a5,0x10
   190cc:	15c2                	sll	a1,a1,0x30
   190ce:	83c1                	srl	a5,a5,0x10
   190d0:	64a2                	ld	s1,8(sp)
   190d2:	4501                	li	a0,0
   190d4:	8ddd                	or	a1,a1,a5
   190d6:	6105                	add	sp,sp,32
   190d8:	8082                	ret
   190da:	4781                	li	a5,0
   190dc:	4581                	li	a1,0
   190de:	4481                	li	s1,0
   190e0:	b7c5                	j	190c0 <__floatsitf+0x34>

00000000000190e2 <__extenddftf2>:
   190e2:	1101                	add	sp,sp,-32
   190e4:	e20507d3          	fmv.x.d	a5,fa0
   190e8:	ec06                	sd	ra,24(sp)
   190ea:	e822                	sd	s0,16(sp)
   190ec:	e426                	sd	s1,8(sp)
   190ee:	00202773          	frrm	a4
   190f2:	0347d513          	srl	a0,a5,0x34
   190f6:	7ff57513          	and	a0,a0,2047
   190fa:	00c79413          	sll	s0,a5,0xc
   190fe:	03f7d493          	srl	s1,a5,0x3f
   19102:	00150793          	add	a5,a0,1
   19106:	7fe7f793          	and	a5,a5,2046
   1910a:	8031                	srl	s0,s0,0xc
   1910c:	cb91                	beqz	a5,19120 <__extenddftf2+0x3e>
   1910e:	6791                	lui	a5,0x4
   19110:	c0078793          	add	a5,a5,-1024 # 3c00 <exit-0xc4e8>
   19114:	00445593          	srl	a1,s0,0x4
   19118:	953e                	add	a0,a0,a5
   1911a:	1472                	sll	s0,s0,0x3c
   1911c:	4781                	li	a5,0
   1911e:	a8b1                	j	1917a <__extenddftf2+0x98>
   19120:	ed1d                	bnez	a0,1915e <__extenddftf2+0x7c>
   19122:	4581                	li	a1,0
   19124:	dc65                	beqz	s0,1911c <__extenddftf2+0x3a>
   19126:	8522                	mv	a0,s0
   19128:	07a000ef          	jal	191a2 <__clzdi2>
   1912c:	0005071b          	sext.w	a4,a0
   19130:	47b9                	li	a5,14
   19132:	02e7c063          	blt	a5,a4,19152 <__extenddftf2+0x70>
   19136:	45bd                	li	a1,15
   19138:	9d89                	subw	a1,a1,a0
   1913a:	0315079b          	addw	a5,a0,49
   1913e:	00b455b3          	srl	a1,s0,a1
   19142:	00f41433          	sll	s0,s0,a5
   19146:	6791                	lui	a5,0x4
   19148:	c0c7879b          	addw	a5,a5,-1012 # 3c0c <exit-0xc4dc>
   1914c:	40a7853b          	subw	a0,a5,a0
   19150:	b7f1                	j	1911c <__extenddftf2+0x3a>
   19152:	ff15059b          	addw	a1,a0,-15
   19156:	00b415b3          	sll	a1,s0,a1
   1915a:	4401                	li	s0,0
   1915c:	b7ed                	j	19146 <__extenddftf2+0x64>
   1915e:	cc15                	beqz	s0,1919a <__extenddftf2+0xb8>
   19160:	4785                	li	a5,1
   19162:	17ce                	sll	a5,a5,0x33
   19164:	4705                	li	a4,1
   19166:	00f437b3          	sltu	a5,s0,a5
   1916a:	00445593          	srl	a1,s0,0x4
   1916e:	173e                	sll	a4,a4,0x2f
   19170:	6521                	lui	a0,0x8
   19172:	0792                	sll	a5,a5,0x4
   19174:	1472                	sll	s0,s0,0x3c
   19176:	8dd9                	or	a1,a1,a4
   19178:	157d                	add	a0,a0,-1 # 7fff <exit-0x80e9>
   1917a:	00f4949b          	sllw	s1,s1,0xf
   1917e:	05c2                	sll	a1,a1,0x10
   19180:	8d45                	or	a0,a0,s1
   19182:	1542                	sll	a0,a0,0x30
   19184:	81c1                	srl	a1,a1,0x10
   19186:	8dc9                	or	a1,a1,a0
   19188:	c399                	beqz	a5,1918e <__extenddftf2+0xac>
   1918a:	00186073          	csrs	fflags,16
   1918e:	60e2                	ld	ra,24(sp)
   19190:	8522                	mv	a0,s0
   19192:	6442                	ld	s0,16(sp)
   19194:	64a2                	ld	s1,8(sp)
   19196:	6105                	add	sp,sp,32
   19198:	8082                	ret
   1919a:	6521                	lui	a0,0x8
   1919c:	4581                	li	a1,0
   1919e:	157d                	add	a0,a0,-1 # 7fff <exit-0x80e9>
   191a0:	bfb5                	j	1911c <__extenddftf2+0x3a>

00000000000191a2 <__clzdi2>:
   191a2:	03855793          	srl	a5,a0,0x38
   191a6:	eb85                	bnez	a5,191d6 <__clzdi2+0x34>
   191a8:	03800793          	li	a5,56
   191ac:	17e1                	add	a5,a5,-8
   191ae:	c791                	beqz	a5,191ba <__clzdi2+0x18>
   191b0:	00f55733          	srl	a4,a0,a5
   191b4:	0ff77713          	zext.b	a4,a4
   191b8:	db75                	beqz	a4,191ac <__clzdi2+0xa>
   191ba:	6769                	lui	a4,0x1a
   191bc:	04000693          	li	a3,64
   191c0:	8e9d                	sub	a3,a3,a5
   191c2:	00f55533          	srl	a0,a0,a5
   191c6:	8a070793          	add	a5,a4,-1888 # 198a0 <__clz_tab>
   191ca:	97aa                	add	a5,a5,a0
   191cc:	0007c503          	lbu	a0,0(a5)
   191d0:	40a6853b          	subw	a0,a3,a0
   191d4:	8082                	ret
   191d6:	03800793          	li	a5,56
   191da:	b7c5                	j	191ba <__clzdi2+0x18>
