
intrinsic.elf:     file format elf64-littleriscv


Disassembly of section .text:

00000000000100e8 <exit>:
   100e8:	1141                	add	sp,sp,-16
   100ea:	4581                	li	a1,0
   100ec:	e022                	sd	s0,0(sp)
   100ee:	e406                	sd	ra,8(sp)
   100f0:	842a                	mv	s0,a0
   100f2:	20d000ef          	jal	10afe <__call_exitprocs>
   100f6:	2381b783          	ld	a5,568(gp) # 1b578 <__stdio_exit_handler>
   100fa:	c391                	beqz	a5,100fe <exit+0x16>
   100fc:	9782                	jalr	a5
   100fe:	8522                	mv	a0,s0
   10100:	50f070ef          	jal	17e0e <_exit>

0000000000010104 <register_fini>:
   10104:	00000793          	li	a5,0
   10108:	c791                	beqz	a5,10114 <register_fini+0x10>
   1010a:	6555                	lui	a0,0x15
   1010c:	b3050513          	add	a0,a0,-1232 # 14b30 <__libc_fini_array>
   10110:	2c10006f          	j	10bd0 <atexit>
   10114:	8082                	ret

0000000000010116 <_start>:
   10116:	0000b197          	auipc	gp,0xb
   1011a:	22a18193          	add	gp,gp,554 # 1b340 <__global_locale>
   1011e:	23818513          	add	a0,gp,568 # 1b578 <__stdio_exit_handler>
   10122:	0000c617          	auipc	a2,0xc
   10126:	a1e60613          	add	a2,a2,-1506 # 1bb40 <__BSS_END__>
   1012a:	8e09                	sub	a2,a2,a0
   1012c:	4581                	li	a1,0
   1012e:	127000ef          	jal	10a54 <memset>
   10132:	00001517          	auipc	a0,0x1
   10136:	a9e50513          	add	a0,a0,-1378 # 10bd0 <atexit>
   1013a:	c519                	beqz	a0,10148 <_start+0x32>
   1013c:	00005517          	auipc	a0,0x5
   10140:	9f450513          	add	a0,a0,-1548 # 14b30 <__libc_fini_array>
   10144:	28d000ef          	jal	10bd0 <atexit>
   10148:	0a3000ef          	jal	109ea <__libc_init_array>
   1014c:	4502                	lw	a0,0(sp)
   1014e:	002c                	add	a1,sp,8
   10150:	4601                	li	a2,0
   10152:	11c000ef          	jal	1026e <main>
   10156:	bf49                	j	100e8 <exit>

0000000000010158 <__do_global_dtors_aux>:
   10158:	1141                	add	sp,sp,-16
   1015a:	e022                	sd	s0,0(sp)
   1015c:	2781c783          	lbu	a5,632(gp) # 1b5b8 <completed.1>
   10160:	e406                	sd	ra,8(sp)
   10162:	ef91                	bnez	a5,1017e <__do_global_dtors_aux+0x26>
   10164:	00000793          	li	a5,0
   10168:	cb81                	beqz	a5,10178 <__do_global_dtors_aux+0x20>
   1016a:	656d                	lui	a0,0x1b
   1016c:	9a050513          	add	a0,a0,-1632 # 1a9a0 <__EH_FRAME_BEGIN__>
   10170:	00000097          	auipc	ra,0x0
   10174:	000000e7          	jalr	zero # 0 <exit-0x100e8>
   10178:	4785                	li	a5,1
   1017a:	26f18c23          	sb	a5,632(gp) # 1b5b8 <completed.1>
   1017e:	60a2                	ld	ra,8(sp)
   10180:	6402                	ld	s0,0(sp)
   10182:	0141                	add	sp,sp,16
   10184:	8082                	ret

0000000000010186 <frame_dummy>:
   10186:	00000793          	li	a5,0
   1018a:	cb91                	beqz	a5,1019e <frame_dummy+0x18>
   1018c:	656d                	lui	a0,0x1b
   1018e:	28018593          	add	a1,gp,640 # 1b5c0 <object.0>
   10192:	9a050513          	add	a0,a0,-1632 # 1a9a0 <__EH_FRAME_BEGIN__>
   10196:	00000317          	auipc	t1,0x0
   1019a:	00000067          	jr	zero # 0 <exit-0x100e8>
   1019e:	8082                	ret

00000000000101a0 <print_vreg_content>:
   101a0:	7139                	add	sp,sp,-64
   101a2:	fc06                	sd	ra,56(sp)
   101a4:	f822                	sd	s0,48(sp)
   101a6:	0080                	add	s0,sp,64
   101a8:	fca43423          	sd	a0,-56(s0)
   101ac:	fcb43023          	sd	a1,-64(s0)
   101b0:	02000793          	li	a5,32
   101b4:	fef43023          	sd	a5,-32(s0)
   101b8:	fc043583          	ld	a1,-64(s0)
   101bc:	67e5                	lui	a5,0x19
   101be:	1e078513          	add	a0,a5,480 # 191e0 <__clzdi2+0x3e>
   101c2:	5a4000ef          	jal	10766 <printf>
   101c6:	fe042623          	sw	zero,-20(s0)
   101ca:	a059                	j	10250 <print_vreg_content+0xb0>
   101cc:	fe042423          	sw	zero,-24(s0)
   101d0:	a8b9                	j	1022e <print_vreg_content+0x8e>
   101d2:	fec42783          	lw	a5,-20(s0)
   101d6:	fc843703          	ld	a4,-56(s0)
   101da:	97ba                	add	a5,a5,a4
   101dc:	0007c783          	lbu	a5,0(a5)
   101e0:	2781                	sext.w	a5,a5
   101e2:	8b85                	and	a5,a5,1
   101e4:	2781                	sext.w	a5,a5
   101e6:	00f037b3          	snez	a5,a5
   101ea:	fcf40fa3          	sb	a5,-33(s0)
   101ee:	fec42783          	lw	a5,-20(s0)
   101f2:	fc843703          	ld	a4,-56(s0)
   101f6:	97ba                	add	a5,a5,a4
   101f8:	0007c703          	lbu	a4,0(a5)
   101fc:	fec42783          	lw	a5,-20(s0)
   10200:	fc843683          	ld	a3,-56(s0)
   10204:	97b6                	add	a5,a5,a3
   10206:	0017571b          	srlw	a4,a4,0x1
   1020a:	0ff77713          	zext.b	a4,a4
   1020e:	00e78023          	sb	a4,0(a5)
   10212:	fdf44783          	lbu	a5,-33(s0)
   10216:	2781                	sext.w	a5,a5
   10218:	85be                	mv	a1,a5
   1021a:	67e5                	lui	a5,0x19
   1021c:	1e878513          	add	a0,a5,488 # 191e8 <__clzdi2+0x46>
   10220:	546000ef          	jal	10766 <printf>
   10224:	fe842783          	lw	a5,-24(s0)
   10228:	2785                	addw	a5,a5,1
   1022a:	fef42423          	sw	a5,-24(s0)
   1022e:	fe842783          	lw	a5,-24(s0)
   10232:	0007871b          	sext.w	a4,a5
   10236:	479d                	li	a5,7
   10238:	f8e7dde3          	bge	a5,a4,101d2 <print_vreg_content+0x32>
   1023c:	67e5                	lui	a5,0x19
   1023e:	1f078513          	add	a0,a5,496 # 191f0 <__clzdi2+0x4e>
   10242:	524000ef          	jal	10766 <printf>
   10246:	fec42783          	lw	a5,-20(s0)
   1024a:	2785                	addw	a5,a5,1
   1024c:	fef42623          	sw	a5,-20(s0)
   10250:	fec42703          	lw	a4,-20(s0)
   10254:	fe043783          	ld	a5,-32(s0)
   10258:	838d                	srl	a5,a5,0x3
   1025a:	f6f769e3          	bltu	a4,a5,101cc <print_vreg_content+0x2c>
   1025e:	4529                	li	a0,10
   10260:	538000ef          	jal	10798 <putchar>
   10264:	0001                	nop
   10266:	70e2                	ld	ra,56(sp)
   10268:	7442                	ld	s0,48(sp)
   1026a:	6121                	add	sp,sp,64
   1026c:	8082                	ret

000000000001026e <main>:
   1026e:	1141                	add	sp,sp,-16
   10270:	e406                	sd	ra,8(sp)
   10272:	e022                	sd	s0,0(sp)
   10274:	0800                	add	s0,sp,16
   10276:	c22022f3          	csrr	t0,vlenb
   1027a:	00129313          	sll	t1,t0,0x1
   1027e:	40610133          	sub	sp,sp,t1
   10282:	02000793          	li	a5,32
   10286:	fef43423          	sd	a5,-24(s0)
   1028a:	c22027f3          	csrr	a5,vlenb
   1028e:	838d                	srl	a5,a5,0x3
   10290:	40f007b3          	neg	a5,a5
   10294:	17e1                	add	a5,a5,-8
   10296:	17c1                	add	a5,a5,-16
   10298:	97a2                	add	a5,a5,s0
   1029a:	00007757          	vsetvli	a4,zero,e8,m1,tu,mu
   1029e:	0c077057          	vsetvli	zero,a4,e8,m1,ta,ma
   102a2:	7f8c2c57          	vmset.m	v24
   102a6:	cc00f057          	vsetivli	zero,1,e8,m1,ta,ma
   102aa:	02b78c27          	vsm.v	v24,(a5)
   102ae:	c22027f3          	csrr	a5,vlenb
   102b2:	8389                	srl	a5,a5,0x2
   102b4:	40f007b3          	neg	a5,a5
   102b8:	17e1                	add	a5,a5,-8
   102ba:	17c1                	add	a5,a5,-16
   102bc:	00878733          	add	a4,a5,s0
   102c0:	c22027f3          	csrr	a5,vlenb
   102c4:	838d                	srl	a5,a5,0x3
   102c6:	40f007b3          	neg	a5,a5
   102ca:	17e1                	add	a5,a5,-8
   102cc:	17c1                	add	a5,a5,-16
   102ce:	97a2                	add	a5,a5,s0
   102d0:	000076d7          	vsetvli	a3,zero,e8,m1,tu,mu
   102d4:	0c06f057          	vsetvli	zero,a3,e8,m1,ta,ma
   102d8:	02b78c07          	vlm.v	v24,(a5)
   102dc:	fe843783          	ld	a5,-24(s0)
   102e0:	0c07f057          	vsetvli	zero,a5,e8,m1,ta,ma
   102e4:	778c2c57          	vmnot.m	v24,v24
   102e8:	000077d7          	vsetvli	a5,zero,e8,m1,tu,mu
   102ec:	0c07f057          	vsetvli	zero,a5,e8,m1,ta,ma
   102f0:	02b70c27          	vsm.v	v24,(a4)
   102f4:	c22027f3          	csrr	a5,vlenb
   102f8:	40f007b3          	neg	a5,a5
   102fc:	17e1                	add	a5,a5,-8
   102fe:	17c1                	add	a5,a5,-16
   10300:	00878733          	add	a4,a5,s0
   10304:	c22027f3          	csrr	a5,vlenb
   10308:	8389                	srl	a5,a5,0x2
   1030a:	40f007b3          	neg	a5,a5
   1030e:	17e1                	add	a5,a5,-8
   10310:	17c1                	add	a5,a5,-16
   10312:	97a2                	add	a5,a5,s0
   10314:	000076d7          	vsetvli	a3,zero,e8,m1,tu,mu
   10318:	0c06f057          	vsetvli	zero,a3,e8,m1,ta,ma
   1031c:	02b78c07          	vlm.v	v24,(a5)
   10320:	fe843783          	ld	a5,-24(s0)
   10324:	0c07f057          	vsetvli	zero,a5,e8,m1,ta,ma
   10328:	02b70c27          	vsm.v	v24,(a4)
   1032c:	c22027f3          	csrr	a5,vlenb
   10330:	40f007b3          	neg	a5,a5
   10334:	17e1                	add	a5,a5,-8
   10336:	17c1                	add	a5,a5,-16
   10338:	00878733          	add	a4,a5,s0
   1033c:	67e5                	lui	a5,0x19
   1033e:	1f878593          	add	a1,a5,504 # 191f8 <__clzdi2+0x56>
   10342:	853a                	mv	a0,a4
   10344:	e5dff0ef          	jal	101a0 <print_vreg_content>
   10348:	c22027f3          	csrr	a5,vlenb
   1034c:	838d                	srl	a5,a5,0x3
   1034e:	00279713          	sll	a4,a5,0x2
   10352:	8f99                	sub	a5,a5,a4
   10354:	873e                	mv	a4,a5
   10356:	ff870793          	add	a5,a4,-8
   1035a:	873e                	mv	a4,a5
   1035c:	ff070793          	add	a5,a4,-16
   10360:	97a2                	add	a5,a5,s0
   10362:	fe843703          	ld	a4,-24(s0)
   10366:	000076d7          	vsetvli	a3,zero,e8,m1,tu,mu
   1036a:	0c06f057          	vsetvli	zero,a3,e8,m1,ta,ma
   1036e:	7f8c2c57          	vmset.m	v24
   10372:	0c077057          	vsetvli	zero,a4,e8,m1,ta,ma
   10376:	02b78c27          	vsm.v	v24,(a5)
   1037a:	c22027f3          	csrr	a5,vlenb
   1037e:	8385                	srl	a5,a5,0x1
   10380:	40f007b3          	neg	a5,a5
   10384:	17e1                	add	a5,a5,-8
   10386:	17c1                	add	a5,a5,-16
   10388:	008786b3          	add	a3,a5,s0
   1038c:	c22027f3          	csrr	a5,vlenb
   10390:	838d                	srl	a5,a5,0x3
   10392:	00279713          	sll	a4,a5,0x2
   10396:	8f99                	sub	a5,a5,a4
   10398:	873e                	mv	a4,a5
   1039a:	ff870793          	add	a5,a4,-8
   1039e:	873e                	mv	a4,a5
   103a0:	ff070793          	add	a5,a4,-16
   103a4:	00878733          	add	a4,a5,s0
   103a8:	c22027f3          	csrr	a5,vlenb
   103ac:	8389                	srl	a5,a5,0x2
   103ae:	40f007b3          	neg	a5,a5
   103b2:	17e1                	add	a5,a5,-8
   103b4:	17c1                	add	a5,a5,-16
   103b6:	97a2                	add	a5,a5,s0
   103b8:	00007657          	vsetvli	a2,zero,e8,m1,tu,mu
   103bc:	0c067057          	vsetvli	zero,a2,e8,m1,ta,ma
   103c0:	02b70d07          	vlm.v	v26,(a4)
   103c4:	00007757          	vsetvli	a4,zero,e8,m1,tu,mu
   103c8:	0c077057          	vsetvli	zero,a4,e8,m1,ta,ma
   103cc:	02b78c87          	vlm.v	v25,(a5)
   103d0:	fe843783          	ld	a5,-24(s0)
   103d4:	9fa03057          	vmv1r.v	v0,v26
   103d8:	0c07f057          	vsetvli	zero,a5,e8,m1,ta,ma
   103dc:	5190ac57          	vmsbf.m	v24,v25,v0.t
   103e0:	000077d7          	vsetvli	a5,zero,e8,m1,tu,mu
   103e4:	0c07f057          	vsetvli	zero,a5,e8,m1,ta,ma
   103e8:	02b68c27          	vsm.v	v24,(a3)
   103ec:	c22027f3          	csrr	a5,vlenb
   103f0:	40f007b3          	neg	a5,a5
   103f4:	17e1                	add	a5,a5,-8
   103f6:	17c1                	add	a5,a5,-16
   103f8:	00878733          	add	a4,a5,s0
   103fc:	c22027f3          	csrr	a5,vlenb
   10400:	8385                	srl	a5,a5,0x1
   10402:	40f007b3          	neg	a5,a5
   10406:	17e1                	add	a5,a5,-8
   10408:	17c1                	add	a5,a5,-16
   1040a:	97a2                	add	a5,a5,s0
   1040c:	000076d7          	vsetvli	a3,zero,e8,m1,tu,mu
   10410:	0c06f057          	vsetvli	zero,a3,e8,m1,ta,ma
   10414:	02b78c07          	vlm.v	v24,(a5)
   10418:	fe843783          	ld	a5,-24(s0)
   1041c:	0c07f057          	vsetvli	zero,a5,e8,m1,ta,ma
   10420:	02b70c27          	vsm.v	v24,(a4)
   10424:	c22027f3          	csrr	a5,vlenb
   10428:	40f007b3          	neg	a5,a5
   1042c:	17e1                	add	a5,a5,-8
   1042e:	17c1                	add	a5,a5,-16
   10430:	00878733          	add	a4,a5,s0
   10434:	67e5                	lui	a5,0x19
   10436:	20078593          	add	a1,a5,512 # 19200 <__clzdi2+0x5e>
   1043a:	853a                	mv	a0,a4
   1043c:	d65ff0ef          	jal	101a0 <print_vreg_content>
   10440:	4781                	li	a5,0
   10442:	853e                	mv	a0,a5
   10444:	c22022f3          	csrr	t0,vlenb
   10448:	00129313          	sll	t1,t0,0x1
   1044c:	911a                	add	sp,sp,t1
   1044e:	60a2                	ld	ra,8(sp)
   10450:	6402                	ld	s0,0(sp)
   10452:	0141                	add	sp,sp,16
   10454:	8082                	ret

0000000000010456 <__fp_lock>:
   10456:	4501                	li	a0,0
   10458:	8082                	ret

000000000001045a <stdio_exit_handler>:
   1045a:	666d                	lui	a2,0x1b
   1045c:	65d1                	lui	a1,0x14
   1045e:	656d                	lui	a0,0x1b
   10460:	9c060613          	add	a2,a2,-1600 # 1a9c0 <__sglue>
   10464:	f1258593          	add	a1,a1,-238 # 13f12 <_fclose_r>
   10468:	9d850513          	add	a0,a0,-1576 # 1a9d8 <_impure_data>
   1046c:	ac99                	j	106c2 <_fwalk_sglue>

000000000001046e <cleanup_stdio>:
   1046e:	650c                	ld	a1,8(a0)
   10470:	1141                	add	sp,sp,-16
   10472:	e022                	sd	s0,0(sp)
   10474:	e406                	sd	ra,8(sp)
   10476:	2b018793          	add	a5,gp,688 # 1b5f0 <__sf>
   1047a:	842a                	mv	s0,a0
   1047c:	00f58463          	beq	a1,a5,10484 <cleanup_stdio+0x16>
   10480:	293030ef          	jal	13f12 <_fclose_r>
   10484:	680c                	ld	a1,16(s0)
   10486:	36018793          	add	a5,gp,864 # 1b6a0 <__sf+0xb0>
   1048a:	00f58563          	beq	a1,a5,10494 <cleanup_stdio+0x26>
   1048e:	8522                	mv	a0,s0
   10490:	283030ef          	jal	13f12 <_fclose_r>
   10494:	6c0c                	ld	a1,24(s0)
   10496:	41018793          	add	a5,gp,1040 # 1b750 <__sf+0x160>
   1049a:	00f58863          	beq	a1,a5,104aa <cleanup_stdio+0x3c>
   1049e:	8522                	mv	a0,s0
   104a0:	6402                	ld	s0,0(sp)
   104a2:	60a2                	ld	ra,8(sp)
   104a4:	0141                	add	sp,sp,16
   104a6:	26d0306f          	j	13f12 <_fclose_r>
   104aa:	60a2                	ld	ra,8(sp)
   104ac:	6402                	ld	s0,0(sp)
   104ae:	0141                	add	sp,sp,16
   104b0:	8082                	ret

00000000000104b2 <__fp_unlock>:
   104b2:	4501                	li	a0,0
   104b4:	8082                	ret

00000000000104b6 <global_stdio_init.part.0>:
   104b6:	7179                	add	sp,sp,-48
   104b8:	67c1                	lui	a5,0x10
   104ba:	f022                	sd	s0,32(sp)
   104bc:	45a78793          	add	a5,a5,1114 # 1045a <stdio_exit_handler>
   104c0:	2b018413          	add	s0,gp,688 # 1b5f0 <__sf>
   104c4:	f406                	sd	ra,40(sp)
   104c6:	ec26                	sd	s1,24(sp)
   104c8:	e84a                	sd	s2,16(sp)
   104ca:	e44e                	sd	s3,8(sp)
   104cc:	e052                	sd	s4,0(sp)
   104ce:	22f1bc23          	sd	a5,568(gp) # 1b578 <__stdio_exit_handler>
   104d2:	4621                	li	a2,8
   104d4:	4791                	li	a5,4
   104d6:	4581                	li	a1,0
   104d8:	35418513          	add	a0,gp,852 # 1b694 <__sf+0xa4>
   104dc:	c81c                	sw	a5,16(s0)
   104de:	00043023          	sd	zero,0(s0)
   104e2:	00043423          	sd	zero,8(s0)
   104e6:	0a042623          	sw	zero,172(s0)
   104ea:	00043c23          	sd	zero,24(s0)
   104ee:	02042023          	sw	zero,32(s0)
   104f2:	02042423          	sw	zero,40(s0)
   104f6:	55e000ef          	jal	10a54 <memset>
   104fa:	67c1                	lui	a5,0x10
   104fc:	6a41                	lui	s4,0x10
   104fe:	69c1                	lui	s3,0x10
   10500:	6945                	lui	s2,0x11
   10502:	64c5                	lui	s1,0x11
   10504:	7a6a0a13          	add	s4,s4,1958 # 107a6 <__sread>
   10508:	7e298993          	add	s3,s3,2018 # 107e2 <__swrite>
   1050c:	83490913          	add	s2,s2,-1996 # 10834 <__sseek>
   10510:	88648493          	add	s1,s1,-1914 # 10886 <__sclose>
   10514:	07a5                	add	a5,a5,9 # 10009 <exit-0xdf>
   10516:	4621                	li	a2,8
   10518:	4581                	li	a1,0
   1051a:	40418513          	add	a0,gp,1028 # 1b744 <__sf+0x154>
   1051e:	03443c23          	sd	s4,56(s0)
   10522:	05343023          	sd	s3,64(s0)
   10526:	05243423          	sd	s2,72(s0)
   1052a:	e824                	sd	s1,80(s0)
   1052c:	0cf42023          	sw	a5,192(s0)
   10530:	f800                	sd	s0,48(s0)
   10532:	0a043823          	sd	zero,176(s0)
   10536:	0a043c23          	sd	zero,184(s0)
   1053a:	14042e23          	sw	zero,348(s0)
   1053e:	0c043423          	sd	zero,200(s0)
   10542:	0c042823          	sw	zero,208(s0)
   10546:	0c042c23          	sw	zero,216(s0)
   1054a:	50a000ef          	jal	10a54 <memset>
   1054e:	000207b7          	lui	a5,0x20
   10552:	07c9                	add	a5,a5,18 # 20012 <__BSS_END__+0x44d2>
   10554:	36018713          	add	a4,gp,864 # 1b6a0 <__sf+0xb0>
   10558:	4621                	li	a2,8
   1055a:	4581                	li	a1,0
   1055c:	4b418513          	add	a0,gp,1204 # 1b7f4 <__sf+0x204>
   10560:	0f443423          	sd	s4,232(s0)
   10564:	0f343823          	sd	s3,240(s0)
   10568:	0f243c23          	sd	s2,248(s0)
   1056c:	10943023          	sd	s1,256(s0)
   10570:	16f42823          	sw	a5,368(s0)
   10574:	f078                	sd	a4,224(s0)
   10576:	16043023          	sd	zero,352(s0)
   1057a:	16043423          	sd	zero,360(s0)
   1057e:	20042623          	sw	zero,524(s0)
   10582:	16043c23          	sd	zero,376(s0)
   10586:	18042023          	sw	zero,384(s0)
   1058a:	18042423          	sw	zero,392(s0)
   1058e:	4c6000ef          	jal	10a54 <memset>
   10592:	41018793          	add	a5,gp,1040 # 1b750 <__sf+0x160>
   10596:	19443c23          	sd	s4,408(s0)
   1059a:	1b343023          	sd	s3,416(s0)
   1059e:	1b243423          	sd	s2,424(s0)
   105a2:	1a943823          	sd	s1,432(s0)
   105a6:	70a2                	ld	ra,40(sp)
   105a8:	18f43823          	sd	a5,400(s0)
   105ac:	7402                	ld	s0,32(sp)
   105ae:	64e2                	ld	s1,24(sp)
   105b0:	6942                	ld	s2,16(sp)
   105b2:	69a2                	ld	s3,8(sp)
   105b4:	6a02                	ld	s4,0(sp)
   105b6:	6145                	add	sp,sp,48
   105b8:	8082                	ret

00000000000105ba <__sfp>:
   105ba:	2381b783          	ld	a5,568(gp) # 1b578 <__stdio_exit_handler>
   105be:	7179                	add	sp,sp,-48
   105c0:	e84a                	sd	s2,16(sp)
   105c2:	f406                	sd	ra,40(sp)
   105c4:	f022                	sd	s0,32(sp)
   105c6:	ec26                	sd	s1,24(sp)
   105c8:	e44e                	sd	s3,8(sp)
   105ca:	892a                	mv	s2,a0
   105cc:	c7cd                	beqz	a5,10676 <__sfp+0xbc>
   105ce:	64ed                	lui	s1,0x1b
   105d0:	9c048493          	add	s1,s1,-1600 # 1a9c0 <__sglue>
   105d4:	0b000993          	li	s3,176
   105d8:	4498                	lw	a4,8(s1)
   105da:	6880                	ld	s0,16(s1)
   105dc:	06e05463          	blez	a4,10644 <__sfp+0x8a>
   105e0:	1702                	sll	a4,a4,0x20
   105e2:	9301                	srl	a4,a4,0x20
   105e4:	03370733          	mul	a4,a4,s3
   105e8:	9722                	add	a4,a4,s0
   105ea:	a029                	j	105f4 <__sfp+0x3a>
   105ec:	0b040413          	add	s0,s0,176
   105f0:	04870a63          	beq	a4,s0,10644 <__sfp+0x8a>
   105f4:	01041783          	lh	a5,16(s0)
   105f8:	fbf5                	bnez	a5,105ec <__sfp+0x32>
   105fa:	77c1                	lui	a5,0xffff0
   105fc:	0785                	add	a5,a5,1 # ffffffffffff0001 <__BSS_END__+0xfffffffffffd44c1>
   105fe:	c81c                	sw	a5,16(s0)
   10600:	0a042623          	sw	zero,172(s0)
   10604:	00043023          	sd	zero,0(s0)
   10608:	00043423          	sd	zero,8(s0)
   1060c:	00043c23          	sd	zero,24(s0)
   10610:	02042023          	sw	zero,32(s0)
   10614:	02042423          	sw	zero,40(s0)
   10618:	4621                	li	a2,8
   1061a:	4581                	li	a1,0
   1061c:	0a440513          	add	a0,s0,164
   10620:	434000ef          	jal	10a54 <memset>
   10624:	04043c23          	sd	zero,88(s0)
   10628:	06042023          	sw	zero,96(s0)
   1062c:	06043c23          	sd	zero,120(s0)
   10630:	08042023          	sw	zero,128(s0)
   10634:	70a2                	ld	ra,40(sp)
   10636:	8522                	mv	a0,s0
   10638:	7402                	ld	s0,32(sp)
   1063a:	64e2                	ld	s1,24(sp)
   1063c:	6942                	ld	s2,16(sp)
   1063e:	69a2                	ld	s3,8(sp)
   10640:	6145                	add	sp,sp,48
   10642:	8082                	ret
   10644:	6080                	ld	s0,0(s1)
   10646:	c019                	beqz	s0,1064c <__sfp+0x92>
   10648:	84a2                	mv	s1,s0
   1064a:	b779                	j	105d8 <__sfp+0x1e>
   1064c:	2d800593          	li	a1,728
   10650:	854a                	mv	a0,s2
   10652:	09d000ef          	jal	10eee <_malloc_r>
   10656:	842a                	mv	s0,a0
   10658:	c115                	beqz	a0,1067c <__sfp+0xc2>
   1065a:	0561                	add	a0,a0,24
   1065c:	4791                	li	a5,4
   1065e:	00043023          	sd	zero,0(s0)
   10662:	c41c                	sw	a5,8(s0)
   10664:	e808                	sd	a0,16(s0)
   10666:	2c000613          	li	a2,704
   1066a:	4581                	li	a1,0
   1066c:	3e8000ef          	jal	10a54 <memset>
   10670:	e080                	sd	s0,0(s1)
   10672:	84a2                	mv	s1,s0
   10674:	b795                	j	105d8 <__sfp+0x1e>
   10676:	e41ff0ef          	jal	104b6 <global_stdio_init.part.0>
   1067a:	bf91                	j	105ce <__sfp+0x14>
   1067c:	0004b023          	sd	zero,0(s1)
   10680:	47b1                	li	a5,12
   10682:	00f92023          	sw	a5,0(s2)
   10686:	b77d                	j	10634 <__sfp+0x7a>

0000000000010688 <__sinit>:
   10688:	653c                	ld	a5,72(a0)
   1068a:	c391                	beqz	a5,1068e <__sinit+0x6>
   1068c:	8082                	ret
   1068e:	2381b703          	ld	a4,568(gp) # 1b578 <__stdio_exit_handler>
   10692:	67c1                	lui	a5,0x10
   10694:	46e78793          	add	a5,a5,1134 # 1046e <cleanup_stdio>
   10698:	e53c                	sd	a5,72(a0)
   1069a:	fb6d                	bnez	a4,1068c <__sinit+0x4>
   1069c:	bd29                	j	104b6 <global_stdio_init.part.0>

000000000001069e <__sfp_lock_acquire>:
   1069e:	8082                	ret

00000000000106a0 <__sfp_lock_release>:
   106a0:	8082                	ret

00000000000106a2 <__fp_lock_all>:
   106a2:	666d                	lui	a2,0x1b
   106a4:	65c1                	lui	a1,0x10
   106a6:	9c060613          	add	a2,a2,-1600 # 1a9c0 <__sglue>
   106aa:	45658593          	add	a1,a1,1110 # 10456 <__fp_lock>
   106ae:	4501                	li	a0,0
   106b0:	a809                	j	106c2 <_fwalk_sglue>

00000000000106b2 <__fp_unlock_all>:
   106b2:	666d                	lui	a2,0x1b
   106b4:	65c1                	lui	a1,0x10
   106b6:	9c060613          	add	a2,a2,-1600 # 1a9c0 <__sglue>
   106ba:	4b258593          	add	a1,a1,1202 # 104b2 <__fp_unlock>
   106be:	4501                	li	a0,0
   106c0:	a009                	j	106c2 <_fwalk_sglue>

00000000000106c2 <_fwalk_sglue>:
   106c2:	715d                	add	sp,sp,-80
   106c4:	f84a                	sd	s2,48(sp)
   106c6:	f44e                	sd	s3,40(sp)
   106c8:	f052                	sd	s4,32(sp)
   106ca:	ec56                	sd	s5,24(sp)
   106cc:	e85a                	sd	s6,16(sp)
   106ce:	e45e                	sd	s7,8(sp)
   106d0:	e062                	sd	s8,0(sp)
   106d2:	e486                	sd	ra,72(sp)
   106d4:	e0a2                	sd	s0,64(sp)
   106d6:	fc26                	sd	s1,56(sp)
   106d8:	8a2a                	mv	s4,a0
   106da:	8b2e                	mv	s6,a1
   106dc:	89b2                	mv	s3,a2
   106de:	4901                	li	s2,0
   106e0:	0b000b93          	li	s7,176
   106e4:	4c05                	li	s8,1
   106e6:	5afd                	li	s5,-1
   106e8:	0089a483          	lw	s1,8(s3)
   106ec:	0109b403          	ld	s0,16(s3)
   106f0:	02905963          	blez	s1,10722 <_fwalk_sglue+0x60>
   106f4:	1482                	sll	s1,s1,0x20
   106f6:	9081                	srl	s1,s1,0x20
   106f8:	037484b3          	mul	s1,s1,s7
   106fc:	94a2                	add	s1,s1,s0
   106fe:	01045783          	lhu	a5,16(s0)
   10702:	00fc7c63          	bgeu	s8,a5,1071a <_fwalk_sglue+0x58>
   10706:	01241783          	lh	a5,18(s0)
   1070a:	85a2                	mv	a1,s0
   1070c:	8552                	mv	a0,s4
   1070e:	01578663          	beq	a5,s5,1071a <_fwalk_sglue+0x58>
   10712:	9b02                	jalr	s6
   10714:	01256933          	or	s2,a0,s2
   10718:	2901                	sext.w	s2,s2
   1071a:	0b040413          	add	s0,s0,176
   1071e:	fe9410e3          	bne	s0,s1,106fe <_fwalk_sglue+0x3c>
   10722:	0009b983          	ld	s3,0(s3)
   10726:	fc0991e3          	bnez	s3,106e8 <_fwalk_sglue+0x26>
   1072a:	60a6                	ld	ra,72(sp)
   1072c:	6406                	ld	s0,64(sp)
   1072e:	74e2                	ld	s1,56(sp)
   10730:	79a2                	ld	s3,40(sp)
   10732:	7a02                	ld	s4,32(sp)
   10734:	6ae2                	ld	s5,24(sp)
   10736:	6b42                	ld	s6,16(sp)
   10738:	6ba2                	ld	s7,8(sp)
   1073a:	6c02                	ld	s8,0(sp)
   1073c:	854a                	mv	a0,s2
   1073e:	7942                	ld	s2,48(sp)
   10740:	6161                	add	sp,sp,80
   10742:	8082                	ret

0000000000010744 <_printf_r>:
   10744:	715d                	add	sp,sp,-80
   10746:	f032                	sd	a2,32(sp)
   10748:	f436                	sd	a3,40(sp)
   1074a:	f83a                	sd	a4,48(sp)
   1074c:	fc3e                	sd	a5,56(sp)
   1074e:	e0c2                	sd	a6,64(sp)
   10750:	e4c6                	sd	a7,72(sp)
   10752:	862e                	mv	a2,a1
   10754:	690c                	ld	a1,16(a0)
   10756:	1014                	add	a3,sp,32
   10758:	ec06                	sd	ra,24(sp)
   1075a:	e436                	sd	a3,8(sp)
   1075c:	599000ef          	jal	114f4 <_vfprintf_r>
   10760:	60e2                	ld	ra,24(sp)
   10762:	6161                	add	sp,sp,80
   10764:	8082                	ret

0000000000010766 <printf>:
   10766:	2201b303          	ld	t1,544(gp) # 1b560 <_impure_ptr>
   1076a:	711d                	add	sp,sp,-96
   1076c:	f832                	sd	a2,48(sp)
   1076e:	fc36                	sd	a3,56(sp)
   10770:	f42e                	sd	a1,40(sp)
   10772:	e0ba                	sd	a4,64(sp)
   10774:	e4be                	sd	a5,72(sp)
   10776:	e8c2                	sd	a6,80(sp)
   10778:	ecc6                	sd	a7,88(sp)
   1077a:	01033583          	ld	a1,16(t1) # 101a6 <print_vreg_content+0x6>
   1077e:	1034                	add	a3,sp,40
   10780:	862a                	mv	a2,a0
   10782:	851a                	mv	a0,t1
   10784:	ec06                	sd	ra,24(sp)
   10786:	e436                	sd	a3,8(sp)
   10788:	56d000ef          	jal	114f4 <_vfprintf_r>
   1078c:	60e2                	ld	ra,24(sp)
   1078e:	6125                	add	sp,sp,96
   10790:	8082                	ret

0000000000010792 <_putchar_r>:
   10792:	6910                	ld	a2,16(a0)
   10794:	5af0306f          	j	14542 <_putc_r>

0000000000010798 <putchar>:
   10798:	2201b783          	ld	a5,544(gp) # 1b560 <_impure_ptr>
   1079c:	85aa                	mv	a1,a0
   1079e:	6b90                	ld	a2,16(a5)
   107a0:	853e                	mv	a0,a5
   107a2:	5a10306f          	j	14542 <_putc_r>

00000000000107a6 <__sread>:
   107a6:	1141                	add	sp,sp,-16
   107a8:	e022                	sd	s0,0(sp)
   107aa:	842e                	mv	s0,a1
   107ac:	01259583          	lh	a1,18(a1)
   107b0:	e406                	sd	ra,8(sp)
   107b2:	1c0000ef          	jal	10972 <_read_r>
   107b6:	00054963          	bltz	a0,107c8 <__sread+0x22>
   107ba:	685c                	ld	a5,144(s0)
   107bc:	60a2                	ld	ra,8(sp)
   107be:	97aa                	add	a5,a5,a0
   107c0:	e85c                	sd	a5,144(s0)
   107c2:	6402                	ld	s0,0(sp)
   107c4:	0141                	add	sp,sp,16
   107c6:	8082                	ret
   107c8:	01045783          	lhu	a5,16(s0)
   107cc:	777d                	lui	a4,0xfffff
   107ce:	177d                	add	a4,a4,-1 # ffffffffffffefff <__BSS_END__+0xfffffffffffe34bf>
   107d0:	8ff9                	and	a5,a5,a4
   107d2:	60a2                	ld	ra,8(sp)
   107d4:	00f41823          	sh	a5,16(s0)
   107d8:	6402                	ld	s0,0(sp)
   107da:	0141                	add	sp,sp,16
   107dc:	8082                	ret

00000000000107de <__seofread>:
   107de:	4501                	li	a0,0
   107e0:	8082                	ret

00000000000107e2 <__swrite>:
   107e2:	01059783          	lh	a5,16(a1)
   107e6:	7179                	add	sp,sp,-48
   107e8:	f022                	sd	s0,32(sp)
   107ea:	ec26                	sd	s1,24(sp)
   107ec:	e84a                	sd	s2,16(sp)
   107ee:	e44e                	sd	s3,8(sp)
   107f0:	f406                	sd	ra,40(sp)
   107f2:	1007f713          	and	a4,a5,256
   107f6:	842e                	mv	s0,a1
   107f8:	84aa                	mv	s1,a0
   107fa:	8932                	mv	s2,a2
   107fc:	89b6                	mv	s3,a3
   107fe:	e315                	bnez	a4,10822 <__swrite+0x40>
   10800:	777d                	lui	a4,0xfffff
   10802:	177d                	add	a4,a4,-1 # ffffffffffffefff <__BSS_END__+0xfffffffffffe34bf>
   10804:	8ff9                	and	a5,a5,a4
   10806:	01241583          	lh	a1,18(s0)
   1080a:	00f41823          	sh	a5,16(s0)
   1080e:	7402                	ld	s0,32(sp)
   10810:	70a2                	ld	ra,40(sp)
   10812:	86ce                	mv	a3,s3
   10814:	864a                	mv	a2,s2
   10816:	69a2                	ld	s3,8(sp)
   10818:	6942                	ld	s2,16(sp)
   1081a:	8526                	mv	a0,s1
   1081c:	64e2                	ld	s1,24(sp)
   1081e:	6145                	add	sp,sp,48
   10820:	a279                	j	109ae <_write_r>
   10822:	01259583          	lh	a1,18(a1)
   10826:	4689                	li	a3,2
   10828:	4601                	li	a2,0
   1082a:	10c000ef          	jal	10936 <_lseek_r>
   1082e:	01041783          	lh	a5,16(s0)
   10832:	b7f9                	j	10800 <__swrite+0x1e>

0000000000010834 <__sseek>:
   10834:	1141                	add	sp,sp,-16
   10836:	e022                	sd	s0,0(sp)
   10838:	842e                	mv	s0,a1
   1083a:	01259583          	lh	a1,18(a1)
   1083e:	e406                	sd	ra,8(sp)
   10840:	0f6000ef          	jal	10936 <_lseek_r>
   10844:	57fd                	li	a5,-1
   10846:	02f50163          	beq	a0,a5,10868 <__sseek+0x34>
   1084a:	01045783          	lhu	a5,16(s0)
   1084e:	6705                	lui	a4,0x1
   10850:	60a2                	ld	ra,8(sp)
   10852:	8fd9                	or	a5,a5,a4
   10854:	0107979b          	sllw	a5,a5,0x10
   10858:	4107d79b          	sraw	a5,a5,0x10
   1085c:	e848                	sd	a0,144(s0)
   1085e:	00f41823          	sh	a5,16(s0)
   10862:	6402                	ld	s0,0(sp)
   10864:	0141                	add	sp,sp,16
   10866:	8082                	ret
   10868:	01045783          	lhu	a5,16(s0)
   1086c:	777d                	lui	a4,0xfffff
   1086e:	177d                	add	a4,a4,-1 # ffffffffffffefff <__BSS_END__+0xfffffffffffe34bf>
   10870:	8ff9                	and	a5,a5,a4
   10872:	0107979b          	sllw	a5,a5,0x10
   10876:	4107d79b          	sraw	a5,a5,0x10
   1087a:	60a2                	ld	ra,8(sp)
   1087c:	00f41823          	sh	a5,16(s0)
   10880:	6402                	ld	s0,0(sp)
   10882:	0141                	add	sp,sp,16
   10884:	8082                	ret

0000000000010886 <__sclose>:
   10886:	01259583          	lh	a1,18(a1)
   1088a:	a009                	j	1088c <_close_r>

000000000001088c <_close_r>:
   1088c:	1101                	add	sp,sp,-32
   1088e:	e822                	sd	s0,16(sp)
   10890:	e426                	sd	s1,8(sp)
   10892:	842a                	mv	s0,a0
   10894:	852e                	mv	a0,a1
   10896:	ec06                	sd	ra,24(sp)
   10898:	2401a023          	sw	zero,576(gp) # 1b580 <errno>
   1089c:	546070ef          	jal	17de2 <_close>
   108a0:	57fd                	li	a5,-1
   108a2:	00f50763          	beq	a0,a5,108b0 <_close_r+0x24>
   108a6:	60e2                	ld	ra,24(sp)
   108a8:	6442                	ld	s0,16(sp)
   108aa:	64a2                	ld	s1,8(sp)
   108ac:	6105                	add	sp,sp,32
   108ae:	8082                	ret
   108b0:	2401a783          	lw	a5,576(gp) # 1b580 <errno>
   108b4:	dbed                	beqz	a5,108a6 <_close_r+0x1a>
   108b6:	60e2                	ld	ra,24(sp)
   108b8:	c01c                	sw	a5,0(s0)
   108ba:	6442                	ld	s0,16(sp)
   108bc:	64a2                	ld	s1,8(sp)
   108be:	6105                	add	sp,sp,32
   108c0:	8082                	ret

00000000000108c2 <_reclaim_reent>:
   108c2:	2201b783          	ld	a5,544(gp) # 1b560 <_impure_ptr>
   108c6:	06a78763          	beq	a5,a0,10934 <_reclaim_reent+0x72>
   108ca:	752c                	ld	a1,104(a0)
   108cc:	7179                	add	sp,sp,-48
   108ce:	ec26                	sd	s1,24(sp)
   108d0:	f406                	sd	ra,40(sp)
   108d2:	84aa                	mv	s1,a0
   108d4:	c99d                	beqz	a1,1090a <_reclaim_reent+0x48>
   108d6:	e84a                	sd	s2,16(sp)
   108d8:	e44e                	sd	s3,8(sp)
   108da:	f022                	sd	s0,32(sp)
   108dc:	4901                	li	s2,0
   108de:	20000993          	li	s3,512
   108e2:	012587b3          	add	a5,a1,s2
   108e6:	6380                	ld	s0,0(a5)
   108e8:	c801                	beqz	s0,108f8 <_reclaim_reent+0x36>
   108ea:	85a2                	mv	a1,s0
   108ec:	6000                	ld	s0,0(s0)
   108ee:	8526                	mv	a0,s1
   108f0:	3ba000ef          	jal	10caa <_free_r>
   108f4:	f87d                	bnez	s0,108ea <_reclaim_reent+0x28>
   108f6:	74ac                	ld	a1,104(s1)
   108f8:	0921                	add	s2,s2,8
   108fa:	ff3914e3          	bne	s2,s3,108e2 <_reclaim_reent+0x20>
   108fe:	8526                	mv	a0,s1
   10900:	3aa000ef          	jal	10caa <_free_r>
   10904:	7402                	ld	s0,32(sp)
   10906:	6942                	ld	s2,16(sp)
   10908:	69a2                	ld	s3,8(sp)
   1090a:	68ac                	ld	a1,80(s1)
   1090c:	c581                	beqz	a1,10914 <_reclaim_reent+0x52>
   1090e:	8526                	mv	a0,s1
   10910:	39a000ef          	jal	10caa <_free_r>
   10914:	7cac                	ld	a1,120(s1)
   10916:	c581                	beqz	a1,1091e <_reclaim_reent+0x5c>
   10918:	8526                	mv	a0,s1
   1091a:	390000ef          	jal	10caa <_free_r>
   1091e:	64bc                	ld	a5,72(s1)
   10920:	c791                	beqz	a5,1092c <_reclaim_reent+0x6a>
   10922:	70a2                	ld	ra,40(sp)
   10924:	8526                	mv	a0,s1
   10926:	64e2                	ld	s1,24(sp)
   10928:	6145                	add	sp,sp,48
   1092a:	8782                	jr	a5
   1092c:	70a2                	ld	ra,40(sp)
   1092e:	64e2                	ld	s1,24(sp)
   10930:	6145                	add	sp,sp,48
   10932:	8082                	ret
   10934:	8082                	ret

0000000000010936 <_lseek_r>:
   10936:	1101                	add	sp,sp,-32
   10938:	872e                	mv	a4,a1
   1093a:	e822                	sd	s0,16(sp)
   1093c:	e426                	sd	s1,8(sp)
   1093e:	85b2                	mv	a1,a2
   10940:	842a                	mv	s0,a0
   10942:	8636                	mv	a2,a3
   10944:	853a                	mv	a0,a4
   10946:	ec06                	sd	ra,24(sp)
   10948:	2401a023          	sw	zero,576(gp) # 1b580 <errno>
   1094c:	562070ef          	jal	17eae <_lseek>
   10950:	57fd                	li	a5,-1
   10952:	00f50763          	beq	a0,a5,10960 <_lseek_r+0x2a>
   10956:	60e2                	ld	ra,24(sp)
   10958:	6442                	ld	s0,16(sp)
   1095a:	64a2                	ld	s1,8(sp)
   1095c:	6105                	add	sp,sp,32
   1095e:	8082                	ret
   10960:	2401a783          	lw	a5,576(gp) # 1b580 <errno>
   10964:	dbed                	beqz	a5,10956 <_lseek_r+0x20>
   10966:	60e2                	ld	ra,24(sp)
   10968:	c01c                	sw	a5,0(s0)
   1096a:	6442                	ld	s0,16(sp)
   1096c:	64a2                	ld	s1,8(sp)
   1096e:	6105                	add	sp,sp,32
   10970:	8082                	ret

0000000000010972 <_read_r>:
   10972:	1101                	add	sp,sp,-32
   10974:	872e                	mv	a4,a1
   10976:	e822                	sd	s0,16(sp)
   10978:	e426                	sd	s1,8(sp)
   1097a:	85b2                	mv	a1,a2
   1097c:	842a                	mv	s0,a0
   1097e:	8636                	mv	a2,a3
   10980:	853a                	mv	a0,a4
   10982:	ec06                	sd	ra,24(sp)
   10984:	2401a023          	sw	zero,576(gp) # 1b580 <errno>
   10988:	552070ef          	jal	17eda <_read>
   1098c:	57fd                	li	a5,-1
   1098e:	00f50763          	beq	a0,a5,1099c <_read_r+0x2a>
   10992:	60e2                	ld	ra,24(sp)
   10994:	6442                	ld	s0,16(sp)
   10996:	64a2                	ld	s1,8(sp)
   10998:	6105                	add	sp,sp,32
   1099a:	8082                	ret
   1099c:	2401a783          	lw	a5,576(gp) # 1b580 <errno>
   109a0:	dbed                	beqz	a5,10992 <_read_r+0x20>
   109a2:	60e2                	ld	ra,24(sp)
   109a4:	c01c                	sw	a5,0(s0)
   109a6:	6442                	ld	s0,16(sp)
   109a8:	64a2                	ld	s1,8(sp)
   109aa:	6105                	add	sp,sp,32
   109ac:	8082                	ret

00000000000109ae <_write_r>:
   109ae:	1101                	add	sp,sp,-32
   109b0:	872e                	mv	a4,a1
   109b2:	e822                	sd	s0,16(sp)
   109b4:	e426                	sd	s1,8(sp)
   109b6:	85b2                	mv	a1,a2
   109b8:	842a                	mv	s0,a0
   109ba:	8636                	mv	a2,a3
   109bc:	853a                	mv	a0,a4
   109be:	ec06                	sd	ra,24(sp)
   109c0:	2401a023          	sw	zero,576(gp) # 1b580 <errno>
   109c4:	596070ef          	jal	17f5a <_write>
   109c8:	57fd                	li	a5,-1
   109ca:	00f50763          	beq	a0,a5,109d8 <_write_r+0x2a>
   109ce:	60e2                	ld	ra,24(sp)
   109d0:	6442                	ld	s0,16(sp)
   109d2:	64a2                	ld	s1,8(sp)
   109d4:	6105                	add	sp,sp,32
   109d6:	8082                	ret
   109d8:	2401a783          	lw	a5,576(gp) # 1b580 <errno>
   109dc:	dbed                	beqz	a5,109ce <_write_r+0x20>
   109de:	60e2                	ld	ra,24(sp)
   109e0:	c01c                	sw	a5,0(s0)
   109e2:	6442                	ld	s0,16(sp)
   109e4:	64a2                	ld	s1,8(sp)
   109e6:	6105                	add	sp,sp,32
   109e8:	8082                	ret

00000000000109ea <__libc_init_array>:
   109ea:	1101                	add	sp,sp,-32
   109ec:	e822                	sd	s0,16(sp)
   109ee:	67ed                	lui	a5,0x1b
   109f0:	646d                	lui	s0,0x1b
   109f2:	e04a                	sd	s2,0(sp)
   109f4:	9a478793          	add	a5,a5,-1628 # 1a9a4 <__preinit_array_end>
   109f8:	9a440713          	add	a4,s0,-1628 # 1a9a4 <__preinit_array_end>
   109fc:	ec06                	sd	ra,24(sp)
   109fe:	e426                	sd	s1,8(sp)
   10a00:	40e78933          	sub	s2,a5,a4
   10a04:	00e78d63          	beq	a5,a4,10a1e <__libc_init_array+0x34>
   10a08:	40395913          	sra	s2,s2,0x3
   10a0c:	9a440413          	add	s0,s0,-1628
   10a10:	4481                	li	s1,0
   10a12:	601c                	ld	a5,0(s0)
   10a14:	0485                	add	s1,s1,1
   10a16:	0421                	add	s0,s0,8
   10a18:	9782                	jalr	a5
   10a1a:	ff24ece3          	bltu	s1,s2,10a12 <__libc_init_array+0x28>
   10a1e:	646d                	lui	s0,0x1b
   10a20:	67ed                	lui	a5,0x1b
   10a22:	9b878793          	add	a5,a5,-1608 # 1a9b8 <__do_global_dtors_aux_fini_array_entry>
   10a26:	9a840713          	add	a4,s0,-1624 # 1a9a8 <__init_array_start>
   10a2a:	40e78933          	sub	s2,a5,a4
   10a2e:	40395913          	sra	s2,s2,0x3
   10a32:	00e78b63          	beq	a5,a4,10a48 <__libc_init_array+0x5e>
   10a36:	9a840413          	add	s0,s0,-1624
   10a3a:	4481                	li	s1,0
   10a3c:	601c                	ld	a5,0(s0)
   10a3e:	0485                	add	s1,s1,1
   10a40:	0421                	add	s0,s0,8
   10a42:	9782                	jalr	a5
   10a44:	ff24ece3          	bltu	s1,s2,10a3c <__libc_init_array+0x52>
   10a48:	60e2                	ld	ra,24(sp)
   10a4a:	6442                	ld	s0,16(sp)
   10a4c:	64a2                	ld	s1,8(sp)
   10a4e:	6902                	ld	s2,0(sp)
   10a50:	6105                	add	sp,sp,32
   10a52:	8082                	ret

0000000000010a54 <memset>:
   10a54:	433d                	li	t1,15
   10a56:	872a                	mv	a4,a0
   10a58:	02c37163          	bgeu	t1,a2,10a7a <memset+0x26>
   10a5c:	00f77793          	and	a5,a4,15
   10a60:	e3c1                	bnez	a5,10ae0 <memset+0x8c>
   10a62:	e1bd                	bnez	a1,10ac8 <memset+0x74>
   10a64:	ff067693          	and	a3,a2,-16
   10a68:	8a3d                	and	a2,a2,15
   10a6a:	96ba                	add	a3,a3,a4
   10a6c:	e30c                	sd	a1,0(a4)
   10a6e:	e70c                	sd	a1,8(a4)
   10a70:	0741                	add	a4,a4,16
   10a72:	fed76de3          	bltu	a4,a3,10a6c <memset+0x18>
   10a76:	e211                	bnez	a2,10a7a <memset+0x26>
   10a78:	8082                	ret
   10a7a:	40c306b3          	sub	a3,t1,a2
   10a7e:	068a                	sll	a3,a3,0x2
   10a80:	00000297          	auipc	t0,0x0
   10a84:	9696                	add	a3,a3,t0
   10a86:	00a68067          	jr	10(a3)
   10a8a:	00b70723          	sb	a1,14(a4)
   10a8e:	00b706a3          	sb	a1,13(a4)
   10a92:	00b70623          	sb	a1,12(a4)
   10a96:	00b705a3          	sb	a1,11(a4)
   10a9a:	00b70523          	sb	a1,10(a4)
   10a9e:	00b704a3          	sb	a1,9(a4)
   10aa2:	00b70423          	sb	a1,8(a4)
   10aa6:	00b703a3          	sb	a1,7(a4)
   10aaa:	00b70323          	sb	a1,6(a4)
   10aae:	00b702a3          	sb	a1,5(a4)
   10ab2:	00b70223          	sb	a1,4(a4)
   10ab6:	00b701a3          	sb	a1,3(a4)
   10aba:	00b70123          	sb	a1,2(a4)
   10abe:	00b700a3          	sb	a1,1(a4)
   10ac2:	00b70023          	sb	a1,0(a4)
   10ac6:	8082                	ret
   10ac8:	0ff5f593          	zext.b	a1,a1
   10acc:	00859693          	sll	a3,a1,0x8
   10ad0:	8dd5                	or	a1,a1,a3
   10ad2:	01059693          	sll	a3,a1,0x10
   10ad6:	8dd5                	or	a1,a1,a3
   10ad8:	02059693          	sll	a3,a1,0x20
   10adc:	8dd5                	or	a1,a1,a3
   10ade:	b759                	j	10a64 <memset+0x10>
   10ae0:	00279693          	sll	a3,a5,0x2
   10ae4:	00000297          	auipc	t0,0x0
   10ae8:	9696                	add	a3,a3,t0
   10aea:	8286                	mv	t0,ra
   10aec:	fa2680e7          	jalr	-94(a3)
   10af0:	8096                	mv	ra,t0
   10af2:	17c1                	add	a5,a5,-16
   10af4:	8f1d                	sub	a4,a4,a5
   10af6:	963e                	add	a2,a2,a5
   10af8:	f8c371e3          	bgeu	t1,a2,10a7a <memset+0x26>
   10afc:	b79d                	j	10a62 <memset+0xe>

0000000000010afe <__call_exitprocs>:
   10afe:	715d                	add	sp,sp,-80
   10b00:	f052                	sd	s4,32(sp)
   10b02:	f84a                	sd	s2,48(sp)
   10b04:	2481b903          	ld	s2,584(gp) # 1b588 <__atexit>
   10b08:	e486                	sd	ra,72(sp)
   10b0a:	06090d63          	beqz	s2,10b84 <__call_exitprocs+0x86>
   10b0e:	f44e                	sd	s3,40(sp)
   10b10:	ec56                	sd	s5,24(sp)
   10b12:	e85a                	sd	s6,16(sp)
   10b14:	e45e                	sd	s7,8(sp)
   10b16:	e0a2                	sd	s0,64(sp)
   10b18:	fc26                	sd	s1,56(sp)
   10b1a:	e062                	sd	s8,0(sp)
   10b1c:	8b2a                	mv	s6,a0
   10b1e:	8bae                	mv	s7,a1
   10b20:	59fd                	li	s3,-1
   10b22:	4a85                	li	s5,1
   10b24:	00892483          	lw	s1,8(s2)
   10b28:	fff4841b          	addw	s0,s1,-1
   10b2c:	04044563          	bltz	s0,10b76 <__call_exitprocs+0x78>
   10b30:	048e                	sll	s1,s1,0x3
   10b32:	94ca                	add	s1,s1,s2
   10b34:	040b9d63          	bnez	s7,10b8e <__call_exitprocs+0x90>
   10b38:	00892783          	lw	a5,8(s2)
   10b3c:	6498                	ld	a4,8(s1)
   10b3e:	37fd                	addw	a5,a5,-1
   10b40:	08878263          	beq	a5,s0,10bc4 <__call_exitprocs+0xc6>
   10b44:	0004b423          	sd	zero,8(s1)
   10b48:	c31d                	beqz	a4,10b6e <__call_exitprocs+0x70>
   10b4a:	31092783          	lw	a5,784(s2)
   10b4e:	008a96bb          	sllw	a3,s5,s0
   10b52:	00892c03          	lw	s8,8(s2)
   10b56:	8ff5                	and	a5,a5,a3
   10b58:	2781                	sext.w	a5,a5
   10b5a:	e3b9                	bnez	a5,10ba0 <__call_exitprocs+0xa2>
   10b5c:	9702                	jalr	a4
   10b5e:	00892703          	lw	a4,8(s2)
   10b62:	2481b783          	ld	a5,584(gp) # 1b588 <__atexit>
   10b66:	05871c63          	bne	a4,s8,10bbe <__call_exitprocs+0xc0>
   10b6a:	05279a63          	bne	a5,s2,10bbe <__call_exitprocs+0xc0>
   10b6e:	347d                	addw	s0,s0,-1
   10b70:	14e1                	add	s1,s1,-8
   10b72:	fd3411e3          	bne	s0,s3,10b34 <__call_exitprocs+0x36>
   10b76:	6406                	ld	s0,64(sp)
   10b78:	74e2                	ld	s1,56(sp)
   10b7a:	79a2                	ld	s3,40(sp)
   10b7c:	6ae2                	ld	s5,24(sp)
   10b7e:	6b42                	ld	s6,16(sp)
   10b80:	6ba2                	ld	s7,8(sp)
   10b82:	6c02                	ld	s8,0(sp)
   10b84:	60a6                	ld	ra,72(sp)
   10b86:	7942                	ld	s2,48(sp)
   10b88:	7a02                	ld	s4,32(sp)
   10b8a:	6161                	add	sp,sp,80
   10b8c:	8082                	ret
   10b8e:	2084b783          	ld	a5,520(s1)
   10b92:	fb7783e3          	beq	a5,s7,10b38 <__call_exitprocs+0x3a>
   10b96:	347d                	addw	s0,s0,-1
   10b98:	14e1                	add	s1,s1,-8
   10b9a:	ff341ae3          	bne	s0,s3,10b8e <__call_exitprocs+0x90>
   10b9e:	bfe1                	j	10b76 <__call_exitprocs+0x78>
   10ba0:	31492783          	lw	a5,788(s2)
   10ba4:	1084b583          	ld	a1,264(s1)
   10ba8:	8ff5                	and	a5,a5,a3
   10baa:	2781                	sext.w	a5,a5
   10bac:	ef99                	bnez	a5,10bca <__call_exitprocs+0xcc>
   10bae:	855a                	mv	a0,s6
   10bb0:	9702                	jalr	a4
   10bb2:	00892703          	lw	a4,8(s2)
   10bb6:	2481b783          	ld	a5,584(gp) # 1b588 <__atexit>
   10bba:	fb8708e3          	beq	a4,s8,10b6a <__call_exitprocs+0x6c>
   10bbe:	dfc5                	beqz	a5,10b76 <__call_exitprocs+0x78>
   10bc0:	893e                	mv	s2,a5
   10bc2:	b78d                	j	10b24 <__call_exitprocs+0x26>
   10bc4:	00892423          	sw	s0,8(s2)
   10bc8:	b741                	j	10b48 <__call_exitprocs+0x4a>
   10bca:	852e                	mv	a0,a1
   10bcc:	9702                	jalr	a4
   10bce:	bf41                	j	10b5e <__call_exitprocs+0x60>

0000000000010bd0 <atexit>:
   10bd0:	85aa                	mv	a1,a0
   10bd2:	4681                	li	a3,0
   10bd4:	4601                	li	a2,0
   10bd6:	4501                	li	a0,0
   10bd8:	3e00406f          	j	14fb8 <__register_exitproc>

0000000000010bdc <_malloc_trim_r>:
   10bdc:	7179                	add	sp,sp,-48
   10bde:	e44e                	sd	s3,8(sp)
   10be0:	69ed                	lui	s3,0x1b
   10be2:	f022                	sd	s0,32(sp)
   10be4:	ec26                	sd	s1,24(sp)
   10be6:	e84a                	sd	s2,16(sp)
   10be8:	e052                	sd	s4,0(sp)
   10bea:	f406                	sd	ra,40(sp)
   10bec:	8a2e                	mv	s4,a1
   10bee:	892a                	mv	s2,a0
   10bf0:	b3098993          	add	s3,s3,-1232 # 1ab30 <__malloc_av_>
   10bf4:	0fd000ef          	jal	114f0 <__malloc_lock>
   10bf8:	0109b703          	ld	a4,16(s3)
   10bfc:	6785                	lui	a5,0x1
   10bfe:	fdf78793          	add	a5,a5,-33 # fdf <exit-0xf109>
   10c02:	6704                	ld	s1,8(a4)
   10c04:	6705                	lui	a4,0x1
   10c06:	98f1                	and	s1,s1,-4
   10c08:	00f48433          	add	s0,s1,a5
   10c0c:	41440433          	sub	s0,s0,s4
   10c10:	8031                	srl	s0,s0,0xc
   10c12:	147d                	add	s0,s0,-1
   10c14:	0432                	sll	s0,s0,0xc
   10c16:	00e44b63          	blt	s0,a4,10c2c <_malloc_trim_r+0x50>
   10c1a:	4581                	li	a1,0
   10c1c:	854a                	mv	a0,s2
   10c1e:	6dd030ef          	jal	14afa <_sbrk_r>
   10c22:	0109b783          	ld	a5,16(s3)
   10c26:	97a6                	add	a5,a5,s1
   10c28:	00f50e63          	beq	a0,a5,10c44 <_malloc_trim_r+0x68>
   10c2c:	854a                	mv	a0,s2
   10c2e:	0c5000ef          	jal	114f2 <__malloc_unlock>
   10c32:	70a2                	ld	ra,40(sp)
   10c34:	7402                	ld	s0,32(sp)
   10c36:	64e2                	ld	s1,24(sp)
   10c38:	6942                	ld	s2,16(sp)
   10c3a:	69a2                	ld	s3,8(sp)
   10c3c:	6a02                	ld	s4,0(sp)
   10c3e:	4501                	li	a0,0
   10c40:	6145                	add	sp,sp,48
   10c42:	8082                	ret
   10c44:	408005b3          	neg	a1,s0
   10c48:	854a                	mv	a0,s2
   10c4a:	6b1030ef          	jal	14afa <_sbrk_r>
   10c4e:	57fd                	li	a5,-1
   10c50:	02f50963          	beq	a0,a5,10c82 <_malloc_trim_r+0xa6>
   10c54:	4c018793          	add	a5,gp,1216 # 1b800 <__malloc_current_mallinfo>
   10c58:	4398                	lw	a4,0(a5)
   10c5a:	0109b683          	ld	a3,16(s3)
   10c5e:	8c81                	sub	s1,s1,s0
   10c60:	0014e493          	or	s1,s1,1
   10c64:	9f01                	subw	a4,a4,s0
   10c66:	854a                	mv	a0,s2
   10c68:	e684                	sd	s1,8(a3)
   10c6a:	c398                	sw	a4,0(a5)
   10c6c:	087000ef          	jal	114f2 <__malloc_unlock>
   10c70:	70a2                	ld	ra,40(sp)
   10c72:	7402                	ld	s0,32(sp)
   10c74:	64e2                	ld	s1,24(sp)
   10c76:	6942                	ld	s2,16(sp)
   10c78:	69a2                	ld	s3,8(sp)
   10c7a:	6a02                	ld	s4,0(sp)
   10c7c:	4505                	li	a0,1
   10c7e:	6145                	add	sp,sp,48
   10c80:	8082                	ret
   10c82:	4581                	li	a1,0
   10c84:	854a                	mv	a0,s2
   10c86:	675030ef          	jal	14afa <_sbrk_r>
   10c8a:	0109b703          	ld	a4,16(s3)
   10c8e:	46fd                	li	a3,31
   10c90:	40e507b3          	sub	a5,a0,a4
   10c94:	f8f6dce3          	bge	a3,a5,10c2c <_malloc_trim_r+0x50>
   10c98:	2281b683          	ld	a3,552(gp) # 1b568 <__malloc_sbrk_base>
   10c9c:	0017e793          	or	a5,a5,1
   10ca0:	e71c                	sd	a5,8(a4)
   10ca2:	8d15                	sub	a0,a0,a3
   10ca4:	4ca1a023          	sw	a0,1216(gp) # 1b800 <__malloc_current_mallinfo>
   10ca8:	b751                	j	10c2c <_malloc_trim_r+0x50>

0000000000010caa <_free_r>:
   10caa:	12058163          	beqz	a1,10dcc <_free_r+0x122>
   10cae:	1101                	add	sp,sp,-32
   10cb0:	e822                	sd	s0,16(sp)
   10cb2:	e426                	sd	s1,8(sp)
   10cb4:	842e                	mv	s0,a1
   10cb6:	84aa                	mv	s1,a0
   10cb8:	ec06                	sd	ra,24(sp)
   10cba:	037000ef          	jal	114f0 <__malloc_lock>
   10cbe:	ff843503          	ld	a0,-8(s0)
   10cc2:	ff040713          	add	a4,s0,-16
   10cc6:	65ed                	lui	a1,0x1b
   10cc8:	ffe57793          	and	a5,a0,-2
   10ccc:	00f70633          	add	a2,a4,a5
   10cd0:	b3058593          	add	a1,a1,-1232 # 1ab30 <__malloc_av_>
   10cd4:	6614                	ld	a3,8(a2)
   10cd6:	0105b803          	ld	a6,16(a1)
   10cda:	9af1                	and	a3,a3,-4
   10cdc:	12c80a63          	beq	a6,a2,10e10 <_free_r+0x166>
   10ce0:	e614                	sd	a3,8(a2)
   10ce2:	8905                	and	a0,a0,1
   10ce4:	00d60833          	add	a6,a2,a3
   10ce8:	ed3d                	bnez	a0,10d66 <_free_r+0xbc>
   10cea:	ff043303          	ld	t1,-16(s0)
   10cee:	00883803          	ld	a6,8(a6)
   10cf2:	656d                	lui	a0,0x1b
   10cf4:	40670733          	sub	a4,a4,t1
   10cf8:	01073883          	ld	a7,16(a4) # 1010 <exit-0xf0d8>
   10cfc:	b4050513          	add	a0,a0,-1216 # 1ab40 <__malloc_av_+0x10>
   10d00:	979a                	add	a5,a5,t1
   10d02:	00187813          	and	a6,a6,1
   10d06:	0ea88863          	beq	a7,a0,10df6 <_free_r+0x14c>
   10d0a:	01873303          	ld	t1,24(a4)
   10d0e:	0068bc23          	sd	t1,24(a7)
   10d12:	01133823          	sd	a7,16(t1)
   10d16:	12080663          	beqz	a6,10e42 <_free_r+0x198>
   10d1a:	0017e693          	or	a3,a5,1
   10d1e:	e714                	sd	a3,8(a4)
   10d20:	e21c                	sd	a5,0(a2)
   10d22:	1ff00693          	li	a3,511
   10d26:	04f6ed63          	bltu	a3,a5,10d80 <_free_r+0xd6>
   10d2a:	838d                	srl	a5,a5,0x3
   10d2c:	0017869b          	addw	a3,a5,1
   10d30:	0016969b          	sllw	a3,a3,0x1
   10d34:	068e                	sll	a3,a3,0x3
   10d36:	0085b803          	ld	a6,8(a1)
   10d3a:	96ae                	add	a3,a3,a1
   10d3c:	6288                	ld	a0,0(a3)
   10d3e:	4027d61b          	sraw	a2,a5,0x2
   10d42:	4785                	li	a5,1
   10d44:	00c797b3          	sll	a5,a5,a2
   10d48:	0107e7b3          	or	a5,a5,a6
   10d4c:	ff068613          	add	a2,a3,-16
   10d50:	ef10                	sd	a2,24(a4)
   10d52:	eb08                	sd	a0,16(a4)
   10d54:	e59c                	sd	a5,8(a1)
   10d56:	e298                	sd	a4,0(a3)
   10d58:	ed18                	sd	a4,24(a0)
   10d5a:	6442                	ld	s0,16(sp)
   10d5c:	60e2                	ld	ra,24(sp)
   10d5e:	8526                	mv	a0,s1
   10d60:	64a2                	ld	s1,8(sp)
   10d62:	6105                	add	sp,sp,32
   10d64:	a779                	j	114f2 <__malloc_unlock>
   10d66:	00883503          	ld	a0,8(a6)
   10d6a:	8905                	and	a0,a0,1
   10d6c:	c12d                	beqz	a0,10dce <_free_r+0x124>
   10d6e:	0017e693          	or	a3,a5,1
   10d72:	fed43c23          	sd	a3,-8(s0)
   10d76:	e21c                	sd	a5,0(a2)
   10d78:	1ff00693          	li	a3,511
   10d7c:	faf6f7e3          	bgeu	a3,a5,10d2a <_free_r+0x80>
   10d80:	0097d693          	srl	a3,a5,0x9
   10d84:	4611                	li	a2,4
   10d86:	0cd66063          	bltu	a2,a3,10e46 <_free_r+0x19c>
   10d8a:	0067d693          	srl	a3,a5,0x6
   10d8e:	0396851b          	addw	a0,a3,57
   10d92:	0015151b          	sllw	a0,a0,0x1
   10d96:	0386861b          	addw	a2,a3,56
   10d9a:	050e                	sll	a0,a0,0x3
   10d9c:	952e                	add	a0,a0,a1
   10d9e:	6114                	ld	a3,0(a0)
   10da0:	1541                	add	a0,a0,-16
   10da2:	00d51663          	bne	a0,a3,10dae <_free_r+0x104>
   10da6:	a0dd                	j	10e8c <_free_r+0x1e2>
   10da8:	6a94                	ld	a3,16(a3)
   10daa:	00d50663          	beq	a0,a3,10db6 <_free_r+0x10c>
   10dae:	6690                	ld	a2,8(a3)
   10db0:	9a71                	and	a2,a2,-4
   10db2:	fec7ebe3          	bltu	a5,a2,10da8 <_free_r+0xfe>
   10db6:	6e88                	ld	a0,24(a3)
   10db8:	ef08                	sd	a0,24(a4)
   10dba:	eb14                	sd	a3,16(a4)
   10dbc:	6442                	ld	s0,16(sp)
   10dbe:	e918                	sd	a4,16(a0)
   10dc0:	60e2                	ld	ra,24(sp)
   10dc2:	8526                	mv	a0,s1
   10dc4:	64a2                	ld	s1,8(sp)
   10dc6:	ee98                	sd	a4,24(a3)
   10dc8:	6105                	add	sp,sp,32
   10dca:	a725                	j	114f2 <__malloc_unlock>
   10dcc:	8082                	ret
   10dce:	656d                	lui	a0,0x1b
   10dd0:	97b6                	add	a5,a5,a3
   10dd2:	b4050513          	add	a0,a0,-1216 # 1ab40 <__malloc_av_+0x10>
   10dd6:	6a14                	ld	a3,16(a2)
   10dd8:	0aa68063          	beq	a3,a0,10e78 <_free_r+0x1ce>
   10ddc:	01863803          	ld	a6,24(a2)
   10de0:	0017e513          	or	a0,a5,1
   10de4:	00f70633          	add	a2,a4,a5
   10de8:	0106bc23          	sd	a6,24(a3)
   10dec:	00d83823          	sd	a3,16(a6)
   10df0:	e708                	sd	a0,8(a4)
   10df2:	e21c                	sd	a5,0(a2)
   10df4:	b73d                	j	10d22 <_free_r+0x78>
   10df6:	0e081763          	bnez	a6,10ee4 <_free_r+0x23a>
   10dfa:	6a0c                	ld	a1,16(a2)
   10dfc:	6e10                	ld	a2,24(a2)
   10dfe:	96be                	add	a3,a3,a5
   10e00:	0016e793          	or	a5,a3,1
   10e04:	ed90                	sd	a2,24(a1)
   10e06:	ea0c                	sd	a1,16(a2)
   10e08:	e71c                	sd	a5,8(a4)
   10e0a:	9736                	add	a4,a4,a3
   10e0c:	e314                	sd	a3,0(a4)
   10e0e:	b7b1                	j	10d5a <_free_r+0xb0>
   10e10:	8905                	and	a0,a0,1
   10e12:	96be                	add	a3,a3,a5
   10e14:	e909                	bnez	a0,10e26 <_free_r+0x17c>
   10e16:	ff043503          	ld	a0,-16(s0)
   10e1a:	8f09                	sub	a4,a4,a0
   10e1c:	6f1c                	ld	a5,24(a4)
   10e1e:	6b10                	ld	a2,16(a4)
   10e20:	96aa                	add	a3,a3,a0
   10e22:	ee1c                	sd	a5,24(a2)
   10e24:	eb90                	sd	a2,16(a5)
   10e26:	0016e613          	or	a2,a3,1
   10e2a:	2301b783          	ld	a5,560(gp) # 1b570 <__malloc_trim_threshold>
   10e2e:	e710                	sd	a2,8(a4)
   10e30:	e998                	sd	a4,16(a1)
   10e32:	f2f6e4e3          	bltu	a3,a5,10d5a <_free_r+0xb0>
   10e36:	2601b583          	ld	a1,608(gp) # 1b5a0 <__malloc_top_pad>
   10e3a:	8526                	mv	a0,s1
   10e3c:	da1ff0ef          	jal	10bdc <_malloc_trim_r>
   10e40:	bf29                	j	10d5a <_free_r+0xb0>
   10e42:	97b6                	add	a5,a5,a3
   10e44:	bf49                	j	10dd6 <_free_r+0x12c>
   10e46:	4651                	li	a2,20
   10e48:	02d67063          	bgeu	a2,a3,10e68 <_free_r+0x1be>
   10e4c:	05400613          	li	a2,84
   10e50:	04d66963          	bltu	a2,a3,10ea2 <_free_r+0x1f8>
   10e54:	00c7d693          	srl	a3,a5,0xc
   10e58:	06f6851b          	addw	a0,a3,111
   10e5c:	0015151b          	sllw	a0,a0,0x1
   10e60:	06e6861b          	addw	a2,a3,110
   10e64:	050e                	sll	a0,a0,0x3
   10e66:	bf1d                	j	10d9c <_free_r+0xf2>
   10e68:	05c6851b          	addw	a0,a3,92
   10e6c:	0015151b          	sllw	a0,a0,0x1
   10e70:	05b6861b          	addw	a2,a3,91
   10e74:	050e                	sll	a0,a0,0x3
   10e76:	b71d                	j	10d9c <_free_r+0xf2>
   10e78:	f598                	sd	a4,40(a1)
   10e7a:	f198                	sd	a4,32(a1)
   10e7c:	0017e693          	or	a3,a5,1
   10e80:	ef08                	sd	a0,24(a4)
   10e82:	eb08                	sd	a0,16(a4)
   10e84:	e714                	sd	a3,8(a4)
   10e86:	973e                	add	a4,a4,a5
   10e88:	e31c                	sd	a5,0(a4)
   10e8a:	bdc1                	j	10d5a <_free_r+0xb0>
   10e8c:	0085b803          	ld	a6,8(a1)
   10e90:	4026561b          	sraw	a2,a2,0x2
   10e94:	4785                	li	a5,1
   10e96:	00c797b3          	sll	a5,a5,a2
   10e9a:	0107e7b3          	or	a5,a5,a6
   10e9e:	e59c                	sd	a5,8(a1)
   10ea0:	bf21                	j	10db8 <_free_r+0x10e>
   10ea2:	15400613          	li	a2,340
   10ea6:	00d66c63          	bltu	a2,a3,10ebe <_free_r+0x214>
   10eaa:	00f7d693          	srl	a3,a5,0xf
   10eae:	0786851b          	addw	a0,a3,120
   10eb2:	0015151b          	sllw	a0,a0,0x1
   10eb6:	0776861b          	addw	a2,a3,119
   10eba:	050e                	sll	a0,a0,0x3
   10ebc:	b5c5                	j	10d9c <_free_r+0xf2>
   10ebe:	55400613          	li	a2,1364
   10ec2:	00d66c63          	bltu	a2,a3,10eda <_free_r+0x230>
   10ec6:	0127d693          	srl	a3,a5,0x12
   10eca:	07d6851b          	addw	a0,a3,125
   10ece:	0015151b          	sllw	a0,a0,0x1
   10ed2:	07c6861b          	addw	a2,a3,124
   10ed6:	050e                	sll	a0,a0,0x3
   10ed8:	b5d1                	j	10d9c <_free_r+0xf2>
   10eda:	7f000513          	li	a0,2032
   10ede:	07e00613          	li	a2,126
   10ee2:	bd6d                	j	10d9c <_free_r+0xf2>
   10ee4:	0017e693          	or	a3,a5,1
   10ee8:	e714                	sd	a3,8(a4)
   10eea:	e21c                	sd	a5,0(a2)
   10eec:	b5bd                	j	10d5a <_free_r+0xb0>

0000000000010eee <_malloc_r>:
   10eee:	711d                	add	sp,sp,-96
   10ef0:	e4a6                	sd	s1,72(sp)
   10ef2:	e0ca                	sd	s2,64(sp)
   10ef4:	ec86                	sd	ra,88(sp)
   10ef6:	e8a2                	sd	s0,80(sp)
   10ef8:	fc4e                	sd	s3,56(sp)
   10efa:	01758493          	add	s1,a1,23
   10efe:	02e00793          	li	a5,46
   10f02:	892a                	mv	s2,a0
   10f04:	0497ed63          	bltu	a5,s1,10f5e <_malloc_r+0x70>
   10f08:	02000793          	li	a5,32
   10f0c:	18b7e963          	bltu	a5,a1,1109e <_malloc_r+0x1b0>
   10f10:	5e0000ef          	jal	114f0 <__malloc_lock>
   10f14:	05000793          	li	a5,80
   10f18:	4591                	li	a1,4
   10f1a:	02000493          	li	s1,32
   10f1e:	69ed                	lui	s3,0x1b
   10f20:	b3098993          	add	s3,s3,-1232 # 1ab30 <__malloc_av_>
   10f24:	97ce                	add	a5,a5,s3
   10f26:	6780                	ld	s0,8(a5)
   10f28:	ff078713          	add	a4,a5,-16
   10f2c:	26e40d63          	beq	s0,a4,111a6 <_malloc_r+0x2b8>
   10f30:	641c                	ld	a5,8(s0)
   10f32:	6c14                	ld	a3,24(s0)
   10f34:	6810                	ld	a2,16(s0)
   10f36:	9bf1                	and	a5,a5,-4
   10f38:	97a2                	add	a5,a5,s0
   10f3a:	6798                	ld	a4,8(a5)
   10f3c:	ee14                	sd	a3,24(a2)
   10f3e:	ea90                	sd	a2,16(a3)
   10f40:	00176713          	or	a4,a4,1
   10f44:	854a                	mv	a0,s2
   10f46:	e798                	sd	a4,8(a5)
   10f48:	5aa000ef          	jal	114f2 <__malloc_unlock>
   10f4c:	01040513          	add	a0,s0,16
   10f50:	60e6                	ld	ra,88(sp)
   10f52:	6446                	ld	s0,80(sp)
   10f54:	64a6                	ld	s1,72(sp)
   10f56:	6906                	ld	s2,64(sp)
   10f58:	79e2                	ld	s3,56(sp)
   10f5a:	6125                	add	sp,sp,96
   10f5c:	8082                	ret
   10f5e:	800007b7          	lui	a5,0x80000
   10f62:	98c1                	and	s1,s1,-16
   10f64:	fff7c793          	not	a5,a5
   10f68:	1297eb63          	bltu	a5,s1,1109e <_malloc_r+0x1b0>
   10f6c:	12b4e963          	bltu	s1,a1,1109e <_malloc_r+0x1b0>
   10f70:	580000ef          	jal	114f0 <__malloc_lock>
   10f74:	1f700793          	li	a5,503
   10f78:	3297f263          	bgeu	a5,s1,1129c <_malloc_r+0x3ae>
   10f7c:	0094d793          	srl	a5,s1,0x9
   10f80:	12078463          	beqz	a5,110a8 <_malloc_r+0x1ba>
   10f84:	4711                	li	a4,4
   10f86:	26f76763          	bltu	a4,a5,111f4 <_malloc_r+0x306>
   10f8a:	0064d793          	srl	a5,s1,0x6
   10f8e:	0397859b          	addw	a1,a5,57 # ffffffff80000039 <__BSS_END__+0xffffffff7ffe44f9>
   10f92:	0015961b          	sllw	a2,a1,0x1
   10f96:	0387881b          	addw	a6,a5,56
   10f9a:	060e                	sll	a2,a2,0x3
   10f9c:	69ed                	lui	s3,0x1b
   10f9e:	b3098993          	add	s3,s3,-1232 # 1ab30 <__malloc_av_>
   10fa2:	964e                	add	a2,a2,s3
   10fa4:	6600                	ld	s0,8(a2)
   10fa6:	1641                	add	a2,a2,-16
   10fa8:	02860163          	beq	a2,s0,10fca <_malloc_r+0xdc>
   10fac:	457d                	li	a0,31
   10fae:	a039                	j	10fbc <_malloc_r+0xce>
   10fb0:	6c14                	ld	a3,24(s0)
   10fb2:	1e075863          	bgez	a4,111a2 <_malloc_r+0x2b4>
   10fb6:	00d60a63          	beq	a2,a3,10fca <_malloc_r+0xdc>
   10fba:	8436                	mv	s0,a3
   10fbc:	641c                	ld	a5,8(s0)
   10fbe:	9bf1                	and	a5,a5,-4
   10fc0:	40978733          	sub	a4,a5,s1
   10fc4:	fee556e3          	bge	a0,a4,10fb0 <_malloc_r+0xc2>
   10fc8:	85c2                	mv	a1,a6
   10fca:	0209b403          	ld	s0,32(s3)
   10fce:	686d                	lui	a6,0x1b
   10fd0:	b4080813          	add	a6,a6,-1216 # 1ab40 <__malloc_av_+0x10>
   10fd4:	1d040463          	beq	s0,a6,1119c <_malloc_r+0x2ae>
   10fd8:	641c                	ld	a5,8(s0)
   10fda:	46fd                	li	a3,31
   10fdc:	9bf1                	and	a5,a5,-4
   10fde:	40978733          	sub	a4,a5,s1
   10fe2:	28e6c663          	blt	a3,a4,1126e <_malloc_r+0x380>
   10fe6:	0309b423          	sd	a6,40(s3)
   10fea:	0309b023          	sd	a6,32(s3)
   10fee:	26075563          	bgez	a4,11258 <_malloc_r+0x36a>
   10ff2:	1ff00713          	li	a4,511
   10ff6:	0089b503          	ld	a0,8(s3)
   10ffa:	1af76b63          	bltu	a4,a5,111b0 <_malloc_r+0x2c2>
   10ffe:	838d                	srl	a5,a5,0x3
   11000:	0017871b          	addw	a4,a5,1
   11004:	0017171b          	sllw	a4,a4,0x1
   11008:	070e                	sll	a4,a4,0x3
   1100a:	974e                	add	a4,a4,s3
   1100c:	6310                	ld	a2,0(a4)
   1100e:	4027d79b          	sraw	a5,a5,0x2
   11012:	4685                	li	a3,1
   11014:	00f697b3          	sll	a5,a3,a5
   11018:	8d5d                	or	a0,a0,a5
   1101a:	ff070793          	add	a5,a4,-16
   1101e:	ec1c                	sd	a5,24(s0)
   11020:	e810                	sd	a2,16(s0)
   11022:	00a9b423          	sd	a0,8(s3)
   11026:	e300                	sd	s0,0(a4)
   11028:	ee00                	sd	s0,24(a2)
   1102a:	4025d79b          	sraw	a5,a1,0x2
   1102e:	4605                	li	a2,1
   11030:	00f61633          	sll	a2,a2,a5
   11034:	08c56163          	bltu	a0,a2,110b6 <_malloc_r+0x1c8>
   11038:	00a677b3          	and	a5,a2,a0
   1103c:	ef81                	bnez	a5,11054 <_malloc_r+0x166>
   1103e:	0606                	sll	a2,a2,0x1
   11040:	99f1                	and	a1,a1,-4
   11042:	00a677b3          	and	a5,a2,a0
   11046:	2591                	addw	a1,a1,4
   11048:	e791                	bnez	a5,11054 <_malloc_r+0x166>
   1104a:	0606                	sll	a2,a2,0x1
   1104c:	00a677b3          	and	a5,a2,a0
   11050:	2591                	addw	a1,a1,4
   11052:	dfe5                	beqz	a5,1104a <_malloc_r+0x15c>
   11054:	48fd                	li	a7,31
   11056:	0015831b          	addw	t1,a1,1
   1105a:	0013131b          	sllw	t1,t1,0x1
   1105e:	030e                	sll	t1,t1,0x3
   11060:	1341                	add	t1,t1,-16
   11062:	934e                	add	t1,t1,s3
   11064:	851a                	mv	a0,t1
   11066:	6d1c                	ld	a5,24(a0)
   11068:	8e2e                	mv	t3,a1
   1106a:	1af50663          	beq	a0,a5,11216 <_malloc_r+0x328>
   1106e:	6798                	ld	a4,8(a5)
   11070:	843e                	mv	s0,a5
   11072:	6f9c                	ld	a5,24(a5)
   11074:	9b71                	and	a4,a4,-4
   11076:	409706b3          	sub	a3,a4,s1
   1107a:	1ad8c563          	blt	a7,a3,11224 <_malloc_r+0x336>
   1107e:	fe06c6e3          	bltz	a3,1106a <_malloc_r+0x17c>
   11082:	9722                	add	a4,a4,s0
   11084:	6714                	ld	a3,8(a4)
   11086:	6810                	ld	a2,16(s0)
   11088:	854a                	mv	a0,s2
   1108a:	0016e693          	or	a3,a3,1
   1108e:	e714                	sd	a3,8(a4)
   11090:	ee1c                	sd	a5,24(a2)
   11092:	eb90                	sd	a2,16(a5)
   11094:	45e000ef          	jal	114f2 <__malloc_unlock>
   11098:	01040513          	add	a0,s0,16
   1109c:	bd55                	j	10f50 <_malloc_r+0x62>
   1109e:	47b1                	li	a5,12
   110a0:	00f92023          	sw	a5,0(s2)
   110a4:	4501                	li	a0,0
   110a6:	b56d                	j	10f50 <_malloc_r+0x62>
   110a8:	40000613          	li	a2,1024
   110ac:	04000593          	li	a1,64
   110b0:	03f00813          	li	a6,63
   110b4:	b5e5                	j	10f9c <_malloc_r+0xae>
   110b6:	0109b403          	ld	s0,16(s3)
   110ba:	f456                	sd	s5,40(sp)
   110bc:	641c                	ld	a5,8(s0)
   110be:	ffc7fa93          	and	s5,a5,-4
   110c2:	009ae763          	bltu	s5,s1,110d0 <_malloc_r+0x1e2>
   110c6:	409a8733          	sub	a4,s5,s1
   110ca:	47fd                	li	a5,31
   110cc:	0ae7c263          	blt	a5,a4,11170 <_malloc_r+0x282>
   110d0:	e466                	sd	s9,8(sp)
   110d2:	f852                	sd	s4,48(sp)
   110d4:	2281b703          	ld	a4,552(gp) # 1b568 <__malloc_sbrk_base>
   110d8:	2601ba03          	ld	s4,608(gp) # 1b5a0 <__malloc_top_pad>
   110dc:	e862                	sd	s8,16(sp)
   110de:	f05a                	sd	s6,32(sp)
   110e0:	57fd                	li	a5,-1
   110e2:	01540c33          	add	s8,s0,s5
   110e6:	9a26                	add	s4,s4,s1
   110e8:	2ef70863          	beq	a4,a5,113d8 <_malloc_r+0x4ea>
   110ec:	6785                	lui	a5,0x1
   110ee:	07fd                	add	a5,a5,31 # 101f <exit-0xf0c9>
   110f0:	9a3e                	add	s4,s4,a5
   110f2:	77fd                	lui	a5,0xfffff
   110f4:	00fa7a33          	and	s4,s4,a5
   110f8:	85d2                	mv	a1,s4
   110fa:	854a                	mv	a0,s2
   110fc:	1ff030ef          	jal	14afa <_sbrk_r>
   11100:	57fd                	li	a5,-1
   11102:	8b2a                	mv	s6,a0
   11104:	36f50063          	beq	a0,a5,11464 <_malloc_r+0x576>
   11108:	ec5e                	sd	s7,24(sp)
   1110a:	1b856c63          	bltu	a0,s8,112c2 <_malloc_r+0x3d4>
   1110e:	4c018b93          	add	s7,gp,1216 # 1b800 <__malloc_current_mallinfo>
   11112:	000ba783          	lw	a5,0(s7)
   11116:	0147873b          	addw	a4,a5,s4
   1111a:	00eba023          	sw	a4,0(s7)
   1111e:	86ba                	mv	a3,a4
   11120:	20ac1763          	bne	s8,a0,1132e <_malloc_r+0x440>
   11124:	03451793          	sll	a5,a0,0x34
   11128:	20079363          	bnez	a5,1132e <_malloc_r+0x440>
   1112c:	0109bb03          	ld	s6,16(s3)
   11130:	014a87b3          	add	a5,s5,s4
   11134:	0017e793          	or	a5,a5,1
   11138:	00fb3423          	sd	a5,8(s6)
   1113c:	2581b603          	ld	a2,600(gp) # 1b598 <__malloc_max_sbrked_mem>
   11140:	00e67463          	bgeu	a2,a4,11148 <_malloc_r+0x25a>
   11144:	24e1bc23          	sd	a4,600(gp) # 1b598 <__malloc_max_sbrked_mem>
   11148:	2501b603          	ld	a2,592(gp) # 1b590 <__malloc_max_total_mem>
   1114c:	00e67463          	bgeu	a2,a4,11154 <_malloc_r+0x266>
   11150:	24e1b823          	sd	a4,592(gp) # 1b590 <__malloc_max_total_mem>
   11154:	6be2                	ld	s7,24(sp)
   11156:	845a                	mv	s0,s6
   11158:	9bf1                	and	a5,a5,-4
   1115a:	40978733          	sub	a4,a5,s1
   1115e:	2a97ed63          	bltu	a5,s1,11418 <_malloc_r+0x52a>
   11162:	47fd                	li	a5,31
   11164:	2ae7da63          	bge	a5,a4,11418 <_malloc_r+0x52a>
   11168:	7a42                	ld	s4,48(sp)
   1116a:	7b02                	ld	s6,32(sp)
   1116c:	6c42                	ld	s8,16(sp)
   1116e:	6ca2                	ld	s9,8(sp)
   11170:	0014e793          	or	a5,s1,1
   11174:	e41c                	sd	a5,8(s0)
   11176:	94a2                	add	s1,s1,s0
   11178:	0099b823          	sd	s1,16(s3)
   1117c:	00176713          	or	a4,a4,1
   11180:	854a                	mv	a0,s2
   11182:	e498                	sd	a4,8(s1)
   11184:	36e000ef          	jal	114f2 <__malloc_unlock>
   11188:	60e6                	ld	ra,88(sp)
   1118a:	01040513          	add	a0,s0,16
   1118e:	6446                	ld	s0,80(sp)
   11190:	7aa2                	ld	s5,40(sp)
   11192:	64a6                	ld	s1,72(sp)
   11194:	6906                	ld	s2,64(sp)
   11196:	79e2                	ld	s3,56(sp)
   11198:	6125                	add	sp,sp,96
   1119a:	8082                	ret
   1119c:	0089b503          	ld	a0,8(s3)
   111a0:	b569                	j	1102a <_malloc_r+0x13c>
   111a2:	6810                	ld	a2,16(s0)
   111a4:	bb51                	j	10f38 <_malloc_r+0x4a>
   111a6:	6f80                	ld	s0,24(a5)
   111a8:	2589                	addw	a1,a1,2
   111aa:	e28780e3          	beq	a5,s0,10fca <_malloc_r+0xdc>
   111ae:	b349                	j	10f30 <_malloc_r+0x42>
   111b0:	0097d713          	srl	a4,a5,0x9
   111b4:	4691                	li	a3,4
   111b6:	0ee6fc63          	bgeu	a3,a4,112ae <_malloc_r+0x3c0>
   111ba:	46d1                	li	a3,20
   111bc:	26e6e863          	bltu	a3,a4,1142c <_malloc_r+0x53e>
   111c0:	05c7061b          	addw	a2,a4,92
   111c4:	0016161b          	sllw	a2,a2,0x1
   111c8:	05b7069b          	addw	a3,a4,91
   111cc:	060e                	sll	a2,a2,0x3
   111ce:	964e                	add	a2,a2,s3
   111d0:	6218                	ld	a4,0(a2)
   111d2:	1641                	add	a2,a2,-16
   111d4:	00e61663          	bne	a2,a4,111e0 <_malloc_r+0x2f2>
   111d8:	a419                	j	113de <_malloc_r+0x4f0>
   111da:	6b18                	ld	a4,16(a4)
   111dc:	00e60663          	beq	a2,a4,111e8 <_malloc_r+0x2fa>
   111e0:	6714                	ld	a3,8(a4)
   111e2:	9af1                	and	a3,a3,-4
   111e4:	fed7ebe3          	bltu	a5,a3,111da <_malloc_r+0x2ec>
   111e8:	6f10                	ld	a2,24(a4)
   111ea:	ec10                	sd	a2,24(s0)
   111ec:	e818                	sd	a4,16(s0)
   111ee:	ea00                	sd	s0,16(a2)
   111f0:	ef00                	sd	s0,24(a4)
   111f2:	bd25                	j	1102a <_malloc_r+0x13c>
   111f4:	4751                	li	a4,20
   111f6:	0cf77d63          	bgeu	a4,a5,112d0 <_malloc_r+0x3e2>
   111fa:	05400713          	li	a4,84
   111fe:	24f76563          	bltu	a4,a5,11448 <_malloc_r+0x55a>
   11202:	00c4d793          	srl	a5,s1,0xc
   11206:	06f7859b          	addw	a1,a5,111 # fffffffffffff06f <__BSS_END__+0xfffffffffffe352f>
   1120a:	0015961b          	sllw	a2,a1,0x1
   1120e:	06e7881b          	addw	a6,a5,110
   11212:	060e                	sll	a2,a2,0x3
   11214:	b361                	j	10f9c <_malloc_r+0xae>
   11216:	2e05                	addw	t3,t3,1
   11218:	003e7793          	and	a5,t3,3
   1121c:	0541                	add	a0,a0,16
   1121e:	c7f1                	beqz	a5,112ea <_malloc_r+0x3fc>
   11220:	6d1c                	ld	a5,24(a0)
   11222:	b5a1                	j	1106a <_malloc_r+0x17c>
   11224:	6810                	ld	a2,16(s0)
   11226:	0014e593          	or	a1,s1,1
   1122a:	e40c                	sd	a1,8(s0)
   1122c:	ee1c                	sd	a5,24(a2)
   1122e:	eb90                	sd	a2,16(a5)
   11230:	94a2                	add	s1,s1,s0
   11232:	0299b423          	sd	s1,40(s3)
   11236:	0299b023          	sd	s1,32(s3)
   1123a:	0016e793          	or	a5,a3,1
   1123e:	0104bc23          	sd	a6,24(s1)
   11242:	0104b823          	sd	a6,16(s1)
   11246:	e49c                	sd	a5,8(s1)
   11248:	9722                	add	a4,a4,s0
   1124a:	854a                	mv	a0,s2
   1124c:	e314                	sd	a3,0(a4)
   1124e:	2a4000ef          	jal	114f2 <__malloc_unlock>
   11252:	01040513          	add	a0,s0,16
   11256:	b9ed                	j	10f50 <_malloc_r+0x62>
   11258:	97a2                	add	a5,a5,s0
   1125a:	6798                	ld	a4,8(a5)
   1125c:	854a                	mv	a0,s2
   1125e:	00176713          	or	a4,a4,1
   11262:	e798                	sd	a4,8(a5)
   11264:	28e000ef          	jal	114f2 <__malloc_unlock>
   11268:	01040513          	add	a0,s0,16
   1126c:	b1d5                	j	10f50 <_malloc_r+0x62>
   1126e:	0014e693          	or	a3,s1,1
   11272:	e414                	sd	a3,8(s0)
   11274:	94a2                	add	s1,s1,s0
   11276:	0299b423          	sd	s1,40(s3)
   1127a:	0299b023          	sd	s1,32(s3)
   1127e:	00176693          	or	a3,a4,1
   11282:	0104bc23          	sd	a6,24(s1)
   11286:	0104b823          	sd	a6,16(s1)
   1128a:	e494                	sd	a3,8(s1)
   1128c:	97a2                	add	a5,a5,s0
   1128e:	854a                	mv	a0,s2
   11290:	e398                	sd	a4,0(a5)
   11292:	260000ef          	jal	114f2 <__malloc_unlock>
   11296:	01040513          	add	a0,s0,16
   1129a:	b95d                	j	10f50 <_malloc_r+0x62>
   1129c:	0034d593          	srl	a1,s1,0x3
   112a0:	0015879b          	addw	a5,a1,1
   112a4:	0017979b          	sllw	a5,a5,0x1
   112a8:	2581                	sext.w	a1,a1
   112aa:	078e                	sll	a5,a5,0x3
   112ac:	b98d                	j	10f1e <_malloc_r+0x30>
   112ae:	0067d713          	srl	a4,a5,0x6
   112b2:	0397061b          	addw	a2,a4,57
   112b6:	0016161b          	sllw	a2,a2,0x1
   112ba:	0387069b          	addw	a3,a4,56
   112be:	060e                	sll	a2,a2,0x3
   112c0:	b739                	j	111ce <_malloc_r+0x2e0>
   112c2:	05340e63          	beq	s0,s3,1131e <_malloc_r+0x430>
   112c6:	0109b403          	ld	s0,16(s3)
   112ca:	6be2                	ld	s7,24(sp)
   112cc:	641c                	ld	a5,8(s0)
   112ce:	b569                	j	11158 <_malloc_r+0x26a>
   112d0:	05c7859b          	addw	a1,a5,92
   112d4:	0015961b          	sllw	a2,a1,0x1
   112d8:	05b7881b          	addw	a6,a5,91
   112dc:	060e                	sll	a2,a2,0x3
   112de:	b97d                	j	10f9c <_malloc_r+0xae>
   112e0:	01033783          	ld	a5,16(t1)
   112e4:	35fd                	addw	a1,a1,-1
   112e6:	20679263          	bne	a5,t1,114ea <_malloc_r+0x5fc>
   112ea:	0035f793          	and	a5,a1,3
   112ee:	1341                	add	t1,t1,-16
   112f0:	fbe5                	bnez	a5,112e0 <_malloc_r+0x3f2>
   112f2:	0089b703          	ld	a4,8(s3)
   112f6:	fff64793          	not	a5,a2
   112fa:	8ff9                	and	a5,a5,a4
   112fc:	00f9b423          	sd	a5,8(s3)
   11300:	0606                	sll	a2,a2,0x1
   11302:	dac7eae3          	bltu	a5,a2,110b6 <_malloc_r+0x1c8>
   11306:	da0608e3          	beqz	a2,110b6 <_malloc_r+0x1c8>
   1130a:	00f67733          	and	a4,a2,a5
   1130e:	e711                	bnez	a4,1131a <_malloc_r+0x42c>
   11310:	0606                	sll	a2,a2,0x1
   11312:	00f67733          	and	a4,a2,a5
   11316:	2e11                	addw	t3,t3,4
   11318:	df65                	beqz	a4,11310 <_malloc_r+0x422>
   1131a:	85f2                	mv	a1,t3
   1131c:	bb2d                	j	11056 <_malloc_r+0x168>
   1131e:	4c018b93          	add	s7,gp,1216 # 1b800 <__malloc_current_mallinfo>
   11322:	000ba783          	lw	a5,0(s7)
   11326:	014786bb          	addw	a3,a5,s4
   1132a:	00dba023          	sw	a3,0(s7)
   1132e:	2281b703          	ld	a4,552(gp) # 1b568 <__malloc_sbrk_base>
   11332:	57fd                	li	a5,-1
   11334:	12f70c63          	beq	a4,a5,1146c <_malloc_r+0x57e>
   11338:	418b07b3          	sub	a5,s6,s8
   1133c:	9fb5                	addw	a5,a5,a3
   1133e:	00fba023          	sw	a5,0(s7)
   11342:	00fb7c93          	and	s9,s6,15
   11346:	0a0c8563          	beqz	s9,113f0 <_malloc_r+0x502>
   1134a:	419b0b33          	sub	s6,s6,s9
   1134e:	6705                	lui	a4,0x1
   11350:	0741                	add	a4,a4,16 # 1010 <exit-0xf0d8>
   11352:	0b41                	add	s6,s6,16
   11354:	41970c33          	sub	s8,a4,s9
   11358:	9a5a                	add	s4,s4,s6
   1135a:	414c0c33          	sub	s8,s8,s4
   1135e:	1c52                	sll	s8,s8,0x34
   11360:	034c5c13          	srl	s8,s8,0x34
   11364:	85e2                	mv	a1,s8
   11366:	854a                	mv	a0,s2
   11368:	792030ef          	jal	14afa <_sbrk_r>
   1136c:	57fd                	li	a5,-1
   1136e:	12f50e63          	beq	a0,a5,114aa <_malloc_r+0x5bc>
   11372:	41650533          	sub	a0,a0,s6
   11376:	000c069b          	sext.w	a3,s8
   1137a:	01850a33          	add	s4,a0,s8
   1137e:	000ba703          	lw	a4,0(s7)
   11382:	0169b823          	sd	s6,16(s3)
   11386:	001a6793          	or	a5,s4,1
   1138a:	9f35                	addw	a4,a4,a3
   1138c:	00eba023          	sw	a4,0(s7)
   11390:	00fb3423          	sd	a5,8(s6)
   11394:	db3404e3          	beq	s0,s3,1113c <_malloc_r+0x24e>
   11398:	467d                	li	a2,31
   1139a:	07567b63          	bgeu	a2,s5,11410 <_malloc_r+0x522>
   1139e:	6414                	ld	a3,8(s0)
   113a0:	fe8a8793          	add	a5,s5,-24
   113a4:	9bc1                	and	a5,a5,-16
   113a6:	8a85                	and	a3,a3,1
   113a8:	8edd                	or	a3,a3,a5
   113aa:	e414                	sd	a3,8(s0)
   113ac:	45a5                	li	a1,9
   113ae:	00f406b3          	add	a3,s0,a5
   113b2:	e68c                	sd	a1,8(a3)
   113b4:	ea8c                	sd	a1,16(a3)
   113b6:	00f66563          	bltu	a2,a5,113c0 <_malloc_r+0x4d2>
   113ba:	008b3783          	ld	a5,8(s6)
   113be:	bbbd                	j	1113c <_malloc_r+0x24e>
   113c0:	01040593          	add	a1,s0,16
   113c4:	854a                	mv	a0,s2
   113c6:	8e5ff0ef          	jal	10caa <_free_r>
   113ca:	0109bb03          	ld	s6,16(s3)
   113ce:	000ba703          	lw	a4,0(s7)
   113d2:	008b3783          	ld	a5,8(s6)
   113d6:	b39d                	j	1113c <_malloc_r+0x24e>
   113d8:	020a0a13          	add	s4,s4,32
   113dc:	bb31                	j	110f8 <_malloc_r+0x20a>
   113de:	4026d69b          	sraw	a3,a3,0x2
   113e2:	4785                	li	a5,1
   113e4:	00d797b3          	sll	a5,a5,a3
   113e8:	8d5d                	or	a0,a0,a5
   113ea:	00a9b423          	sd	a0,8(s3)
   113ee:	bbf5                	j	111ea <_malloc_r+0x2fc>
   113f0:	014b0c33          	add	s8,s6,s4
   113f4:	41800c33          	neg	s8,s8
   113f8:	1c52                	sll	s8,s8,0x34
   113fa:	034c5c13          	srl	s8,s8,0x34
   113fe:	85e2                	mv	a1,s8
   11400:	854a                	mv	a0,s2
   11402:	6f8030ef          	jal	14afa <_sbrk_r>
   11406:	57fd                	li	a5,-1
   11408:	4681                	li	a3,0
   1140a:	f6f514e3          	bne	a0,a5,11372 <_malloc_r+0x484>
   1140e:	bf85                	j	1137e <_malloc_r+0x490>
   11410:	6be2                	ld	s7,24(sp)
   11412:	4785                	li	a5,1
   11414:	00fb3423          	sd	a5,8(s6)
   11418:	854a                	mv	a0,s2
   1141a:	0d8000ef          	jal	114f2 <__malloc_unlock>
   1141e:	4501                	li	a0,0
   11420:	7a42                	ld	s4,48(sp)
   11422:	7aa2                	ld	s5,40(sp)
   11424:	7b02                	ld	s6,32(sp)
   11426:	6c42                	ld	s8,16(sp)
   11428:	6ca2                	ld	s9,8(sp)
   1142a:	b61d                	j	10f50 <_malloc_r+0x62>
   1142c:	05400693          	li	a3,84
   11430:	04e6e163          	bltu	a3,a4,11472 <_malloc_r+0x584>
   11434:	00c7d713          	srl	a4,a5,0xc
   11438:	06f7061b          	addw	a2,a4,111
   1143c:	0016161b          	sllw	a2,a2,0x1
   11440:	06e7069b          	addw	a3,a4,110
   11444:	060e                	sll	a2,a2,0x3
   11446:	b361                	j	111ce <_malloc_r+0x2e0>
   11448:	15400713          	li	a4,340
   1144c:	04f76163          	bltu	a4,a5,1148e <_malloc_r+0x5a0>
   11450:	00f4d793          	srl	a5,s1,0xf
   11454:	0787859b          	addw	a1,a5,120
   11458:	0015961b          	sllw	a2,a1,0x1
   1145c:	0777881b          	addw	a6,a5,119
   11460:	060e                	sll	a2,a2,0x3
   11462:	be2d                	j	10f9c <_malloc_r+0xae>
   11464:	0109b403          	ld	s0,16(s3)
   11468:	641c                	ld	a5,8(s0)
   1146a:	b1fd                	j	11158 <_malloc_r+0x26a>
   1146c:	2361b423          	sd	s6,552(gp) # 1b568 <__malloc_sbrk_base>
   11470:	bdc9                	j	11342 <_malloc_r+0x454>
   11472:	15400693          	li	a3,340
   11476:	04e6e063          	bltu	a3,a4,114b6 <_malloc_r+0x5c8>
   1147a:	00f7d713          	srl	a4,a5,0xf
   1147e:	0787061b          	addw	a2,a4,120
   11482:	0016161b          	sllw	a2,a2,0x1
   11486:	0777069b          	addw	a3,a4,119
   1148a:	060e                	sll	a2,a2,0x3
   1148c:	b389                	j	111ce <_malloc_r+0x2e0>
   1148e:	55400713          	li	a4,1364
   11492:	04f76063          	bltu	a4,a5,114d2 <_malloc_r+0x5e4>
   11496:	0124d793          	srl	a5,s1,0x12
   1149a:	07d7859b          	addw	a1,a5,125
   1149e:	0015961b          	sllw	a2,a1,0x1
   114a2:	07c7881b          	addw	a6,a5,124
   114a6:	060e                	sll	a2,a2,0x3
   114a8:	bcd5                	j	10f9c <_malloc_r+0xae>
   114aa:	1cc1                	add	s9,s9,-16
   114ac:	9a66                	add	s4,s4,s9
   114ae:	416a0a33          	sub	s4,s4,s6
   114b2:	4681                	li	a3,0
   114b4:	b5e9                	j	1137e <_malloc_r+0x490>
   114b6:	55400693          	li	a3,1364
   114ba:	02e6e363          	bltu	a3,a4,114e0 <_malloc_r+0x5f2>
   114be:	0127d713          	srl	a4,a5,0x12
   114c2:	07d7061b          	addw	a2,a4,125
   114c6:	0016161b          	sllw	a2,a2,0x1
   114ca:	07c7069b          	addw	a3,a4,124
   114ce:	060e                	sll	a2,a2,0x3
   114d0:	b9fd                	j	111ce <_malloc_r+0x2e0>
   114d2:	7f000613          	li	a2,2032
   114d6:	07f00593          	li	a1,127
   114da:	07e00813          	li	a6,126
   114de:	bc7d                	j	10f9c <_malloc_r+0xae>
   114e0:	7f000613          	li	a2,2032
   114e4:	07e00693          	li	a3,126
   114e8:	b1dd                	j	111ce <_malloc_r+0x2e0>
   114ea:	0089b783          	ld	a5,8(s3)
   114ee:	bd09                	j	11300 <_malloc_r+0x412>

00000000000114f0 <__malloc_lock>:
   114f0:	8082                	ret

00000000000114f2 <__malloc_unlock>:
   114f2:	8082                	ret

00000000000114f4 <_vfprintf_r>:
   114f4:	db010113          	add	sp,sp,-592
   114f8:	24113423          	sd	ra,584(sp)
   114fc:	24813023          	sd	s0,576(sp)
   11500:	23213823          	sd	s2,560(sp)
   11504:	ffe6                	sd	s9,504(sp)
   11506:	892e                	mv	s2,a1
   11508:	8cb2                	mv	s9,a2
   1150a:	f036                	sd	a3,32(sp)
   1150c:	842a                	mv	s0,a0
   1150e:	e42a                	sd	a0,8(sp)
   11510:	5de030ef          	jal	14aee <_localeconv_r>
   11514:	611c                	ld	a5,0(a0)
   11516:	853e                	mv	a0,a5
   11518:	ecbe                	sd	a5,88(sp)
   1151a:	063030ef          	jal	14d7c <strlen>
   1151e:	e8aa                	sd	a0,80(sp)
   11520:	e982                	sd	zero,208(sp)
   11522:	ed82                	sd	zero,216(sp)
   11524:	c409                	beqz	s0,1152e <_vfprintf_r+0x3a>
   11526:	6438                	ld	a4,72(s0)
   11528:	e319                	bnez	a4,1152e <_vfprintf_r+0x3a>
   1152a:	21c0106f          	j	12746 <_vfprintf_r+0x1252>
   1152e:	01091703          	lh	a4,16(s2)
   11532:	03271693          	sll	a3,a4,0x32
   11536:	0206c163          	bltz	a3,11558 <_vfprintf_r+0x64>
   1153a:	0ac92683          	lw	a3,172(s2)
   1153e:	6589                	lui	a1,0x2
   11540:	7679                	lui	a2,0xffffe
   11542:	8f4d                	or	a4,a4,a1
   11544:	167d                	add	a2,a2,-1 # ffffffffffffdfff <__BSS_END__+0xfffffffffffe24bf>
   11546:	0107171b          	sllw	a4,a4,0x10
   1154a:	4107571b          	sraw	a4,a4,0x10
   1154e:	8ef1                	and	a3,a3,a2
   11550:	00e91823          	sh	a4,16(s2)
   11554:	0ad92623          	sw	a3,172(s2)
   11558:	00877693          	and	a3,a4,8
   1155c:	24068e63          	beqz	a3,117b8 <_vfprintf_r+0x2c4>
   11560:	01893683          	ld	a3,24(s2)
   11564:	24068a63          	beqz	a3,117b8 <_vfprintf_r+0x2c4>
   11568:	8b69                	and	a4,a4,26
   1156a:	46a9                	li	a3,10
   1156c:	26d70363          	beq	a4,a3,117d2 <_vfprintf_r+0x2de>
   11570:	23413023          	sd	s4,544(sp)
   11574:	21513c23          	sd	s5,536(sp)
   11578:	fbea                	sd	s10,496(sp)
   1157a:	6765                	lui	a4,0x19
   1157c:	22913c23          	sd	s1,568(sp)
   11580:	23313423          	sd	s3,552(sp)
   11584:	21613823          	sd	s6,528(sp)
   11588:	21713423          	sd	s7,520(sp)
   1158c:	21813023          	sd	s8,512(sp)
   11590:	f7ee                	sd	s11,488(sp)
   11592:	8d66                	mv	s10,s9
   11594:	33870793          	add	a5,a4,824 # 19338 <__clzdi2+0x196>
   11598:	000d4703          	lbu	a4,0(s10)
   1159c:	16010a13          	add	s4,sp,352
   115a0:	6ae5                	lui	s5,0x19
   115a2:	f1d2                	sd	s4,224(sp)
   115a4:	f982                	sd	zero,240(sp)
   115a6:	d582                	sw	zero,232(sp)
   115a8:	fc02                	sd	zero,56(sp)
   115aa:	f082                	sd	zero,96(sp)
   115ac:	f882                	sd	zero,112(sp)
   115ae:	e102                	sd	zero,128(sp)
   115b0:	e502                	sd	zero,136(sp)
   115b2:	fc82                	sd	zero,120(sp)
   115b4:	e802                	sd	zero,16(sp)
   115b6:	f43e                	sd	a5,40(sp)
   115b8:	8452                	mv	s0,s4
   115ba:	4a8a8a93          	add	s5,s5,1192 # 194a8 <zeroes.0>
   115be:	1a070163          	beqz	a4,11760 <_vfprintf_r+0x26c>
   115c2:	89ea                	mv	s3,s10
   115c4:	02500693          	li	a3,37
   115c8:	2cd70d63          	beq	a4,a3,118a2 <_vfprintf_r+0x3ae>
   115cc:	0019c703          	lbu	a4,1(s3)
   115d0:	0985                	add	s3,s3,1
   115d2:	fb7d                	bnez	a4,115c8 <_vfprintf_r+0xd4>
   115d4:	41a984bb          	subw	s1,s3,s10
   115d8:	18048463          	beqz	s1,11760 <_vfprintf_r+0x26c>
   115dc:	572e                	lw	a4,232(sp)
   115de:	76ce                	ld	a3,240(sp)
   115e0:	01a43023          	sd	s10,0(s0)
   115e4:	2705                	addw	a4,a4,1
   115e6:	96a6                	add	a3,a3,s1
   115e8:	e404                	sd	s1,8(s0)
   115ea:	f9b6                	sd	a3,240(sp)
   115ec:	d5ba                	sw	a4,232(sp)
   115ee:	0007069b          	sext.w	a3,a4
   115f2:	471d                	li	a4,7
   115f4:	0441                	add	s0,s0,16
   115f6:	2ad74d63          	blt	a4,a3,118b0 <_vfprintf_r+0x3bc>
   115fa:	67c2                	ld	a5,16(sp)
   115fc:	0009c703          	lbu	a4,0(s3)
   11600:	9fa5                	addw	a5,a5,s1
   11602:	e83e                	sd	a5,16(sp)
   11604:	14070e63          	beqz	a4,11760 <_vfprintf_r+0x26c>
   11608:	0019c303          	lbu	t1,1(s3)
   1160c:	0a0107a3          	sb	zero,175(sp)
   11610:	0985                	add	s3,s3,1
   11612:	5b7d                	li	s6,-1
   11614:	4b81                	li	s7,0
   11616:	4d81                	li	s11,0
   11618:	05a00493          	li	s1,90
   1161c:	0985                	add	s3,s3,1
   1161e:	2301                	sext.w	t1,t1
   11620:	fe03079b          	addw	a5,t1,-32
   11624:	0007871b          	sext.w	a4,a5
   11628:	04e4e563          	bltu	s1,a4,11672 <_vfprintf_r+0x17e>
   1162c:	02079713          	sll	a4,a5,0x20
   11630:	01e75793          	srl	a5,a4,0x1e
   11634:	7722                	ld	a4,40(sp)
   11636:	97ba                	add	a5,a5,a4
   11638:	439c                	lw	a5,0(a5)
   1163a:	8782                	jr	a5
   1163c:	4b81                	li	s7,0
   1163e:	46a5                	li	a3,9
   11640:	0009c703          	lbu	a4,0(s3)
   11644:	002b979b          	sllw	a5,s7,0x2
   11648:	01778bbb          	addw	s7,a5,s7
   1164c:	fd03031b          	addw	t1,t1,-48
   11650:	001b9b9b          	sllw	s7,s7,0x1
   11654:	fd07079b          	addw	a5,a4,-48
   11658:	01730bbb          	addw	s7,t1,s7
   1165c:	0985                	add	s3,s3,1
   1165e:	0007031b          	sext.w	t1,a4
   11662:	fcf6ffe3          	bgeu	a3,a5,11640 <_vfprintf_r+0x14c>
   11666:	fe03079b          	addw	a5,t1,-32
   1166a:	0007871b          	sext.w	a4,a5
   1166e:	fae4ffe3          	bgeu	s1,a4,1162c <_vfprintf_r+0x138>
   11672:	0e030763          	beqz	t1,11760 <_vfprintf_r+0x26c>
   11676:	0e610c23          	sb	t1,248(sp)
   1167a:	0a0107a3          	sb	zero,175(sp)
   1167e:	4c05                	li	s8,1
   11680:	4685                	li	a3,1
   11682:	0f810d13          	add	s10,sp,248
   11686:	ec02                	sd	zero,24(sp)
   11688:	4b01                	li	s6,0
   1168a:	e482                	sd	zero,72(sp)
   1168c:	e082                	sd	zero,64(sp)
   1168e:	f802                	sd	zero,48(sp)
   11690:	002df293          	and	t0,s11,2
   11694:	00028363          	beqz	t0,1169a <_vfprintf_r+0x1a6>
   11698:	2c09                	addw	s8,s8,2
   1169a:	084dfc93          	and	s9,s11,132
   1169e:	74ce                	ld	s1,240(sp)
   116a0:	000c9663          	bnez	s9,116ac <_vfprintf_r+0x1b8>
   116a4:	418b873b          	subw	a4,s7,s8
   116a8:	2ee044e3          	bgtz	a4,12190 <_vfprintf_r+0xc9c>
   116ac:	0af14703          	lbu	a4,175(sp)
   116b0:	c30d                	beqz	a4,116d2 <_vfprintf_r+0x1de>
   116b2:	572e                	lw	a4,232(sp)
   116b4:	0af10613          	add	a2,sp,175
   116b8:	e010                	sd	a2,0(s0)
   116ba:	2705                	addw	a4,a4,1
   116bc:	4605                	li	a2,1
   116be:	0485                	add	s1,s1,1
   116c0:	e410                	sd	a2,8(s0)
   116c2:	d5ba                	sw	a4,232(sp)
   116c4:	0007061b          	sext.w	a2,a4
   116c8:	f9a6                	sd	s1,240(sp)
   116ca:	471d                	li	a4,7
   116cc:	0441                	add	s0,s0,16
   116ce:	4ec74b63          	blt	a4,a2,11bc4 <_vfprintf_r+0x6d0>
   116d2:	02028163          	beqz	t0,116f4 <_vfprintf_r+0x200>
   116d6:	572e                	lw	a4,232(sp)
   116d8:	4609                	li	a2,2
   116da:	0489                	add	s1,s1,2
   116dc:	2705                	addw	a4,a4,1
   116de:	191c                	add	a5,sp,176
   116e0:	e410                	sd	a2,8(s0)
   116e2:	e01c                	sd	a5,0(s0)
   116e4:	0007061b          	sext.w	a2,a4
   116e8:	d5ba                	sw	a4,232(sp)
   116ea:	f9a6                	sd	s1,240(sp)
   116ec:	471d                	li	a4,7
   116ee:	0441                	add	s0,s0,16
   116f0:	32c74fe3          	blt	a4,a2,1222e <_vfprintf_r+0xd3a>
   116f4:	08000713          	li	a4,128
   116f8:	10ec8ce3          	beq	s9,a4,12010 <_vfprintf_r+0xb1c>
   116fc:	40db0b3b          	subw	s6,s6,a3
   11700:	1b604be3          	bgtz	s6,120b6 <_vfprintf_r+0xbc2>
   11704:	100df713          	and	a4,s11,256
   11708:	020710e3          	bnez	a4,11f28 <_vfprintf_r+0xa34>
   1170c:	572e                	lw	a4,232(sp)
   1170e:	94b6                	add	s1,s1,a3
   11710:	01a43023          	sd	s10,0(s0)
   11714:	2705                	addw	a4,a4,1
   11716:	e414                	sd	a3,8(s0)
   11718:	f9a6                	sd	s1,240(sp)
   1171a:	d5ba                	sw	a4,232(sp)
   1171c:	479d                	li	a5,7
   1171e:	54e7cf63          	blt	a5,a4,11c7c <_vfprintf_r+0x788>
   11722:	0441                	add	s0,s0,16
   11724:	004dfe13          	and	t3,s11,4
   11728:	000e0663          	beqz	t3,11734 <_vfprintf_r+0x240>
   1172c:	418b8b3b          	subw	s6,s7,s8
   11730:	31604de3          	bgtz	s6,1224a <_vfprintf_r+0xd56>
   11734:	87de                	mv	a5,s7
   11736:	018bd363          	bge	s7,s8,1173c <_vfprintf_r+0x248>
   1173a:	87e2                	mv	a5,s8
   1173c:	6742                	ld	a4,16(sp)
   1173e:	9fb9                	addw	a5,a5,a4
   11740:	e83e                	sd	a5,16(sp)
   11742:	200497e3          	bnez	s1,12150 <_vfprintf_r+0xc5c>
   11746:	67e2                	ld	a5,24(sp)
   11748:	d582                	sw	zero,232(sp)
   1174a:	c789                	beqz	a5,11754 <_vfprintf_r+0x260>
   1174c:	65e2                	ld	a1,24(sp)
   1174e:	6522                	ld	a0,8(sp)
   11750:	d5aff0ef          	jal	10caa <_free_r>
   11754:	8452                	mv	s0,s4
   11756:	8d4e                	mv	s10,s3
   11758:	000d4703          	lbu	a4,0(s10)
   1175c:	e60713e3          	bnez	a4,115c2 <_vfprintf_r+0xce>
   11760:	77ce                	ld	a5,240(sp)
   11762:	c399                	beqz	a5,11768 <_vfprintf_r+0x274>
   11764:	3a20106f          	j	12b06 <_vfprintf_r+0x1612>
   11768:	01095783          	lhu	a5,16(s2)
   1176c:	23813483          	ld	s1,568(sp)
   11770:	22813983          	ld	s3,552(sp)
   11774:	0407f793          	and	a5,a5,64
   11778:	22013a03          	ld	s4,544(sp)
   1177c:	21813a83          	ld	s5,536(sp)
   11780:	21013b03          	ld	s6,528(sp)
   11784:	20813b83          	ld	s7,520(sp)
   11788:	20013c03          	ld	s8,512(sp)
   1178c:	7d5e                	ld	s10,496(sp)
   1178e:	7dbe                	ld	s11,488(sp)
   11790:	c399                	beqz	a5,11796 <_vfprintf_r+0x2a2>
   11792:	6780106f          	j	12e0a <_vfprintf_r+0x1916>
   11796:	24813083          	ld	ra,584(sp)
   1179a:	24013403          	ld	s0,576(sp)
   1179e:	6542                	ld	a0,16(sp)
   117a0:	23013903          	ld	s2,560(sp)
   117a4:	7cfe                	ld	s9,504(sp)
   117a6:	25010113          	add	sp,sp,592
   117aa:	8082                	ret
   117ac:	010ded93          	or	s11,s11,16
   117b0:	0009c303          	lbu	t1,0(s3)
   117b4:	2d81                	sext.w	s11,s11
   117b6:	b59d                	j	1161c <_vfprintf_r+0x128>
   117b8:	6522                	ld	a0,8(sp)
   117ba:	85ca                	mv	a1,s2
   117bc:	759020ef          	jal	14714 <__swsetup_r>
   117c0:	c119                	beqz	a0,117c6 <_vfprintf_r+0x2d2>
   117c2:	6480106f          	j	12e0a <_vfprintf_r+0x1916>
   117c6:	01091703          	lh	a4,16(s2)
   117ca:	46a9                	li	a3,10
   117cc:	8b69                	and	a4,a4,26
   117ce:	dad711e3          	bne	a4,a3,11570 <_vfprintf_r+0x7c>
   117d2:	01291703          	lh	a4,18(s2)
   117d6:	d8074de3          	bltz	a4,11570 <_vfprintf_r+0x7c>
   117da:	7682                	ld	a3,32(sp)
   117dc:	6522                	ld	a0,8(sp)
   117de:	8666                	mv	a2,s9
   117e0:	85ca                	mv	a1,s2
   117e2:	05d010ef          	jal	1303e <__sbprintf>
   117e6:	e82a                	sd	a0,16(sp)
   117e8:	b77d                	j	11796 <_vfprintf_r+0x2a2>
   117ea:	010dee13          	or	t3,s11,16
   117ee:	000e0d9b          	sext.w	s11,t3
   117f2:	7682                	ld	a3,32(sp)
   117f4:	020df793          	and	a5,s11,32
   117f8:	00868713          	add	a4,a3,8
   117fc:	4a078763          	beqz	a5,11caa <_vfprintf_r+0x7b6>
   11800:	629c                	ld	a5,0(a3)
   11802:	84be                	mv	s1,a5
   11804:	4c07c463          	bltz	a5,11ccc <_vfprintf_r+0x7d8>
   11808:	4c0b45e3          	bltz	s6,124d2 <_vfprintf_r+0xfde>
   1180c:	f7fdfc93          	and	s9,s11,-129
   11810:	2c81                	sext.w	s9,s9
   11812:	c099                	beqz	s1,11818 <_vfprintf_r+0x324>
   11814:	7790006f          	j	1278c <_vfprintf_r+0x1298>
   11818:	000b0463          	beqz	s6,11820 <_vfprintf_r+0x32c>
   1181c:	6820106f          	j	12e9e <_vfprintf_r+0x19aa>
   11820:	4681                	li	a3,0
   11822:	f03a                	sd	a4,32(sp)
   11824:	8de6                	mv	s11,s9
   11826:	15c10d13          	add	s10,sp,348
   1182a:	0af14703          	lbu	a4,175(sp)
   1182e:	885a                	mv	a6,s6
   11830:	00db5363          	bge	s6,a3,11836 <_vfprintf_r+0x342>
   11834:	8836                	mv	a6,a3
   11836:	ec02                	sd	zero,24(sp)
   11838:	e482                	sd	zero,72(sp)
   1183a:	e082                	sd	zero,64(sp)
   1183c:	f802                	sd	zero,48(sp)
   1183e:	00080c1b          	sext.w	s8,a6
   11842:	e40707e3          	beqz	a4,11690 <_vfprintf_r+0x19c>
   11846:	2c05                	addw	s8,s8,1
   11848:	b5a1                	j	11690 <_vfprintf_r+0x19c>
   1184a:	010dee13          	or	t3,s11,16
   1184e:	000e0d9b          	sext.w	s11,t3
   11852:	7682                	ld	a3,32(sp)
   11854:	020df793          	and	a5,s11,32
   11858:	00868713          	add	a4,a3,8
   1185c:	42078a63          	beqz	a5,11c90 <_vfprintf_r+0x79c>
   11860:	6284                	ld	s1,0(a3)
   11862:	bffdfc93          	and	s9,s11,-1025
   11866:	2c81                	sext.w	s9,s9
   11868:	f03a                	sd	a4,32(sp)
   1186a:	4781                	li	a5,0
   1186c:	4701                	li	a4,0
   1186e:	0ae107a3          	sb	a4,175(sp)
   11872:	460b4863          	bltz	s6,11ce2 <_vfprintf_r+0x7ee>
   11876:	f7fcfe13          	and	t3,s9,-129
   1187a:	000e0d9b          	sext.w	s11,t3
   1187e:	0e0498e3          	bnez	s1,1216e <_vfprintf_r+0xc7a>
   11882:	740b1e63          	bnez	s6,11fde <_vfprintf_r+0xaea>
   11886:	3c079ae3          	bnez	a5,1245a <_vfprintf_r+0xf66>
   1188a:	001cf693          	and	a3,s9,1
   1188e:	15c10d13          	add	s10,sp,348
   11892:	dec1                	beqz	a3,1182a <_vfprintf_r+0x336>
   11894:	03000793          	li	a5,48
   11898:	14f10da3          	sb	a5,347(sp)
   1189c:	15b10d13          	add	s10,sp,347
   118a0:	b769                	j	1182a <_vfprintf_r+0x336>
   118a2:	41a984bb          	subw	s1,s3,s10
   118a6:	d2049be3          	bnez	s1,115dc <_vfprintf_r+0xe8>
   118aa:	0009c703          	lbu	a4,0(s3)
   118ae:	bb99                	j	11604 <_vfprintf_r+0x110>
   118b0:	6522                	ld	a0,8(sp)
   118b2:	1190                	add	a2,sp,224
   118b4:	85ca                	mv	a1,s2
   118b6:	0e3010ef          	jal	13198 <__sprint_r>
   118ba:	ea0517e3          	bnez	a0,11768 <_vfprintf_r+0x274>
   118be:	8452                	mv	s0,s4
   118c0:	bb2d                	j	115fa <_vfprintf_r+0x106>
   118c2:	008df713          	and	a4,s11,8
   118c6:	3e0718e3          	bnez	a4,124b6 <_vfprintf_r+0xfc2>
   118ca:	7782                	ld	a5,32(sp)
   118cc:	ec1a                	sd	t1,24(sp)
   118ce:	2388                	fld	fa0,0(a5)
   118d0:	00878c13          	add	s8,a5,8
   118d4:	00f070ef          	jal	190e2 <__extenddftf2>
   118d8:	6362                	ld	t1,24(sp)
   118da:	872a                	mv	a4,a0
   118dc:	f062                	sd	s8,32(sp)
   118de:	0988                	add	a0,sp,208
   118e0:	ec1a                	sd	t1,24(sp)
   118e2:	e9ba                	sd	a4,208(sp)
   118e4:	edae                	sd	a1,216(sp)
   118e6:	0bf030ef          	jal	151a4 <_ldcheck>
   118ea:	dd2a                	sw	a0,184(sp)
   118ec:	4709                	li	a4,2
   118ee:	6362                	ld	t1,24(sp)
   118f0:	6ae500e3          	beq	a0,a4,12790 <_vfprintf_r+0x129c>
   118f4:	4705                	li	a4,1
   118f6:	00e51463          	bne	a0,a4,118fe <_vfprintf_r+0x40a>
   118fa:	7bb0006f          	j	128b4 <_vfprintf_r+0x13c0>
   118fe:	06100713          	li	a4,97
   11902:	56e300e3          	beq	t1,a4,12662 <_vfprintf_r+0x116e>
   11906:	04100713          	li	a4,65
   1190a:	05800793          	li	a5,88
   1190e:	54e30ce3          	beq	t1,a4,12666 <_vfprintf_r+0x1172>
   11912:	577d                	li	a4,-1
   11914:	00eb1463          	bne	s6,a4,1191c <_vfprintf_r+0x428>
   11918:	5620106f          	j	12e7a <_vfprintf_r+0x1986>
   1191c:	fdf37713          	and	a4,t1,-33
   11920:	04700693          	li	a3,71
   11924:	ec02                	sd	zero,24(sp)
   11926:	00d71463          	bne	a4,a3,1192e <_vfprintf_r+0x43a>
   1192a:	5580106f          	j	12e82 <_vfprintf_r+0x198e>
   1192e:	67ce                	ld	a5,208(sp)
   11930:	6cee                	ld	s9,216(sp)
   11932:	100de713          	or	a4,s11,256
   11936:	f83e                	sd	a5,48(sp)
   11938:	f482                	sd	zero,104(sp)
   1193a:	0007049b          	sext.w	s1,a4
   1193e:	000cd463          	bgez	s9,11946 <_vfprintf_r+0x452>
   11942:	3720106f          	j	12cb4 <_vfprintf_r+0x17c0>
   11946:	fbf3069b          	addw	a3,t1,-65
   1194a:	02500713          	li	a4,37
   1194e:	00d77463          	bgeu	a4,a3,11956 <_vfprintf_r+0x462>
   11952:	3c60106f          	j	12d18 <_vfprintf_r+0x1824>
   11956:	4705                	li	a4,1
   11958:	4c05                	li	s8,1
   1195a:	1716                	sll	a4,a4,0x25
   1195c:	00dc16b3          	sll	a3,s8,a3
   11960:	02070713          	add	a4,a4,32
   11964:	8f75                	and	a4,a4,a3
   11966:	c319                	beqz	a4,1196c <_vfprintf_r+0x478>
   11968:	2680106f          	j	12bd0 <_vfprintf_r+0x16dc>
   1196c:	4705                	li	a4,1
   1196e:	1712                	sll	a4,a4,0x24
   11970:	0741                	add	a4,a4,16
   11972:	8f75                	and	a4,a4,a3
   11974:	c319                	beqz	a4,1197a <_vfprintf_r+0x486>
   11976:	4a20106f          	j	12e18 <_vfprintf_r+0x1924>
   1197a:	4705                	li	a4,1
   1197c:	1702                	sll	a4,a4,0x20
   1197e:	0705                	add	a4,a4,1
   11980:	8ef9                	and	a3,a3,a4
   11982:	fc1a                	sd	t1,56(sp)
   11984:	e299                	bnez	a3,1198a <_vfprintf_r+0x496>
   11986:	1d40106f          	j	12b5a <_vfprintf_r+0x1666>
   1198a:	7542                	ld	a0,48(sp)
   1198c:	1930                	add	a2,sp,184
   1198e:	85e6                	mv	a1,s9
   11990:	578030ef          	jal	14f08 <frexpl>
   11994:	00fff6b7          	lui	a3,0xfff
   11998:	4601                	li	a2,0
   1199a:	169a                	sll	a3,a3,0x26
   1199c:	01d060ef          	jal	181b8 <__multf3>
   119a0:	4601                	li	a2,0
   119a2:	4681                	li	a3,0
   119a4:	8caa                	mv	s9,a0
   119a6:	84ae                	mv	s1,a1
   119a8:	62c060ef          	jal	17fd4 <__eqtf2>
   119ac:	7362                	ld	t1,56(sp)
   119ae:	e111                	bnez	a0,119b2 <_vfprintf_r+0x4be>
   119b0:	dd62                	sw	s8,184(sp)
   119b2:	06100713          	li	a4,97
   119b6:	00e31463          	bne	t1,a4,119be <_vfprintf_r+0x4ca>
   119ba:	5ea0106f          	j	12fa4 <_vfprintf_r+0x1ab0>
   119be:	6765                	lui	a4,0x19
   119c0:	24070793          	add	a5,a4,576 # 19240 <__clzdi2+0x9e>
   119c4:	f83e                	sd	a5,48(sp)
   119c6:	020b1713          	sll	a4,s6,0x20
   119ca:	9301                	srl	a4,a4,0x20
   119cc:	0705                	add	a4,a4,1
   119ce:	040036b7          	lui	a3,0x4003
   119d2:	000b081b          	sext.w	a6,s6
   119d6:	00ed07b3          	add	a5,s10,a4
   119da:	1692                	sll	a3,a3,0x24
   119dc:	fc4e                	sd	s3,56(sp)
   119de:	f8a2                	sd	s0,112(sp)
   119e0:	8c4a                	mv	s8,s2
   119e2:	7b42                	ld	s6,48(sp)
   119e4:	e09a                	sd	t1,64(sp)
   119e6:	e4de                	sd	s7,72(sp)
   119e8:	e942                	sd	a6,144(sp)
   119ea:	89ea                	mv	s3,s10
   119ec:	893e                	mv	s2,a5
   119ee:	8436                	mv	s0,a3
   119f0:	a801                	j	11a00 <_vfprintf_r+0x50c>
   119f2:	4601                	li	a2,0
   119f4:	4681                	li	a3,0
   119f6:	5de060ef          	jal	17fd4 <__eqtf2>
   119fa:	e119                	bnez	a0,11a00 <_vfprintf_r+0x50c>
   119fc:	5680106f          	j	12f64 <_vfprintf_r+0x1a70>
   11a00:	4601                	li	a2,0
   11a02:	86a2                	mv	a3,s0
   11a04:	8566                	mv	a0,s9
   11a06:	85a6                	mv	a1,s1
   11a08:	7b0060ef          	jal	181b8 <__multf3>
   11a0c:	84ae                	mv	s1,a1
   11a0e:	8caa                	mv	s9,a0
   11a10:	5e6070ef          	jal	18ff6 <__fixtfsi>
   11a14:	00050b9b          	sext.w	s7,a0
   11a18:	674070ef          	jal	1908c <__floatsitf>
   11a1c:	86ae                	mv	a3,a1
   11a1e:	862a                	mv	a2,a0
   11a20:	85a6                	mv	a1,s1
   11a22:	8566                	mv	a0,s9
   11a24:	58b060ef          	jal	187ae <__subtf3>
   11a28:	017b06b3          	add	a3,s6,s7
   11a2c:	0006c683          	lbu	a3,0(a3) # 4003000 <__BSS_END__+0x3fe74c0>
   11a30:	88ce                	mv	a7,s3
   11a32:	0985                	add	s3,s3,1
   11a34:	fed98fa3          	sb	a3,-1(s3)
   11a38:	8caa                	mv	s9,a0
   11a3a:	84ae                	mv	s1,a1
   11a3c:	fb391be3          	bne	s2,s3,119f2 <_vfprintf_r+0x4fe>
   11a40:	6306                	ld	t1,64(sp)
   11a42:	01fff6b7          	lui	a3,0x1fff
   11a46:	1696                	sll	a3,a3,0x25
   11a48:	4601                	li	a2,0
   11a4a:	e91a                	sd	t1,144(sp)
   11a4c:	e0c6                	sd	a7,64(sp)
   11a4e:	8b5e                	mv	s6,s7
   11a50:	6ba6                	ld	s7,72(sp)
   11a52:	e4b6                	sd	a3,72(sp)
   11a54:	628060ef          	jal	1807c <__getf2>
   11a58:	8962                	mv	s2,s8
   11a5a:	7446                	ld	s0,112(sp)
   11a5c:	8c4e                	mv	s8,s3
   11a5e:	6886                	ld	a7,64(sp)
   11a60:	79e2                	ld	s3,56(sp)
   11a62:	634a                	ld	t1,144(sp)
   11a64:	02a04063          	bgtz	a0,11a84 <_vfprintf_r+0x590>
   11a68:	66a6                	ld	a3,72(sp)
   11a6a:	4601                	li	a2,0
   11a6c:	8566                	mv	a0,s9
   11a6e:	85a6                	mv	a1,s1
   11a70:	fc1a                	sd	t1,56(sp)
   11a72:	562060ef          	jal	17fd4 <__eqtf2>
   11a76:	7362                	ld	t1,56(sp)
   11a78:	e539                	bnez	a0,11ac6 <_vfprintf_r+0x5d2>
   11a7a:	001b7b13          	and	s6,s6,1
   11a7e:	6886                	ld	a7,64(sp)
   11a80:	040b0363          	beqz	s6,11ac6 <_vfprintf_r+0x5d2>
   11a84:	77c2                	ld	a5,48(sp)
   11a86:	e5c6                	sd	a7,200(sp)
   11a88:	fffc4603          	lbu	a2,-1(s8)
   11a8c:	00f7c583          	lbu	a1,15(a5)
   11a90:	86e2                	mv	a3,s8
   11a92:	00b61e63          	bne	a2,a1,11aae <_vfprintf_r+0x5ba>
   11a96:	03000513          	li	a0,48
   11a9a:	fea68fa3          	sb	a0,-1(a3) # 1ffefff <__BSS_END__+0x1fe34bf>
   11a9e:	66ae                	ld	a3,200(sp)
   11aa0:	fff68793          	add	a5,a3,-1
   11aa4:	e5be                	sd	a5,200(sp)
   11aa6:	fff6c603          	lbu	a2,-1(a3)
   11aaa:	fec588e3          	beq	a1,a2,11a9a <_vfprintf_r+0x5a6>
   11aae:	0016059b          	addw	a1,a2,1
   11ab2:	03900513          	li	a0,57
   11ab6:	0ff5f593          	zext.b	a1,a1
   11aba:	00a61463          	bne	a2,a0,11ac2 <_vfprintf_r+0x5ce>
   11abe:	0f40106f          	j	12bb2 <_vfprintf_r+0x16be>
   11ac2:	feb68fa3          	sb	a1,-1(a3)
   11ac6:	86e2                	mv	a3,s8
   11ac8:	57ea                	lw	a5,184(sp)
   11aca:	41a6873b          	subw	a4,a3,s10
   11ace:	fc3a                	sd	a4,56(sp)
   11ad0:	fff7871b          	addw	a4,a5,-1
   11ad4:	f83e                	sd	a5,48(sp)
   11ad6:	06100613          	li	a2,97
   11ada:	dd3a                	sw	a4,184(sp)
   11adc:	00c31463          	bne	t1,a2,11ae4 <_vfprintf_r+0x5f0>
   11ae0:	4d00106f          	j	12fb0 <_vfprintf_r+0x1abc>
   11ae4:	04100613          	li	a2,65
   11ae8:	05000693          	li	a3,80
   11aec:	00c30463          	beq	t1,a2,11af4 <_vfprintf_r+0x600>
   11af0:	0b80106f          	j	12ba8 <_vfprintf_r+0x16b4>
   11af4:	4605                	li	a2,1
   11af6:	0cd10023          	sb	a3,192(sp)
   11afa:	02b00693          	li	a3,43
   11afe:	00075763          	bgez	a4,11b0c <_vfprintf_r+0x618>
   11b02:	77c2                	ld	a5,48(sp)
   11b04:	4705                	li	a4,1
   11b06:	02d00693          	li	a3,45
   11b0a:	9f1d                	subw	a4,a4,a5
   11b0c:	0cd100a3          	sb	a3,193(sp)
   11b10:	46a5                	li	a3,9
   11b12:	00e6c463          	blt	a3,a4,11b1a <_vfprintf_r+0x626>
   11b16:	33a0106f          	j	12e50 <_vfprintf_r+0x195c>
   11b1a:	0cf10893          	add	a7,sp,207
   11b1e:	8546                	mv	a0,a7
   11b20:	4829                	li	a6,10
   11b22:	06300f13          	li	t5,99
   11b26:	030767bb          	remw	a5,a4,a6
   11b2a:	86aa                	mv	a3,a0
   11b2c:	863a                	mv	a2,a4
   11b2e:	157d                	add	a0,a0,-1
   11b30:	0307879b          	addw	a5,a5,48
   11b34:	fef68fa3          	sb	a5,-1(a3)
   11b38:	0307473b          	divw	a4,a4,a6
   11b3c:	fecf45e3          	blt	t5,a2,11b26 <_vfprintf_r+0x632>
   11b40:	0307059b          	addw	a1,a4,48
   11b44:	feb50fa3          	sb	a1,-1(a0)
   11b48:	ffe68713          	add	a4,a3,-2
   11b4c:	01176463          	bltu	a4,a7,11b54 <_vfprintf_r+0x660>
   11b50:	4a00106f          	j	12ff0 <_vfprintf_r+0x1afc>
   11b54:	0c210613          	add	a2,sp,194
   11b58:	00074783          	lbu	a5,0(a4)
   11b5c:	0705                	add	a4,a4,1
   11b5e:	0605                	add	a2,a2,1
   11b60:	fef60fa3          	sb	a5,-1(a2)
   11b64:	ff171ae3          	bne	a4,a7,11b58 <_vfprintf_r+0x664>
   11b68:	139c                	add	a5,sp,480
   11b6a:	40d786b3          	sub	a3,a5,a3
   11b6e:	ef36879b          	addw	a5,a3,-269
   11b72:	f8be                	sd	a5,112(sp)
   11b74:	7746                	ld	a4,112(sp)
   11b76:	77e2                	ld	a5,56(sp)
   11b78:	4605                	li	a2,1
   11b7a:	00e786bb          	addw	a3,a5,a4
   11b7e:	8736                	mv	a4,a3
   11b80:	00f64463          	blt	a2,a5,11b88 <_vfprintf_r+0x694>
   11b84:	30c0106f          	j	12e90 <_vfprintf_r+0x199c>
   11b88:	67c6                	ld	a5,80(sp)
   11b8a:	00f706bb          	addw	a3,a4,a5
   11b8e:	fff6c813          	not	a6,a3
   11b92:	bffdfe13          	and	t3,s11,-1025
   11b96:	43f85813          	sra	a6,a6,0x3f
   11b9a:	2e01                	sext.w	t3,t3
   11b9c:	0106f833          	and	a6,a3,a6
   11ba0:	100e6d93          	or	s11,t3,256
   11ba4:	00080c1b          	sext.w	s8,a6
   11ba8:	e482                	sd	zero,72(sp)
   11baa:	e082                	sd	zero,64(sp)
   11bac:	f802                	sd	zero,48(sp)
   11bae:	77a6                	ld	a5,104(sp)
   11bb0:	e399                	bnez	a5,11bb6 <_vfprintf_r+0x6c2>
   11bb2:	00e0106f          	j	12bc0 <_vfprintf_r+0x16cc>
   11bb6:	02d00713          	li	a4,45
   11bba:	0ae107a3          	sb	a4,175(sp)
   11bbe:	4b01                	li	s6,0
   11bc0:	2c05                	addw	s8,s8,1
   11bc2:	b4f9                	j	11690 <_vfprintf_r+0x19c>
   11bc4:	6522                	ld	a0,8(sp)
   11bc6:	1190                	add	a2,sp,224
   11bc8:	85ca                	mv	a1,s2
   11bca:	ed36                	sd	a3,152(sp)
   11bcc:	e91a                	sd	t1,144(sp)
   11bce:	f496                	sd	t0,104(sp)
   11bd0:	5c8010ef          	jal	13198 <__sprint_r>
   11bd4:	58051563          	bnez	a0,1215e <_vfprintf_r+0xc6a>
   11bd8:	74ce                	ld	s1,240(sp)
   11bda:	66ea                	ld	a3,152(sp)
   11bdc:	634a                	ld	t1,144(sp)
   11bde:	72a6                	ld	t0,104(sp)
   11be0:	8452                	mv	s0,s4
   11be2:	bcc5                	j	116d2 <_vfprintf_r+0x1de>
   11be4:	572e                	lw	a4,232(sp)
   11be6:	77e2                	ld	a5,56(sp)
   11be8:	4685                	li	a3,1
   11bea:	00170b1b          	addw	s6,a4,1
   11bee:	01a43023          	sd	s10,0(s0)
   11bf2:	0485                	add	s1,s1,1
   11bf4:	875a                	mv	a4,s6
   11bf6:	01040c93          	add	s9,s0,16
   11bfa:	7cf6d363          	bge	a3,a5,123c0 <_vfprintf_r+0xecc>
   11bfe:	4685                	li	a3,1
   11c00:	d5ba                	sw	a4,232(sp)
   11c02:	e414                	sd	a3,8(s0)
   11c04:	f9a6                	sd	s1,240(sp)
   11c06:	471d                	li	a4,7
   11c08:	2b6744e3          	blt	a4,s6,126b0 <_vfprintf_r+0x11bc>
   11c0c:	67c6                	ld	a5,80(sp)
   11c0e:	66e6                	ld	a3,88(sp)
   11c10:	2b05                	addw	s6,s6,1
   11c12:	94be                	add	s1,s1,a5
   11c14:	00dcb023          	sd	a3,0(s9)
   11c18:	00fcb423          	sd	a5,8(s9)
   11c1c:	f9a6                	sd	s1,240(sp)
   11c1e:	d5da                	sw	s6,232(sp)
   11c20:	471d                	li	a4,7
   11c22:	0cc1                	add	s9,s9,16
   11c24:	2b6742e3          	blt	a4,s6,126c8 <_vfprintf_r+0x11d4>
   11c28:	77e2                	ld	a5,56(sp)
   11c2a:	654e                	ld	a0,208(sp)
   11c2c:	65ee                	ld	a1,216(sp)
   11c2e:	4601                	li	a2,0
   11c30:	4681                	li	a3,0
   11c32:	fff7841b          	addw	s0,a5,-1
   11c36:	39e060ef          	jal	17fd4 <__eqtf2>
   11c3a:	7a050863          	beqz	a0,123ea <_vfprintf_r+0xef6>
   11c3e:	001d0793          	add	a5,s10,1
   11c42:	2b05                	addw	s6,s6,1
   11c44:	94a2                	add	s1,s1,s0
   11c46:	00fcb023          	sd	a5,0(s9)
   11c4a:	008cb423          	sd	s0,8(s9)
   11c4e:	f9a6                	sd	s1,240(sp)
   11c50:	d5da                	sw	s6,232(sp)
   11c52:	479d                	li	a5,7
   11c54:	7967c063          	blt	a5,s6,123d4 <_vfprintf_r+0xee0>
   11c58:	0cc1                	add	s9,s9,16
   11c5a:	7746                	ld	a4,112(sp)
   11c5c:	2b05                	addw	s6,s6,1
   11c5e:	019c                	add	a5,sp,192
   11c60:	94ba                	add	s1,s1,a4
   11c62:	00fcb023          	sd	a5,0(s9)
   11c66:	00ecb423          	sd	a4,8(s9)
   11c6a:	f9a6                	sd	s1,240(sp)
   11c6c:	000b071b          	sext.w	a4,s6
   11c70:	d5da                	sw	s6,232(sp)
   11c72:	479d                	li	a5,7
   11c74:	010c8413          	add	s0,s9,16
   11c78:	aae7d6e3          	bge	a5,a4,11724 <_vfprintf_r+0x230>
   11c7c:	6522                	ld	a0,8(sp)
   11c7e:	1190                	add	a2,sp,224
   11c80:	85ca                	mv	a1,s2
   11c82:	516010ef          	jal	13198 <__sprint_r>
   11c86:	4c051c63          	bnez	a0,1215e <_vfprintf_r+0xc6a>
   11c8a:	74ce                	ld	s1,240(sp)
   11c8c:	8452                	mv	s0,s4
   11c8e:	bc59                	j	11724 <_vfprintf_r+0x230>
   11c90:	010df793          	and	a5,s11,16
   11c94:	00079de3          	bnez	a5,124ae <_vfprintf_r+0xfba>
   11c98:	7682                	ld	a3,32(sp)
   11c9a:	040df793          	and	a5,s11,64
   11c9e:	4284                	lw	s1,0(a3)
   11ca0:	3c0786e3          	beqz	a5,1286c <_vfprintf_r+0x1378>
   11ca4:	14c2                	sll	s1,s1,0x30
   11ca6:	90c1                	srl	s1,s1,0x30
   11ca8:	be6d                	j	11862 <_vfprintf_r+0x36e>
   11caa:	010df793          	and	a5,s11,16
   11cae:	7c079563          	bnez	a5,12478 <_vfprintf_r+0xf84>
   11cb2:	7682                	ld	a3,32(sp)
   11cb4:	040df793          	and	a5,s11,64
   11cb8:	4284                	lw	s1,0(a3)
   11cba:	3c0781e3          	beqz	a5,1287c <_vfprintf_r+0x1388>
   11cbe:	0104949b          	sllw	s1,s1,0x10
   11cc2:	4104d49b          	sraw	s1,s1,0x10
   11cc6:	87a6                	mv	a5,s1
   11cc8:	b407d0e3          	bgez	a5,11808 <_vfprintf_r+0x314>
   11ccc:	f03a                	sd	a4,32(sp)
   11cce:	02d00713          	li	a4,45
   11cd2:	0ae107a3          	sb	a4,175(sp)
   11cd6:	409004b3          	neg	s1,s1
   11cda:	8cee                	mv	s9,s11
   11cdc:	4785                	li	a5,1
   11cde:	b80b5ce3          	bgez	s6,11876 <_vfprintf_r+0x382>
   11ce2:	4705                	li	a4,1
   11ce4:	48e78963          	beq	a5,a4,12176 <_vfprintf_r+0xc82>
   11ce8:	4709                	li	a4,2
   11cea:	30e78163          	beq	a5,a4,11fec <_vfprintf_r+0xaf8>
   11cee:	0af4                	add	a3,sp,348
   11cf0:	8d36                	mv	s10,a3
   11cf2:	0074f713          	and	a4,s1,7
   11cf6:	03070713          	add	a4,a4,48
   11cfa:	feed0fa3          	sb	a4,-1(s10)
   11cfe:	808d                	srl	s1,s1,0x3
   11d00:	866a                	mv	a2,s10
   11d02:	1d7d                	add	s10,s10,-1
   11d04:	f4fd                	bnez	s1,11cf2 <_vfprintf_r+0x7fe>
   11d06:	001cf593          	and	a1,s9,1
   11d0a:	2e058e63          	beqz	a1,12006 <_vfprintf_r+0xb12>
   11d0e:	03000593          	li	a1,48
   11d12:	2eb70a63          	beq	a4,a1,12006 <_vfprintf_r+0xb12>
   11d16:	1679                	add	a2,a2,-2
   11d18:	febd0fa3          	sb	a1,-1(s10)
   11d1c:	9e91                	subw	a3,a3,a2
   11d1e:	8de6                	mv	s11,s9
   11d20:	8d32                	mv	s10,a2
   11d22:	b621                	j	1182a <_vfprintf_r+0x336>
   11d24:	7782                	ld	a5,32(sp)
   11d26:	0a0107a3          	sb	zero,175(sp)
   11d2a:	0007bd03          	ld	s10,0(a5)
   11d2e:	00878493          	add	s1,a5,8
   11d32:	080d0ae3          	beqz	s10,125c6 <_vfprintf_r+0x10d2>
   11d36:	280b4fe3          	bltz	s6,127d4 <_vfprintf_r+0x12e0>
   11d3a:	865a                	mv	a2,s6
   11d3c:	4581                	li	a1,0
   11d3e:	856a                	mv	a0,s10
   11d40:	f01a                	sd	t1,32(sp)
   11d42:	3c3020ef          	jal	14904 <memchr>
   11d46:	ec2a                	sd	a0,24(sp)
   11d48:	7302                	ld	t1,32(sp)
   11d4a:	e119                	bnez	a0,11d50 <_vfprintf_r+0x85c>
   11d4c:	7b10006f          	j	12cfc <_vfprintf_r+0x1808>
   11d50:	67e2                	ld	a5,24(sp)
   11d52:	0af14703          	lbu	a4,175(sp)
   11d56:	f026                	sd	s1,32(sp)
   11d58:	41a786bb          	subw	a3,a5,s10
   11d5c:	fff6c813          	not	a6,a3
   11d60:	43f85813          	sra	a6,a6,0x3f
   11d64:	ec02                	sd	zero,24(sp)
   11d66:	e482                	sd	zero,72(sp)
   11d68:	e082                	sd	zero,64(sp)
   11d6a:	f802                	sd	zero,48(sp)
   11d6c:	00d87c33          	and	s8,a6,a3
   11d70:	4b01                	li	s6,0
   11d72:	ac071ae3          	bnez	a4,11846 <_vfprintf_r+0x352>
   11d76:	ba29                	j	11690 <_vfprintf_r+0x19c>
   11d78:	7702                	ld	a4,32(sp)
   11d7a:	0a0107a3          	sb	zero,175(sp)
   11d7e:	4c05                	li	s8,1
   11d80:	431c                	lw	a5,0(a4)
   11d82:	0721                	add	a4,a4,8
   11d84:	f03a                	sd	a4,32(sp)
   11d86:	0ef10c23          	sb	a5,248(sp)
   11d8a:	4685                	li	a3,1
   11d8c:	0f810d13          	add	s10,sp,248
   11d90:	b8dd                	j	11686 <_vfprintf_r+0x192>
   11d92:	7782                	ld	a5,32(sp)
   11d94:	0007ab83          	lw	s7,0(a5)
   11d98:	07a1                	add	a5,a5,8
   11d9a:	6c0bda63          	bgez	s7,1246e <_vfprintf_r+0xf7a>
   11d9e:	41700bbb          	negw	s7,s7
   11da2:	f03e                	sd	a5,32(sp)
   11da4:	004ded93          	or	s11,s11,4
   11da8:	0009c303          	lbu	t1,0(s3)
   11dac:	2d81                	sext.w	s11,s11
   11dae:	b0bd                	j	1161c <_vfprintf_r+0x128>
   11db0:	02b00793          	li	a5,43
   11db4:	0009c303          	lbu	t1,0(s3)
   11db8:	0af107a3          	sb	a5,175(sp)
   11dbc:	b085                	j	1161c <_vfprintf_r+0x128>
   11dbe:	080ded93          	or	s11,s11,128
   11dc2:	0009c303          	lbu	t1,0(s3)
   11dc6:	2d81                	sext.w	s11,s11
   11dc8:	b891                	j	1161c <_vfprintf_r+0x128>
   11dca:	0009c303          	lbu	t1,0(s3)
   11dce:	02a00693          	li	a3,42
   11dd2:	00198713          	add	a4,s3,1
   11dd6:	00d31463          	bne	t1,a3,11dde <_vfprintf_r+0x8ea>
   11dda:	21e0106f          	j	12ff8 <_vfprintf_r+0x1b04>
   11dde:	fd03079b          	addw	a5,t1,-48
   11de2:	45a5                	li	a1,9
   11de4:	4681                	li	a3,0
   11de6:	4625                	li	a2,9
   11de8:	89ba                	mv	s3,a4
   11dea:	4b01                	li	s6,0
   11dec:	82f5eae3          	bltu	a1,a5,11620 <_vfprintf_r+0x12c>
   11df0:	00074303          	lbu	t1,0(a4)
   11df4:	00269b1b          	sllw	s6,a3,0x2
   11df8:	00db0b3b          	addw	s6,s6,a3
   11dfc:	001b1b1b          	sllw	s6,s6,0x1
   11e00:	016786bb          	addw	a3,a5,s6
   11e04:	fd03079b          	addw	a5,t1,-48
   11e08:	8b36                	mv	s6,a3
   11e0a:	0705                	add	a4,a4,1
   11e0c:	fef672e3          	bgeu	a2,a5,11df0 <_vfprintf_r+0x8fc>
   11e10:	7206c563          	bltz	a3,1253a <_vfprintf_r+0x1046>
   11e14:	89ba                	mv	s3,a4
   11e16:	80bff06f          	j	11620 <_vfprintf_r+0x12c>
   11e1a:	010dec93          	or	s9,s11,16
   11e1e:	2c81                	sext.w	s9,s9
   11e20:	7682                	ld	a3,32(sp)
   11e22:	020cf793          	and	a5,s9,32
   11e26:	00868713          	add	a4,a3,8
   11e2a:	60078963          	beqz	a5,1243c <_vfprintf_r+0xf48>
   11e2e:	6284                	ld	s1,0(a3)
   11e30:	4785                	li	a5,1
   11e32:	f03a                	sd	a4,32(sp)
   11e34:	bc25                	j	1186c <_vfprintf_r+0x378>
   11e36:	6c22                	ld	s8,8(sp)
   11e38:	8562                	mv	a0,s8
   11e3a:	4b5020ef          	jal	14aee <_localeconv_r>
   11e3e:	651c                	ld	a5,8(a0)
   11e40:	853e                	mv	a0,a5
   11e42:	fcbe                	sd	a5,120(sp)
   11e44:	739020ef          	jal	14d7c <strlen>
   11e48:	87aa                	mv	a5,a0
   11e4a:	8562                	mv	a0,s8
   11e4c:	e53e                	sd	a5,136(sp)
   11e4e:	8c3e                	mv	s8,a5
   11e50:	49f020ef          	jal	14aee <_localeconv_r>
   11e54:	691c                	ld	a5,16(a0)
   11e56:	0009c303          	lbu	t1,0(s3)
   11e5a:	e13e                	sd	a5,128(sp)
   11e5c:	fc0c0063          	beqz	s8,1161c <_vfprintf_r+0x128>
   11e60:	fa078e63          	beqz	a5,1161c <_vfprintf_r+0x128>
   11e64:	0007c783          	lbu	a5,0(a5)
   11e68:	fa078a63          	beqz	a5,1161c <_vfprintf_r+0x128>
   11e6c:	400ded93          	or	s11,s11,1024
   11e70:	2d81                	sext.w	s11,s11
   11e72:	faaff06f          	j	1161c <_vfprintf_r+0x128>
   11e76:	001ded93          	or	s11,s11,1
   11e7a:	0009c303          	lbu	t1,0(s3)
   11e7e:	2d81                	sext.w	s11,s11
   11e80:	f9cff06f          	j	1161c <_vfprintf_r+0x128>
   11e84:	0af14783          	lbu	a5,175(sp)
   11e88:	0009c303          	lbu	t1,0(s3)
   11e8c:	f8079863          	bnez	a5,1161c <_vfprintf_r+0x128>
   11e90:	02000793          	li	a5,32
   11e94:	0af107a3          	sb	a5,175(sp)
   11e98:	f84ff06f          	j	1161c <_vfprintf_r+0x128>
   11e9c:	008ded93          	or	s11,s11,8
   11ea0:	0009c303          	lbu	t1,0(s3)
   11ea4:	2d81                	sext.w	s11,s11
   11ea6:	f76ff06f          	j	1161c <_vfprintf_r+0x128>
   11eaa:	020ded93          	or	s11,s11,32
   11eae:	0009c303          	lbu	t1,0(s3)
   11eb2:	2d81                	sext.w	s11,s11
   11eb4:	f68ff06f          	j	1161c <_vfprintf_r+0x128>
   11eb8:	7702                	ld	a4,32(sp)
   11eba:	67a1                	lui	a5,0x8
   11ebc:	83078793          	add	a5,a5,-2000 # 7830 <exit-0x88b8>
   11ec0:	0af11823          	sh	a5,176(sp)
   11ec4:	00870793          	add	a5,a4,8
   11ec8:	f03e                	sd	a5,32(sp)
   11eca:	67e5                	lui	a5,0x19
   11ecc:	22878793          	add	a5,a5,552 # 19228 <__clzdi2+0x86>
   11ed0:	002dec93          	or	s9,s11,2
   11ed4:	f0be                	sd	a5,96(sp)
   11ed6:	6304                	ld	s1,0(a4)
   11ed8:	2c81                	sext.w	s9,s9
   11eda:	4789                	li	a5,2
   11edc:	07800313          	li	t1,120
   11ee0:	b271                	j	1186c <_vfprintf_r+0x378>
   11ee2:	7702                	ld	a4,32(sp)
   11ee4:	020df793          	and	a5,s11,32
   11ee8:	6318                	ld	a4,0(a4)
   11eea:	5a078263          	beqz	a5,1248e <_vfprintf_r+0xf9a>
   11eee:	67c2                	ld	a5,16(sp)
   11ef0:	e31c                	sd	a5,0(a4)
   11ef2:	7782                	ld	a5,32(sp)
   11ef4:	8d4e                	mv	s10,s3
   11ef6:	07a1                	add	a5,a5,8
   11ef8:	f03e                	sd	a5,32(sp)
   11efa:	b8b9                	j	11758 <_vfprintf_r+0x264>
   11efc:	0009c303          	lbu	t1,0(s3)
   11f00:	06c00793          	li	a5,108
   11f04:	68f30f63          	beq	t1,a5,125a2 <_vfprintf_r+0x10ae>
   11f08:	010ded93          	or	s11,s11,16
   11f0c:	2d81                	sext.w	s11,s11
   11f0e:	f0eff06f          	j	1161c <_vfprintf_r+0x128>
   11f12:	0009c303          	lbu	t1,0(s3)
   11f16:	06800793          	li	a5,104
   11f1a:	66f30c63          	beq	t1,a5,12592 <_vfprintf_r+0x109e>
   11f1e:	040ded93          	or	s11,s11,64
   11f22:	2d81                	sext.w	s11,s11
   11f24:	ef8ff06f          	j	1161c <_vfprintf_r+0x128>
   11f28:	06500713          	li	a4,101
   11f2c:	ca675ce3          	bge	a4,t1,11be4 <_vfprintf_r+0x6f0>
   11f30:	654e                	ld	a0,208(sp)
   11f32:	65ee                	ld	a1,216(sp)
   11f34:	4601                	li	a2,0
   11f36:	4681                	li	a3,0
   11f38:	09c060ef          	jal	17fd4 <__eqtf2>
   11f3c:	38051463          	bnez	a0,122c4 <_vfprintf_r+0xdd0>
   11f40:	57ae                	lw	a5,232(sp)
   11f42:	6765                	lui	a4,0x19
   11f44:	26070713          	add	a4,a4,608 # 19260 <__clzdi2+0xbe>
   11f48:	2785                	addw	a5,a5,1
   11f4a:	e018                	sd	a4,0(s0)
   11f4c:	0485                	add	s1,s1,1
   11f4e:	4705                	li	a4,1
   11f50:	e418                	sd	a4,8(s0)
   11f52:	d5be                	sw	a5,232(sp)
   11f54:	0007871b          	sext.w	a4,a5
   11f58:	f9a6                	sd	s1,240(sp)
   11f5a:	479d                	li	a5,7
   11f5c:	0441                	add	s0,s0,16
   11f5e:	7ee7c963          	blt	a5,a4,12750 <_vfprintf_r+0x125c>
   11f62:	57ea                	lw	a5,184(sp)
   11f64:	7762                	ld	a4,56(sp)
   11f66:	4ee7df63          	bge	a5,a4,12464 <_vfprintf_r+0xf70>
   11f6a:	6746                	ld	a4,80(sp)
   11f6c:	57ae                	lw	a5,232(sp)
   11f6e:	66e6                	ld	a3,88(sp)
   11f70:	94ba                	add	s1,s1,a4
   11f72:	2785                	addw	a5,a5,1
   11f74:	e418                	sd	a4,8(s0)
   11f76:	e014                	sd	a3,0(s0)
   11f78:	0007871b          	sext.w	a4,a5
   11f7c:	d5be                	sw	a5,232(sp)
   11f7e:	f9a6                	sd	s1,240(sp)
   11f80:	479d                	li	a5,7
   11f82:	0441                	add	s0,s0,16
   11f84:	62e7c763          	blt	a5,a4,125b2 <_vfprintf_r+0x10be>
   11f88:	77e2                	ld	a5,56(sp)
   11f8a:	fff78b1b          	addw	s6,a5,-1
   11f8e:	f9605b63          	blez	s6,11724 <_vfprintf_r+0x230>
   11f92:	68e5                	lui	a7,0x19
   11f94:	4741                	li	a4,16
   11f96:	57ae                	lw	a5,232(sp)
   11f98:	4a888893          	add	a7,a7,1192 # 194a8 <zeroes.0>
   11f9c:	7d675863          	bge	a4,s6,1276c <_vfprintf_r+0x1278>
   11fa0:	f84e                	sd	s3,48(sp)
   11fa2:	4cc1                	li	s9,16
   11fa4:	89da                	mv	s3,s6
   11fa6:	4d1d                	li	s10,7
   11fa8:	8b46                	mv	s6,a7
   11faa:	a021                	j	11fb2 <_vfprintf_r+0xabe>
   11fac:	39c1                	addw	s3,s3,-16
   11fae:	7b3cdc63          	bge	s9,s3,12766 <_vfprintf_r+0x1272>
   11fb2:	2785                	addw	a5,a5,1
   11fb4:	04c1                	add	s1,s1,16
   11fb6:	01643023          	sd	s6,0(s0)
   11fba:	01943423          	sd	s9,8(s0)
   11fbe:	f9a6                	sd	s1,240(sp)
   11fc0:	d5be                	sw	a5,232(sp)
   11fc2:	0441                	add	s0,s0,16
   11fc4:	fefd54e3          	bge	s10,a5,11fac <_vfprintf_r+0xab8>
   11fc8:	6522                	ld	a0,8(sp)
   11fca:	1190                	add	a2,sp,224
   11fcc:	85ca                	mv	a1,s2
   11fce:	1ca010ef          	jal	13198 <__sprint_r>
   11fd2:	18051663          	bnez	a0,1215e <_vfprintf_r+0xc6a>
   11fd6:	74ce                	ld	s1,240(sp)
   11fd8:	57ae                	lw	a5,232(sp)
   11fda:	8452                	mv	s0,s4
   11fdc:	bfc1                	j	11fac <_vfprintf_r+0xab8>
   11fde:	4705                	li	a4,1
   11fe0:	62e789e3          	beq	a5,a4,12e12 <_vfprintf_r+0x191e>
   11fe4:	4709                	li	a4,2
   11fe6:	8cee                	mv	s9,s11
   11fe8:	d0e793e3          	bne	a5,a4,11cee <_vfprintf_r+0x7fa>
   11fec:	7706                	ld	a4,96(sp)
   11fee:	0af4                	add	a3,sp,348
   11ff0:	8d36                	mv	s10,a3
   11ff2:	00f4f793          	and	a5,s1,15
   11ff6:	97ba                	add	a5,a5,a4
   11ff8:	0007c783          	lbu	a5,0(a5)
   11ffc:	8091                	srl	s1,s1,0x4
   11ffe:	1d7d                	add	s10,s10,-1
   12000:	00fd0023          	sb	a5,0(s10)
   12004:	f4fd                	bnez	s1,11ff2 <_vfprintf_r+0xafe>
   12006:	41a686bb          	subw	a3,a3,s10
   1200a:	8de6                	mv	s11,s9
   1200c:	81fff06f          	j	1182a <_vfprintf_r+0x336>
   12010:	418b8cbb          	subw	s9,s7,s8
   12014:	ef905463          	blez	s9,116fc <_vfprintf_r+0x208>
   12018:	68e5                	lui	a7,0x19
   1201a:	45c1                	li	a1,16
   1201c:	562e                	lw	a2,232(sp)
   1201e:	4a888893          	add	a7,a7,1192 # 194a8 <zeroes.0>
   12022:	0595df63          	bge	a1,s9,12080 <_vfprintf_r+0xb8c>
   12026:	87a2                	mv	a5,s0
   12028:	8726                	mv	a4,s1
   1202a:	8466                	mv	s0,s9
   1202c:	4f41                	li	t5,16
   1202e:	8ce2                	mv	s9,s8
   12030:	4f9d                	li	t6,7
   12032:	f49a                	sd	t1,104(sp)
   12034:	8c36                	mv	s8,a3
   12036:	84c6                	mv	s1,a7
   12038:	a021                	j	12040 <_vfprintf_r+0xb4c>
   1203a:	3441                	addw	s0,s0,-16
   1203c:	028f5b63          	bge	t5,s0,12072 <_vfprintf_r+0xb7e>
   12040:	2605                	addw	a2,a2,1
   12042:	0741                	add	a4,a4,16
   12044:	e384                	sd	s1,0(a5)
   12046:	01e7b423          	sd	t5,8(a5)
   1204a:	f9ba                	sd	a4,240(sp)
   1204c:	d5b2                	sw	a2,232(sp)
   1204e:	07c1                	add	a5,a5,16
   12050:	fecfd5e3          	bge	t6,a2,1203a <_vfprintf_r+0xb46>
   12054:	6522                	ld	a0,8(sp)
   12056:	1190                	add	a2,sp,224
   12058:	85ca                	mv	a1,s2
   1205a:	13e010ef          	jal	13198 <__sprint_r>
   1205e:	10051063          	bnez	a0,1215e <_vfprintf_r+0xc6a>
   12062:	4f41                	li	t5,16
   12064:	3441                	addw	s0,s0,-16
   12066:	774e                	ld	a4,240(sp)
   12068:	562e                	lw	a2,232(sp)
   1206a:	87d2                	mv	a5,s4
   1206c:	4f9d                	li	t6,7
   1206e:	fc8f49e3          	blt	t5,s0,12040 <_vfprintf_r+0xb4c>
   12072:	7326                	ld	t1,104(sp)
   12074:	86e2                	mv	a3,s8
   12076:	88a6                	mv	a7,s1
   12078:	8c66                	mv	s8,s9
   1207a:	84ba                	mv	s1,a4
   1207c:	8ca2                	mv	s9,s0
   1207e:	843e                	mv	s0,a5
   12080:	0016059b          	addw	a1,a2,1
   12084:	94e6                	add	s1,s1,s9
   12086:	01143023          	sd	a7,0(s0)
   1208a:	01943423          	sd	s9,8(s0)
   1208e:	f9a6                	sd	s1,240(sp)
   12090:	d5ae                	sw	a1,232(sp)
   12092:	471d                	li	a4,7
   12094:	0441                	add	s0,s0,16
   12096:	e6b75363          	bge	a4,a1,116fc <_vfprintf_r+0x208>
   1209a:	6522                	ld	a0,8(sp)
   1209c:	1190                	add	a2,sp,224
   1209e:	85ca                	mv	a1,s2
   120a0:	e936                	sd	a3,144(sp)
   120a2:	f49a                	sd	t1,104(sp)
   120a4:	0f4010ef          	jal	13198 <__sprint_r>
   120a8:	e95d                	bnez	a0,1215e <_vfprintf_r+0xc6a>
   120aa:	74ce                	ld	s1,240(sp)
   120ac:	66ca                	ld	a3,144(sp)
   120ae:	7326                	ld	t1,104(sp)
   120b0:	8452                	mv	s0,s4
   120b2:	e4aff06f          	j	116fc <_vfprintf_r+0x208>
   120b6:	68e5                	lui	a7,0x19
   120b8:	4741                	li	a4,16
   120ba:	562e                	lw	a2,232(sp)
   120bc:	4a888893          	add	a7,a7,1192 # 194a8 <zeroes.0>
   120c0:	05675d63          	bge	a4,s6,1211a <_vfprintf_r+0xc26>
   120c4:	85a6                	mv	a1,s1
   120c6:	87a2                	mv	a5,s0
   120c8:	84b6                	mv	s1,a3
   120ca:	845a                	mv	s0,s6
   120cc:	4741                	li	a4,16
   120ce:	4c9d                	li	s9,7
   120d0:	f49a                	sd	t1,104(sp)
   120d2:	8b56                	mv	s6,s5
   120d4:	86ae                	mv	a3,a1
   120d6:	a021                	j	120de <_vfprintf_r+0xbea>
   120d8:	3441                	addw	s0,s0,-16
   120da:	02875963          	bge	a4,s0,1210c <_vfprintf_r+0xc18>
   120de:	2605                	addw	a2,a2,1
   120e0:	06c1                	add	a3,a3,16
   120e2:	0157b023          	sd	s5,0(a5)
   120e6:	e798                	sd	a4,8(a5)
   120e8:	f9b6                	sd	a3,240(sp)
   120ea:	d5b2                	sw	a2,232(sp)
   120ec:	07c1                	add	a5,a5,16
   120ee:	feccd5e3          	bge	s9,a2,120d8 <_vfprintf_r+0xbe4>
   120f2:	6522                	ld	a0,8(sp)
   120f4:	1190                	add	a2,sp,224
   120f6:	85ca                	mv	a1,s2
   120f8:	0a0010ef          	jal	13198 <__sprint_r>
   120fc:	e12d                	bnez	a0,1215e <_vfprintf_r+0xc6a>
   120fe:	4741                	li	a4,16
   12100:	3441                	addw	s0,s0,-16
   12102:	76ce                	ld	a3,240(sp)
   12104:	562e                	lw	a2,232(sp)
   12106:	87d2                	mv	a5,s4
   12108:	fc874be3          	blt	a4,s0,120de <_vfprintf_r+0xbea>
   1210c:	7326                	ld	t1,104(sp)
   1210e:	8736                	mv	a4,a3
   12110:	88da                	mv	a7,s6
   12112:	86a6                	mv	a3,s1
   12114:	8b22                	mv	s6,s0
   12116:	84ba                	mv	s1,a4
   12118:	843e                	mv	s0,a5
   1211a:	0016059b          	addw	a1,a2,1
   1211e:	94da                	add	s1,s1,s6
   12120:	01143023          	sd	a7,0(s0)
   12124:	01643423          	sd	s6,8(s0)
   12128:	f9a6                	sd	s1,240(sp)
   1212a:	d5ae                	sw	a1,232(sp)
   1212c:	471d                	li	a4,7
   1212e:	0441                	add	s0,s0,16
   12130:	dcb75a63          	bge	a4,a1,11704 <_vfprintf_r+0x210>
   12134:	6522                	ld	a0,8(sp)
   12136:	1190                	add	a2,sp,224
   12138:	85ca                	mv	a1,s2
   1213a:	e936                	sd	a3,144(sp)
   1213c:	f49a                	sd	t1,104(sp)
   1213e:	05a010ef          	jal	13198 <__sprint_r>
   12142:	ed11                	bnez	a0,1215e <_vfprintf_r+0xc6a>
   12144:	74ce                	ld	s1,240(sp)
   12146:	66ca                	ld	a3,144(sp)
   12148:	7326                	ld	t1,104(sp)
   1214a:	8452                	mv	s0,s4
   1214c:	db8ff06f          	j	11704 <_vfprintf_r+0x210>
   12150:	6522                	ld	a0,8(sp)
   12152:	1190                	add	a2,sp,224
   12154:	85ca                	mv	a1,s2
   12156:	042010ef          	jal	13198 <__sprint_r>
   1215a:	de050663          	beqz	a0,11746 <_vfprintf_r+0x252>
   1215e:	65e2                	ld	a1,24(sp)
   12160:	e0058463          	beqz	a1,11768 <_vfprintf_r+0x274>
   12164:	6522                	ld	a0,8(sp)
   12166:	b45fe0ef          	jal	10caa <_free_r>
   1216a:	dfeff06f          	j	11768 <_vfprintf_r+0x274>
   1216e:	4705                	li	a4,1
   12170:	8cee                	mv	s9,s11
   12172:	b6e79be3          	bne	a5,a4,11ce8 <_vfprintf_r+0x7f4>
   12176:	47a5                	li	a5,9
   12178:	3697e263          	bltu	a5,s1,124dc <_vfprintf_r+0xfe8>
   1217c:	0304849b          	addw	s1,s1,48
   12180:	14910da3          	sb	s1,347(sp)
   12184:	8de6                	mv	s11,s9
   12186:	4685                	li	a3,1
   12188:	15b10d13          	add	s10,sp,347
   1218c:	e9eff06f          	j	1182a <_vfprintf_r+0x336>
   12190:	68e5                	lui	a7,0x19
   12192:	45c1                	li	a1,16
   12194:	562e                	lw	a2,232(sp)
   12196:	4b888893          	add	a7,a7,1208 # 194b8 <blanks.1>
   1219a:	04e5de63          	bge	a1,a4,121f6 <_vfprintf_r+0xd02>
   1219e:	ed36                	sd	a3,152(sp)
   121a0:	87a2                	mv	a5,s0
   121a2:	86a6                	mv	a3,s1
   121a4:	4f41                	li	t5,16
   121a6:	439d                	li	t2,7
   121a8:	f496                	sd	t0,104(sp)
   121aa:	e91a                	sd	t1,144(sp)
   121ac:	843a                	mv	s0,a4
   121ae:	84c6                	mv	s1,a7
   121b0:	a021                	j	121b8 <_vfprintf_r+0xcc4>
   121b2:	3441                	addw	s0,s0,-16
   121b4:	028f5a63          	bge	t5,s0,121e8 <_vfprintf_r+0xcf4>
   121b8:	2605                	addw	a2,a2,1
   121ba:	06c1                	add	a3,a3,16
   121bc:	e384                	sd	s1,0(a5)
   121be:	01e7b423          	sd	t5,8(a5)
   121c2:	f9b6                	sd	a3,240(sp)
   121c4:	d5b2                	sw	a2,232(sp)
   121c6:	07c1                	add	a5,a5,16
   121c8:	fec3d5e3          	bge	t2,a2,121b2 <_vfprintf_r+0xcbe>
   121cc:	6522                	ld	a0,8(sp)
   121ce:	1190                	add	a2,sp,224
   121d0:	85ca                	mv	a1,s2
   121d2:	7c7000ef          	jal	13198 <__sprint_r>
   121d6:	f541                	bnez	a0,1215e <_vfprintf_r+0xc6a>
   121d8:	4f41                	li	t5,16
   121da:	3441                	addw	s0,s0,-16
   121dc:	76ce                	ld	a3,240(sp)
   121de:	562e                	lw	a2,232(sp)
   121e0:	87d2                	mv	a5,s4
   121e2:	439d                	li	t2,7
   121e4:	fc8f4ae3          	blt	t5,s0,121b8 <_vfprintf_r+0xcc4>
   121e8:	88a6                	mv	a7,s1
   121ea:	72a6                	ld	t0,104(sp)
   121ec:	84b6                	mv	s1,a3
   121ee:	634a                	ld	t1,144(sp)
   121f0:	66ea                	ld	a3,152(sp)
   121f2:	8722                	mv	a4,s0
   121f4:	843e                	mv	s0,a5
   121f6:	94ba                	add	s1,s1,a4
   121f8:	0016059b          	addw	a1,a2,1
   121fc:	e418                	sd	a4,8(s0)
   121fe:	01143023          	sd	a7,0(s0)
   12202:	f9a6                	sd	s1,240(sp)
   12204:	d5ae                	sw	a1,232(sp)
   12206:	471d                	li	a4,7
   12208:	0441                	add	s0,s0,16
   1220a:	cab75163          	bge	a4,a1,116ac <_vfprintf_r+0x1b8>
   1220e:	6522                	ld	a0,8(sp)
   12210:	1190                	add	a2,sp,224
   12212:	85ca                	mv	a1,s2
   12214:	ed36                	sd	a3,152(sp)
   12216:	e91a                	sd	t1,144(sp)
   12218:	f496                	sd	t0,104(sp)
   1221a:	77f000ef          	jal	13198 <__sprint_r>
   1221e:	f121                	bnez	a0,1215e <_vfprintf_r+0xc6a>
   12220:	74ce                	ld	s1,240(sp)
   12222:	66ea                	ld	a3,152(sp)
   12224:	634a                	ld	t1,144(sp)
   12226:	72a6                	ld	t0,104(sp)
   12228:	8452                	mv	s0,s4
   1222a:	c82ff06f          	j	116ac <_vfprintf_r+0x1b8>
   1222e:	6522                	ld	a0,8(sp)
   12230:	1190                	add	a2,sp,224
   12232:	85ca                	mv	a1,s2
   12234:	e936                	sd	a3,144(sp)
   12236:	f49a                	sd	t1,104(sp)
   12238:	761000ef          	jal	13198 <__sprint_r>
   1223c:	f10d                	bnez	a0,1215e <_vfprintf_r+0xc6a>
   1223e:	74ce                	ld	s1,240(sp)
   12240:	66ca                	ld	a3,144(sp)
   12242:	7326                	ld	t1,104(sp)
   12244:	8452                	mv	s0,s4
   12246:	caeff06f          	j	116f4 <_vfprintf_r+0x200>
   1224a:	68e5                	lui	a7,0x19
   1224c:	4b888893          	add	a7,a7,1208 # 194b8 <blanks.1>
   12250:	4741                	li	a4,16
   12252:	57ae                	lw	a5,232(sp)
   12254:	4cc1                	li	s9,16
   12256:	4d1d                	li	s10,7
   12258:	8dc6                	mv	s11,a7
   1225a:	01674663          	blt	a4,s6,12266 <_vfprintf_r+0xd72>
   1225e:	a82d                	j	12298 <_vfprintf_r+0xda4>
   12260:	3b41                	addw	s6,s6,-16
   12262:	036cda63          	bge	s9,s6,12296 <_vfprintf_r+0xda2>
   12266:	2785                	addw	a5,a5,1
   12268:	04c1                	add	s1,s1,16
   1226a:	01b43023          	sd	s11,0(s0)
   1226e:	01943423          	sd	s9,8(s0)
   12272:	f9a6                	sd	s1,240(sp)
   12274:	d5be                	sw	a5,232(sp)
   12276:	0441                	add	s0,s0,16
   12278:	fefd54e3          	bge	s10,a5,12260 <_vfprintf_r+0xd6c>
   1227c:	6522                	ld	a0,8(sp)
   1227e:	1190                	add	a2,sp,224
   12280:	85ca                	mv	a1,s2
   12282:	717000ef          	jal	13198 <__sprint_r>
   12286:	ec051ce3          	bnez	a0,1215e <_vfprintf_r+0xc6a>
   1228a:	3b41                	addw	s6,s6,-16
   1228c:	74ce                	ld	s1,240(sp)
   1228e:	57ae                	lw	a5,232(sp)
   12290:	8452                	mv	s0,s4
   12292:	fd6ccae3          	blt	s9,s6,12266 <_vfprintf_r+0xd72>
   12296:	88ee                	mv	a7,s11
   12298:	0017871b          	addw	a4,a5,1
   1229c:	94da                	add	s1,s1,s6
   1229e:	01143023          	sd	a7,0(s0)
   122a2:	01643423          	sd	s6,8(s0)
   122a6:	f9a6                	sd	s1,240(sp)
   122a8:	d5ba                	sw	a4,232(sp)
   122aa:	479d                	li	a5,7
   122ac:	c8e7d463          	bge	a5,a4,11734 <_vfprintf_r+0x240>
   122b0:	6522                	ld	a0,8(sp)
   122b2:	1190                	add	a2,sp,224
   122b4:	85ca                	mv	a1,s2
   122b6:	6e3000ef          	jal	13198 <__sprint_r>
   122ba:	ea0512e3          	bnez	a0,1215e <_vfprintf_r+0xc6a>
   122be:	74ce                	ld	s1,240(sp)
   122c0:	c74ff06f          	j	11734 <_vfprintf_r+0x240>
   122c4:	576a                	lw	a4,184(sp)
   122c6:	40e05d63          	blez	a4,126e0 <_vfprintf_r+0x11ec>
   122ca:	77c2                	ld	a5,48(sp)
   122cc:	7762                	ld	a4,56(sp)
   122ce:	00078b1b          	sext.w	s6,a5
   122d2:	24f74f63          	blt	a4,a5,12530 <_vfprintf_r+0x103c>
   122d6:	03605063          	blez	s6,122f6 <_vfprintf_r+0xe02>
   122da:	572e                	lw	a4,232(sp)
   122dc:	94da                	add	s1,s1,s6
   122de:	01a43023          	sd	s10,0(s0)
   122e2:	0017069b          	addw	a3,a4,1
   122e6:	01643423          	sd	s6,8(s0)
   122ea:	f9a6                	sd	s1,240(sp)
   122ec:	d5b6                	sw	a3,232(sp)
   122ee:	471d                	li	a4,7
   122f0:	0441                	add	s0,s0,16
   122f2:	7cd74863          	blt	a4,a3,12ac2 <_vfprintf_r+0x15ce>
   122f6:	fffb4713          	not	a4,s6
   122fa:	77c2                	ld	a5,48(sp)
   122fc:	977d                	sra	a4,a4,0x3f
   122fe:	00eb7b33          	and	s6,s6,a4
   12302:	41678b3b          	subw	s6,a5,s6
   12306:	2d604c63          	bgtz	s6,125de <_vfprintf_r+0x10ea>
   1230a:	77c2                	ld	a5,48(sp)
   1230c:	400df713          	and	a4,s11,1024
   12310:	00fd0333          	add	t1,s10,a5
   12314:	62071063          	bnez	a4,12934 <_vfprintf_r+0x1440>
   12318:	576a                	lw	a4,184(sp)
   1231a:	77e2                	ld	a5,56(sp)
   1231c:	30f74663          	blt	a4,a5,12628 <_vfprintf_r+0x1134>
   12320:	001df693          	and	a3,s11,1
   12324:	30069263          	bnez	a3,12628 <_vfprintf_r+0x1134>
   12328:	76e2                	ld	a3,56(sp)
   1232a:	00dd07b3          	add	a5,s10,a3
   1232e:	40678b33          	sub	s6,a5,t1
   12332:	9e99                	subw	a3,a3,a4
   12334:	000b079b          	sext.w	a5,s6
   12338:	00f6d363          	bge	a3,a5,1233e <_vfprintf_r+0xe4a>
   1233c:	8b36                	mv	s6,a3
   1233e:	2b01                	sext.w	s6,s6
   12340:	03605063          	blez	s6,12360 <_vfprintf_r+0xe6c>
   12344:	57ae                	lw	a5,232(sp)
   12346:	94da                	add	s1,s1,s6
   12348:	00643023          	sd	t1,0(s0)
   1234c:	0017871b          	addw	a4,a5,1
   12350:	01643423          	sd	s6,8(s0)
   12354:	f9a6                	sd	s1,240(sp)
   12356:	d5ba                	sw	a4,232(sp)
   12358:	479d                	li	a5,7
   1235a:	0441                	add	s0,s0,16
   1235c:	1ee7cae3          	blt	a5,a4,12d50 <_vfprintf_r+0x185c>
   12360:	fffb4793          	not	a5,s6
   12364:	97fd                	sra	a5,a5,0x3f
   12366:	00fb7b33          	and	s6,s6,a5
   1236a:	41668b3b          	subw	s6,a3,s6
   1236e:	bb605b63          	blez	s6,11724 <_vfprintf_r+0x230>
   12372:	68e5                	lui	a7,0x19
   12374:	4741                	li	a4,16
   12376:	57ae                	lw	a5,232(sp)
   12378:	4a888893          	add	a7,a7,1192 # 194a8 <zeroes.0>
   1237c:	3f675863          	bge	a4,s6,1276c <_vfprintf_r+0x1278>
   12380:	f84e                	sd	s3,48(sp)
   12382:	4cc1                	li	s9,16
   12384:	89ca                	mv	s3,s2
   12386:	4d1d                	li	s10,7
   12388:	895a                	mv	s2,s6
   1238a:	8b46                	mv	s6,a7
   1238c:	a021                	j	12394 <_vfprintf_r+0xea0>
   1238e:	3941                	addw	s2,s2,-16
   12390:	172cd1e3          	bge	s9,s2,12cf2 <_vfprintf_r+0x17fe>
   12394:	2785                	addw	a5,a5,1
   12396:	04c1                	add	s1,s1,16
   12398:	01643023          	sd	s6,0(s0)
   1239c:	01943423          	sd	s9,8(s0)
   123a0:	f9a6                	sd	s1,240(sp)
   123a2:	d5be                	sw	a5,232(sp)
   123a4:	0441                	add	s0,s0,16
   123a6:	fefd54e3          	bge	s10,a5,1238e <_vfprintf_r+0xe9a>
   123aa:	6522                	ld	a0,8(sp)
   123ac:	1190                	add	a2,sp,224
   123ae:	85ce                	mv	a1,s3
   123b0:	5e9000ef          	jal	13198 <__sprint_r>
   123b4:	3e0514e3          	bnez	a0,12f9c <_vfprintf_r+0x1aa8>
   123b8:	74ce                	ld	s1,240(sp)
   123ba:	57ae                	lw	a5,232(sp)
   123bc:	8452                	mv	s0,s4
   123be:	bfc1                	j	1238e <_vfprintf_r+0xe9a>
   123c0:	001df613          	and	a2,s11,1
   123c4:	82061de3          	bnez	a2,11bfe <_vfprintf_r+0x70a>
   123c8:	e414                	sd	a3,8(s0)
   123ca:	f9a6                	sd	s1,240(sp)
   123cc:	d5da                	sw	s6,232(sp)
   123ce:	479d                	li	a5,7
   123d0:	8967d5e3          	bge	a5,s6,11c5a <_vfprintf_r+0x766>
   123d4:	6522                	ld	a0,8(sp)
   123d6:	1190                	add	a2,sp,224
   123d8:	85ca                	mv	a1,s2
   123da:	5bf000ef          	jal	13198 <__sprint_r>
   123de:	d80510e3          	bnez	a0,1215e <_vfprintf_r+0xc6a>
   123e2:	74ce                	ld	s1,240(sp)
   123e4:	5b2e                	lw	s6,232(sp)
   123e6:	8cd2                	mv	s9,s4
   123e8:	b88d                	j	11c5a <_vfprintf_r+0x766>
   123ea:	7762                	ld	a4,56(sp)
   123ec:	4785                	li	a5,1
   123ee:	86e7d6e3          	bge	a5,a4,11c5a <_vfprintf_r+0x766>
   123f2:	68e5                	lui	a7,0x19
   123f4:	47c5                	li	a5,17
   123f6:	4a888893          	add	a7,a7,1192 # 194a8 <zeroes.0>
   123fa:	44e7dd63          	bge	a5,a4,12854 <_vfprintf_r+0x1360>
   123fe:	f84e                	sd	s3,48(sp)
   12400:	4741                	li	a4,16
   12402:	4d1d                	li	s10,7
   12404:	89c6                	mv	s3,a7
   12406:	a021                	j	1240e <_vfprintf_r+0xf1a>
   12408:	3441                	addw	s0,s0,-16
   1240a:	44875363          	bge	a4,s0,12850 <_vfprintf_r+0x135c>
   1240e:	2b05                	addw	s6,s6,1
   12410:	04c1                	add	s1,s1,16
   12412:	013cb023          	sd	s3,0(s9)
   12416:	00ecb423          	sd	a4,8(s9)
   1241a:	f9a6                	sd	s1,240(sp)
   1241c:	d5da                	sw	s6,232(sp)
   1241e:	0cc1                	add	s9,s9,16
   12420:	ff6d54e3          	bge	s10,s6,12408 <_vfprintf_r+0xf14>
   12424:	6522                	ld	a0,8(sp)
   12426:	1190                	add	a2,sp,224
   12428:	85ca                	mv	a1,s2
   1242a:	56f000ef          	jal	13198 <__sprint_r>
   1242e:	d20518e3          	bnez	a0,1215e <_vfprintf_r+0xc6a>
   12432:	74ce                	ld	s1,240(sp)
   12434:	5b2e                	lw	s6,232(sp)
   12436:	8cd2                	mv	s9,s4
   12438:	4741                	li	a4,16
   1243a:	b7f9                	j	12408 <_vfprintf_r+0xf14>
   1243c:	010cf793          	and	a5,s9,16
   12440:	e3a9                	bnez	a5,12482 <_vfprintf_r+0xf8e>
   12442:	7682                	ld	a3,32(sp)
   12444:	040cf793          	and	a5,s9,64
   12448:	4284                	lw	s1,0(a3)
   1244a:	44078463          	beqz	a5,12892 <_vfprintf_r+0x139e>
   1244e:	14c2                	sll	s1,s1,0x30
   12450:	90c1                	srl	s1,s1,0x30
   12452:	f03a                	sd	a4,32(sp)
   12454:	4785                	li	a5,1
   12456:	c16ff06f          	j	1186c <_vfprintf_r+0x378>
   1245a:	4681                	li	a3,0
   1245c:	15c10d13          	add	s10,sp,348
   12460:	bcaff06f          	j	1182a <_vfprintf_r+0x336>
   12464:	001df793          	and	a5,s11,1
   12468:	aa078e63          	beqz	a5,11724 <_vfprintf_r+0x230>
   1246c:	bcfd                	j	11f6a <_vfprintf_r+0xa76>
   1246e:	0009c303          	lbu	t1,0(s3)
   12472:	f03e                	sd	a5,32(sp)
   12474:	9a8ff06f          	j	1161c <_vfprintf_r+0x128>
   12478:	7782                	ld	a5,32(sp)
   1247a:	639c                	ld	a5,0(a5)
   1247c:	84be                	mv	s1,a5
   1247e:	b86ff06f          	j	11804 <_vfprintf_r+0x310>
   12482:	7782                	ld	a5,32(sp)
   12484:	f03a                	sd	a4,32(sp)
   12486:	6384                	ld	s1,0(a5)
   12488:	4785                	li	a5,1
   1248a:	be2ff06f          	j	1186c <_vfprintf_r+0x378>
   1248e:	010df793          	and	a5,s11,16
   12492:	a4079ee3          	bnez	a5,11eee <_vfprintf_r+0x9fa>
   12496:	040df793          	and	a5,s11,64
   1249a:	66079163          	bnez	a5,12afc <_vfprintf_r+0x1608>
   1249e:	200dfe13          	and	t3,s11,512
   124a2:	67c2                	ld	a5,16(sp)
   124a4:	200e00e3          	beqz	t3,12ea4 <_vfprintf_r+0x19b0>
   124a8:	00f70023          	sb	a5,0(a4)
   124ac:	b499                	j	11ef2 <_vfprintf_r+0x9fe>
   124ae:	7782                	ld	a5,32(sp)
   124b0:	6384                	ld	s1,0(a5)
   124b2:	bb0ff06f          	j	11862 <_vfprintf_r+0x36e>
   124b6:	7782                	ld	a5,32(sp)
   124b8:	00f78c13          	add	s8,a5,15
   124bc:	ff0c7c13          	and	s8,s8,-16
   124c0:	010c0793          	add	a5,s8,16
   124c4:	000c3703          	ld	a4,0(s8)
   124c8:	008c3583          	ld	a1,8(s8)
   124cc:	f03e                	sd	a5,32(sp)
   124ce:	c10ff06f          	j	118de <_vfprintf_r+0x3ea>
   124d2:	f03a                	sd	a4,32(sp)
   124d4:	47a5                	li	a5,9
   124d6:	8cee                	mv	s9,s11
   124d8:	ca97f2e3          	bgeu	a5,s1,1217c <_vfprintf_r+0xc88>
   124dc:	0af4                	add	a3,sp,348
   124de:	688a                	ld	a7,128(sp)
   124e0:	400cf713          	and	a4,s9,1024
   124e4:	4601                	li	a2,0
   124e6:	85b6                	mv	a1,a3
   124e8:	4da9                	li	s11,10
   124ea:	4825                	li	a6,9
   124ec:	0ff00c13          	li	s8,255
   124f0:	a039                	j	124fe <_vfprintf_r+0x100a>
   124f2:	03b4d7b3          	divu	a5,s1,s11
   124f6:	02987663          	bgeu	a6,s1,12522 <_vfprintf_r+0x102e>
   124fa:	84be                	mv	s1,a5
   124fc:	85ea                	mv	a1,s10
   124fe:	fff58d13          	add	s10,a1,-1 # 1fff <exit-0xe0e9>
   12502:	2605                	addw	a2,a2,1
   12504:	03b4f7b3          	remu	a5,s1,s11
   12508:	0307879b          	addw	a5,a5,48
   1250c:	fef58fa3          	sb	a5,-1(a1)
   12510:	d36d                	beqz	a4,124f2 <_vfprintf_r+0xffe>
   12512:	0008c783          	lbu	a5,0(a7)
   12516:	fcf61ee3          	bne	a2,a5,124f2 <_vfprintf_r+0xffe>
   1251a:	fd878ce3          	beq	a5,s8,124f2 <_vfprintf_r+0xffe>
   1251e:	3e986063          	bltu	a6,s1,128fe <_vfprintf_r+0x140a>
   12522:	fc32                	sd	a2,56(sp)
   12524:	e146                	sd	a7,128(sp)
   12526:	41a686bb          	subw	a3,a3,s10
   1252a:	8de6                	mv	s11,s9
   1252c:	afeff06f          	j	1182a <_vfprintf_r+0x336>
   12530:	00070b1b          	sext.w	s6,a4
   12534:	db6043e3          	bgtz	s6,122da <_vfprintf_r+0xde6>
   12538:	bb7d                	j	122f6 <_vfprintf_r+0xe02>
   1253a:	5b7d                	li	s6,-1
   1253c:	89ba                	mv	s3,a4
   1253e:	8e2ff06f          	j	11620 <_vfprintf_r+0x12c>
   12542:	8cee                	mv	s9,s11
   12544:	b8f1                	j	11e20 <_vfprintf_r+0x92c>
   12546:	67e5                	lui	a5,0x19
   12548:	24078793          	add	a5,a5,576 # 19240 <__clzdi2+0x9e>
   1254c:	f0be                	sd	a5,96(sp)
   1254e:	7682                	ld	a3,32(sp)
   12550:	020df793          	and	a5,s11,32
   12554:	00868713          	add	a4,a3,8
   12558:	14078663          	beqz	a5,126a4 <_vfprintf_r+0x11b0>
   1255c:	6284                	ld	s1,0(a3)
   1255e:	001df793          	and	a5,s11,1
   12562:	cf81                	beqz	a5,1257a <_vfprintf_r+0x1086>
   12564:	c899                	beqz	s1,1257a <_vfprintf_r+0x1086>
   12566:	002dee13          	or	t3,s11,2
   1256a:	03000793          	li	a5,48
   1256e:	0af10823          	sb	a5,176(sp)
   12572:	0a6108a3          	sb	t1,177(sp)
   12576:	000e0d9b          	sext.w	s11,t3
   1257a:	bffdfc93          	and	s9,s11,-1025
   1257e:	2c81                	sext.w	s9,s9
   12580:	f03a                	sd	a4,32(sp)
   12582:	4789                	li	a5,2
   12584:	ae8ff06f          	j	1186c <_vfprintf_r+0x378>
   12588:	67e5                	lui	a5,0x19
   1258a:	22878793          	add	a5,a5,552 # 19228 <__clzdi2+0x86>
   1258e:	f0be                	sd	a5,96(sp)
   12590:	bf7d                	j	1254e <_vfprintf_r+0x105a>
   12592:	200ded93          	or	s11,s11,512
   12596:	0019c303          	lbu	t1,1(s3)
   1259a:	2d81                	sext.w	s11,s11
   1259c:	0985                	add	s3,s3,1
   1259e:	87eff06f          	j	1161c <_vfprintf_r+0x128>
   125a2:	020ded93          	or	s11,s11,32
   125a6:	0019c303          	lbu	t1,1(s3)
   125aa:	2d81                	sext.w	s11,s11
   125ac:	0985                	add	s3,s3,1
   125ae:	86eff06f          	j	1161c <_vfprintf_r+0x128>
   125b2:	6522                	ld	a0,8(sp)
   125b4:	1190                	add	a2,sp,224
   125b6:	85ca                	mv	a1,s2
   125b8:	3e1000ef          	jal	13198 <__sprint_r>
   125bc:	ba0511e3          	bnez	a0,1215e <_vfprintf_r+0xc6a>
   125c0:	74ce                	ld	s1,240(sp)
   125c2:	8452                	mv	s0,s4
   125c4:	b2d1                	j	11f88 <_vfprintf_r+0xa94>
   125c6:	4799                	li	a5,6
   125c8:	000b069b          	sext.w	a3,s6
   125cc:	5167e663          	bltu	a5,s6,12ad8 <_vfprintf_r+0x15e4>
   125d0:	67e5                	lui	a5,0x19
   125d2:	8c36                	mv	s8,a3
   125d4:	f026                	sd	s1,32(sp)
   125d6:	25878d13          	add	s10,a5,600 # 19258 <__clzdi2+0xb6>
   125da:	8acff06f          	j	11686 <_vfprintf_r+0x192>
   125de:	68e5                	lui	a7,0x19
   125e0:	46c1                	li	a3,16
   125e2:	572e                	lw	a4,232(sp)
   125e4:	4a888893          	add	a7,a7,1192 # 194a8 <zeroes.0>
   125e8:	2f66d463          	bge	a3,s6,128d0 <_vfprintf_r+0x13dc>
   125ec:	46c1                	li	a3,16
   125ee:	431d                	li	t1,7
   125f0:	8cc6                	mv	s9,a7
   125f2:	a021                	j	125fa <_vfprintf_r+0x1106>
   125f4:	3b41                	addw	s6,s6,-16
   125f6:	2d66dc63          	bge	a3,s6,128ce <_vfprintf_r+0x13da>
   125fa:	2705                	addw	a4,a4,1
   125fc:	04c1                	add	s1,s1,16
   125fe:	01943023          	sd	s9,0(s0)
   12602:	e414                	sd	a3,8(s0)
   12604:	f9a6                	sd	s1,240(sp)
   12606:	d5ba                	sw	a4,232(sp)
   12608:	0441                	add	s0,s0,16
   1260a:	fee355e3          	bge	t1,a4,125f4 <_vfprintf_r+0x1100>
   1260e:	6522                	ld	a0,8(sp)
   12610:	1190                	add	a2,sp,224
   12612:	85ca                	mv	a1,s2
   12614:	385000ef          	jal	13198 <__sprint_r>
   12618:	b40513e3          	bnez	a0,1215e <_vfprintf_r+0xc6a>
   1261c:	74ce                	ld	s1,240(sp)
   1261e:	572e                	lw	a4,232(sp)
   12620:	8452                	mv	s0,s4
   12622:	431d                	li	t1,7
   12624:	46c1                	li	a3,16
   12626:	b7f9                	j	125f4 <_vfprintf_r+0x1100>
   12628:	56ae                	lw	a3,232(sp)
   1262a:	67c6                	ld	a5,80(sp)
   1262c:	6666                	ld	a2,88(sp)
   1262e:	0441                	add	s0,s0,16
   12630:	94be                	add	s1,s1,a5
   12632:	fec43823          	sd	a2,-16(s0)
   12636:	0016861b          	addw	a2,a3,1
   1263a:	fef43c23          	sd	a5,-8(s0)
   1263e:	f9a6                	sd	s1,240(sp)
   12640:	d5b2                	sw	a2,232(sp)
   12642:	469d                	li	a3,7
   12644:	cec6d2e3          	bge	a3,a2,12328 <_vfprintf_r+0xe34>
   12648:	6522                	ld	a0,8(sp)
   1264a:	1190                	add	a2,sp,224
   1264c:	85ca                	mv	a1,s2
   1264e:	f81a                	sd	t1,48(sp)
   12650:	349000ef          	jal	13198 <__sprint_r>
   12654:	b00515e3          	bnez	a0,1215e <_vfprintf_r+0xc6a>
   12658:	576a                	lw	a4,184(sp)
   1265a:	74ce                	ld	s1,240(sp)
   1265c:	7342                	ld	t1,48(sp)
   1265e:	8452                	mv	s0,s4
   12660:	b1e1                	j	12328 <_vfprintf_r+0xe34>
   12662:	07800793          	li	a5,120
   12666:	03000693          	li	a3,48
   1266a:	002de713          	or	a4,s11,2
   1266e:	0af108a3          	sb	a5,177(sp)
   12672:	0ad10823          	sb	a3,176(sp)
   12676:	06300793          	li	a5,99
   1267a:	2701                	sext.w	a4,a4
   1267c:	4b67cf63          	blt	a5,s6,12b3a <_vfprintf_r+0x1646>
   12680:	67ce                	ld	a5,208(sp)
   12682:	6cee                	ld	s9,216(sp)
   12684:	102dee13          	or	t3,s11,258
   12688:	f83e                	sd	a5,48(sp)
   1268a:	000e049b          	sext.w	s1,t3
   1268e:	600ccf63          	bltz	s9,12cac <_vfprintf_r+0x17b8>
   12692:	fbf3069b          	addw	a3,t1,-65
   12696:	8dba                	mv	s11,a4
   12698:	f482                	sd	zero,104(sp)
   1269a:	ec02                	sd	zero,24(sp)
   1269c:	0f810d13          	add	s10,sp,248
   126a0:	ab6ff06f          	j	11956 <_vfprintf_r+0x462>
   126a4:	010df793          	and	a5,s11,16
   126a8:	c7d1                	beqz	a5,12734 <_vfprintf_r+0x1240>
   126aa:	7782                	ld	a5,32(sp)
   126ac:	6384                	ld	s1,0(a5)
   126ae:	bd45                	j	1255e <_vfprintf_r+0x106a>
   126b0:	6522                	ld	a0,8(sp)
   126b2:	1190                	add	a2,sp,224
   126b4:	85ca                	mv	a1,s2
   126b6:	2e3000ef          	jal	13198 <__sprint_r>
   126ba:	aa0512e3          	bnez	a0,1215e <_vfprintf_r+0xc6a>
   126be:	74ce                	ld	s1,240(sp)
   126c0:	5b2e                	lw	s6,232(sp)
   126c2:	8cd2                	mv	s9,s4
   126c4:	d48ff06f          	j	11c0c <_vfprintf_r+0x718>
   126c8:	6522                	ld	a0,8(sp)
   126ca:	1190                	add	a2,sp,224
   126cc:	85ca                	mv	a1,s2
   126ce:	2cb000ef          	jal	13198 <__sprint_r>
   126d2:	a80516e3          	bnez	a0,1215e <_vfprintf_r+0xc6a>
   126d6:	74ce                	ld	s1,240(sp)
   126d8:	5b2e                	lw	s6,232(sp)
   126da:	8cd2                	mv	s9,s4
   126dc:	d4cff06f          	j	11c28 <_vfprintf_r+0x734>
   126e0:	56ae                	lw	a3,232(sp)
   126e2:	6665                	lui	a2,0x19
   126e4:	26060613          	add	a2,a2,608 # 19260 <__clzdi2+0xbe>
   126e8:	2685                	addw	a3,a3,1
   126ea:	e010                	sd	a2,0(s0)
   126ec:	0485                	add	s1,s1,1
   126ee:	4605                	li	a2,1
   126f0:	e410                	sd	a2,8(s0)
   126f2:	d5b6                	sw	a3,232(sp)
   126f4:	0006861b          	sext.w	a2,a3
   126f8:	f9a6                	sd	s1,240(sp)
   126fa:	469d                	li	a3,7
   126fc:	0441                	add	s0,s0,16
   126fe:	3ac6c363          	blt	a3,a2,12aa4 <_vfprintf_r+0x15b0>
   12702:	10071363          	bnez	a4,12808 <_vfprintf_r+0x1314>
   12706:	77e2                	ld	a5,56(sp)
   12708:	001df713          	and	a4,s11,1
   1270c:	8f5d                	or	a4,a4,a5
   1270e:	e319                	bnez	a4,12714 <_vfprintf_r+0x1220>
   12710:	814ff06f          	j	11724 <_vfprintf_r+0x230>
   12714:	572e                	lw	a4,232(sp)
   12716:	67c6                	ld	a5,80(sp)
   12718:	66e6                	ld	a3,88(sp)
   1271a:	00978633          	add	a2,a5,s1
   1271e:	e014                	sd	a3,0(s0)
   12720:	0017069b          	addw	a3,a4,1
   12724:	e41c                	sd	a5,8(s0)
   12726:	f9b2                	sd	a2,240(sp)
   12728:	d5b6                	sw	a3,232(sp)
   1272a:	471d                	li	a4,7
   1272c:	3ed74b63          	blt	a4,a3,12b22 <_vfprintf_r+0x162e>
   12730:	0441                	add	s0,s0,16
   12732:	a8f5                	j	1282e <_vfprintf_r+0x133a>
   12734:	7682                	ld	a3,32(sp)
   12736:	040df793          	and	a5,s11,64
   1273a:	4284                	lw	s1,0(a3)
   1273c:	16078563          	beqz	a5,128a6 <_vfprintf_r+0x13b2>
   12740:	14c2                	sll	s1,s1,0x30
   12742:	90c1                	srl	s1,s1,0x30
   12744:	bd29                	j	1255e <_vfprintf_r+0x106a>
   12746:	6522                	ld	a0,8(sp)
   12748:	f41fd0ef          	jal	10688 <__sinit>
   1274c:	de3fe06f          	j	1152e <_vfprintf_r+0x3a>
   12750:	6522                	ld	a0,8(sp)
   12752:	1190                	add	a2,sp,224
   12754:	85ca                	mv	a1,s2
   12756:	243000ef          	jal	13198 <__sprint_r>
   1275a:	a00512e3          	bnez	a0,1215e <_vfprintf_r+0xc6a>
   1275e:	74ce                	ld	s1,240(sp)
   12760:	8452                	mv	s0,s4
   12762:	801ff06f          	j	11f62 <_vfprintf_r+0xa6e>
   12766:	88da                	mv	a7,s6
   12768:	8b4e                	mv	s6,s3
   1276a:	79c2                	ld	s3,48(sp)
   1276c:	0017871b          	addw	a4,a5,1
   12770:	01143023          	sd	a7,0(s0)
   12774:	01643423          	sd	s6,8(s0)
   12778:	94da                	add	s1,s1,s6
   1277a:	f9a6                	sd	s1,240(sp)
   1277c:	d5ba                	sw	a4,232(sp)
   1277e:	479d                	li	a5,7
   12780:	00e7c463          	blt	a5,a4,12788 <_vfprintf_r+0x1294>
   12784:	f9ffe06f          	j	11722 <_vfprintf_r+0x22e>
   12788:	cf4ff06f          	j	11c7c <_vfprintf_r+0x788>
   1278c:	f03a                	sd	a4,32(sp)
   1278e:	b2e5                	j	12176 <_vfprintf_r+0xc82>
   12790:	654e                	ld	a0,208(sp)
   12792:	65ee                	ld	a1,216(sp)
   12794:	4601                	li	a2,0
   12796:	4681                	li	a3,0
   12798:	183050ef          	jal	1811a <__letf2>
   1279c:	6362                	ld	t1,24(sp)
   1279e:	54054363          	bltz	a0,12ce4 <_vfprintf_r+0x17f0>
   127a2:	0af14703          	lbu	a4,175(sp)
   127a6:	04700793          	li	a5,71
   127aa:	3067d863          	bge	a5,t1,12aba <_vfprintf_r+0x15c6>
   127ae:	67e5                	lui	a5,0x19
   127b0:	21078d13          	add	s10,a5,528 # 19210 <__clzdi2+0x6e>
   127b4:	f7fdfe13          	and	t3,s11,-129
   127b8:	ec02                	sd	zero,24(sp)
   127ba:	e482                	sd	zero,72(sp)
   127bc:	e082                	sd	zero,64(sp)
   127be:	f802                	sd	zero,48(sp)
   127c0:	000e0d9b          	sext.w	s11,t3
   127c4:	4c0d                	li	s8,3
   127c6:	468d                	li	a3,3
   127c8:	4b01                	li	s6,0
   127ca:	c319                	beqz	a4,127d0 <_vfprintf_r+0x12dc>
   127cc:	87aff06f          	j	11846 <_vfprintf_r+0x352>
   127d0:	ec1fe06f          	j	11690 <_vfprintf_r+0x19c>
   127d4:	856a                	mv	a0,s10
   127d6:	f49a                	sd	t1,104(sp)
   127d8:	5a4020ef          	jal	14d7c <strlen>
   127dc:	0005069b          	sext.w	a3,a0
   127e0:	0af14703          	lbu	a4,175(sp)
   127e4:	fff6c813          	not	a6,a3
   127e8:	43f85813          	sra	a6,a6,0x3f
   127ec:	f026                	sd	s1,32(sp)
   127ee:	ec02                	sd	zero,24(sp)
   127f0:	e482                	sd	zero,72(sp)
   127f2:	e082                	sd	zero,64(sp)
   127f4:	f802                	sd	zero,48(sp)
   127f6:	7326                	ld	t1,104(sp)
   127f8:	00d87c33          	and	s8,a6,a3
   127fc:	4b01                	li	s6,0
   127fe:	c319                	beqz	a4,12804 <_vfprintf_r+0x1310>
   12800:	846ff06f          	j	11846 <_vfprintf_r+0x352>
   12804:	e8dfe06f          	j	11690 <_vfprintf_r+0x19c>
   12808:	55ae                	lw	a1,232(sp)
   1280a:	67c6                	ld	a5,80(sp)
   1280c:	66e6                	ld	a3,88(sp)
   1280e:	0441                	add	s0,s0,16
   12810:	00978633          	add	a2,a5,s1
   12814:	fed43823          	sd	a3,-16(s0)
   12818:	0015869b          	addw	a3,a1,1
   1281c:	fef43c23          	sd	a5,-8(s0)
   12820:	f9b2                	sd	a2,240(sp)
   12822:	d5b6                	sw	a3,232(sp)
   12824:	459d                	li	a1,7
   12826:	2ed5ce63          	blt	a1,a3,12b22 <_vfprintf_r+0x162e>
   1282a:	54074663          	bltz	a4,12d76 <_vfprintf_r+0x1882>
   1282e:	77e2                	ld	a5,56(sp)
   12830:	0016871b          	addw	a4,a3,1
   12834:	01a43023          	sd	s10,0(s0)
   12838:	00c784b3          	add	s1,a5,a2
   1283c:	e41c                	sd	a5,8(s0)
   1283e:	f9a6                	sd	s1,240(sp)
   12840:	d5ba                	sw	a4,232(sp)
   12842:	479d                	li	a5,7
   12844:	00e7c463          	blt	a5,a4,1284c <_vfprintf_r+0x1358>
   12848:	edbfe06f          	j	11722 <_vfprintf_r+0x22e>
   1284c:	c30ff06f          	j	11c7c <_vfprintf_r+0x788>
   12850:	88ce                	mv	a7,s3
   12852:	79c2                	ld	s3,48(sp)
   12854:	2b05                	addw	s6,s6,1
   12856:	94a2                	add	s1,s1,s0
   12858:	011cb023          	sd	a7,0(s9)
   1285c:	008cb423          	sd	s0,8(s9)
   12860:	f9a6                	sd	s1,240(sp)
   12862:	d5da                	sw	s6,232(sp)
   12864:	479d                	li	a5,7
   12866:	bf67d963          	bge	a5,s6,11c58 <_vfprintf_r+0x764>
   1286a:	b6ad                	j	123d4 <_vfprintf_r+0xee0>
   1286c:	200df793          	and	a5,s11,512
   12870:	28078263          	beqz	a5,12af4 <_vfprintf_r+0x1600>
   12874:	0ff4f493          	zext.b	s1,s1
   12878:	febfe06f          	j	11862 <_vfprintf_r+0x36e>
   1287c:	200df793          	and	a5,s11,512
   12880:	26078763          	beqz	a5,12aee <_vfprintf_r+0x15fa>
   12884:	0184949b          	sllw	s1,s1,0x18
   12888:	4184d49b          	sraw	s1,s1,0x18
   1288c:	87a6                	mv	a5,s1
   1288e:	f77fe06f          	j	11804 <_vfprintf_r+0x310>
   12892:	200cf793          	and	a5,s9,512
   12896:	24078663          	beqz	a5,12ae2 <_vfprintf_r+0x15ee>
   1289a:	0ff4f493          	zext.b	s1,s1
   1289e:	f03a                	sd	a4,32(sp)
   128a0:	4785                	li	a5,1
   128a2:	fcbfe06f          	j	1186c <_vfprintf_r+0x378>
   128a6:	200df793          	and	a5,s11,512
   128aa:	22078963          	beqz	a5,12adc <_vfprintf_r+0x15e8>
   128ae:	0ff4f493          	zext.b	s1,s1
   128b2:	b175                	j	1255e <_vfprintf_r+0x106a>
   128b4:	67ee                	ld	a5,216(sp)
   128b6:	2407cf63          	bltz	a5,12b14 <_vfprintf_r+0x1620>
   128ba:	0af14703          	lbu	a4,175(sp)
   128be:	04700793          	li	a5,71
   128c2:	4a67c663          	blt	a5,t1,12d6e <_vfprintf_r+0x187a>
   128c6:	67e5                	lui	a5,0x19
   128c8:	21878d13          	add	s10,a5,536 # 19218 <__clzdi2+0x76>
   128cc:	b5e5                	j	127b4 <_vfprintf_r+0x12c0>
   128ce:	88e6                	mv	a7,s9
   128d0:	0017069b          	addw	a3,a4,1
   128d4:	94da                	add	s1,s1,s6
   128d6:	01143023          	sd	a7,0(s0)
   128da:	01643423          	sd	s6,8(s0)
   128de:	f9a6                	sd	s1,240(sp)
   128e0:	d5b6                	sw	a3,232(sp)
   128e2:	471d                	li	a4,7
   128e4:	0441                	add	s0,s0,16
   128e6:	a2d752e3          	bge	a4,a3,1230a <_vfprintf_r+0xe16>
   128ea:	6522                	ld	a0,8(sp)
   128ec:	1190                	add	a2,sp,224
   128ee:	85ca                	mv	a1,s2
   128f0:	0a9000ef          	jal	13198 <__sprint_r>
   128f4:	860515e3          	bnez	a0,1215e <_vfprintf_r+0xc6a>
   128f8:	74ce                	ld	s1,240(sp)
   128fa:	8452                	mv	s0,s4
   128fc:	b439                	j	1230a <_vfprintf_r+0xe16>
   128fe:	67aa                	ld	a5,136(sp)
   12900:	75e6                	ld	a1,120(sp)
   12902:	e0b6                	sd	a3,64(sp)
   12904:	40fd0d33          	sub	s10,s10,a5
   12908:	863e                	mv	a2,a5
   1290a:	856a                	mv	a0,s10
   1290c:	fc3a                	sd	a4,56(sp)
   1290e:	f81a                	sd	t1,48(sp)
   12910:	ec46                	sd	a7,24(sp)
   12912:	0a0020ef          	jal	149b2 <strncpy>
   12916:	68e2                	ld	a7,24(sp)
   12918:	47a9                	li	a5,10
   1291a:	02f4d7b3          	divu	a5,s1,a5
   1291e:	0018c603          	lbu	a2,1(a7)
   12922:	7342                	ld	t1,48(sp)
   12924:	7762                	ld	a4,56(sp)
   12926:	00c03633          	snez	a2,a2
   1292a:	98b2                	add	a7,a7,a2
   1292c:	6686                	ld	a3,64(sp)
   1292e:	4601                	li	a2,0
   12930:	4825                	li	a6,9
   12932:	b6e1                	j	124fa <_vfprintf_r+0x1006>
   12934:	77e2                	ld	a5,56(sp)
   12936:	6c86                	ld	s9,64(sp)
   12938:	68e5                	lui	a7,0x19
   1293a:	00fd05b3          	add	a1,s10,a5
   1293e:	f4ce                	sd	s3,104(sp)
   12940:	e96e                	sd	s11,144(sp)
   12942:	ed5e                	sd	s7,152(sp)
   12944:	6da6                	ld	s11,72(sp)
   12946:	e0e2                	sd	s8,64(sp)
   12948:	e4ea                	sd	s10,72(sp)
   1294a:	8626                	mv	a2,s1
   1294c:	6baa                	ld	s7,136(sp)
   1294e:	6c0a                	ld	s8,128(sp)
   12950:	69a2                	ld	s3,8(sp)
   12952:	469d                	li	a3,7
   12954:	4741                	li	a4,16
   12956:	4a888b13          	add	s6,a7,1192 # 194a8 <zeroes.0>
   1295a:	87a2                	mv	a5,s0
   1295c:	8d1a                	mv	s10,t1
   1295e:	84ae                	mv	s1,a1
   12960:	07905d63          	blez	s9,129da <_vfprintf_r+0x14e6>
   12964:	11b05163          	blez	s11,12a66 <_vfprintf_r+0x1572>
   12968:	3dfd                	addw	s11,s11,-1
   1296a:	55ae                	lw	a1,232(sp)
   1296c:	7566                	ld	a0,120(sp)
   1296e:	965e                	add	a2,a2,s7
   12970:	0177b423          	sd	s7,8(a5)
   12974:	e388                	sd	a0,0(a5)
   12976:	0015851b          	addw	a0,a1,1
   1297a:	f9b2                	sd	a2,240(sp)
   1297c:	d5aa                	sw	a0,232(sp)
   1297e:	07c1                	add	a5,a5,16
   12980:	0ea6c663          	blt	a3,a0,12a6c <_vfprintf_r+0x1578>
   12984:	000c4583          	lbu	a1,0(s8)
   12988:	41a48f33          	sub	t5,s1,s10
   1298c:	000f051b          	sext.w	a0,t5
   12990:	0005881b          	sext.w	a6,a1
   12994:	00a5d363          	bge	a1,a0,1299a <_vfprintf_r+0x14a6>
   12998:	8f42                	mv	t5,a6
   1299a:	000f041b          	sext.w	s0,t5
   1299e:	02805263          	blez	s0,129c2 <_vfprintf_r+0x14ce>
   129a2:	55ae                	lw	a1,232(sp)
   129a4:	9622                	add	a2,a2,s0
   129a6:	01a7b023          	sd	s10,0(a5)
   129aa:	0015851b          	addw	a0,a1,1
   129ae:	e780                	sd	s0,8(a5)
   129b0:	f9b2                	sd	a2,240(sp)
   129b2:	d5aa                	sw	a0,232(sp)
   129b4:	0ca6c863          	blt	a3,a0,12a84 <_vfprintf_r+0x1590>
   129b8:	000c4583          	lbu	a1,0(s8)
   129bc:	07c1                	add	a5,a5,16
   129be:	0005881b          	sext.w	a6,a1
   129c2:	fff44513          	not	a0,s0
   129c6:	957d                	sra	a0,a0,0x3f
   129c8:	00a47f33          	and	t5,s0,a0
   129cc:	41e8043b          	subw	s0,a6,t5
   129d0:	02804763          	bgtz	s0,129fe <_vfprintf_r+0x150a>
   129d4:	9d2e                	add	s10,s10,a1
   129d6:	f99047e3          	bgtz	s9,12964 <_vfprintf_r+0x1470>
   129da:	f9b047e3          	bgtz	s11,12968 <_vfprintf_r+0x1474>
   129de:	836a                	mv	t1,s10
   129e0:	843e                	mv	s0,a5
   129e2:	6d26                	ld	s10,72(sp)
   129e4:	77e2                	ld	a5,56(sp)
   129e6:	e162                	sd	s8,128(sp)
   129e8:	79a6                	ld	s3,104(sp)
   129ea:	00fd0733          	add	a4,s10,a5
   129ee:	6dca                	ld	s11,144(sp)
   129f0:	6bea                	ld	s7,152(sp)
   129f2:	6c06                	ld	s8,64(sp)
   129f4:	84b2                	mv	s1,a2
   129f6:	926771e3          	bgeu	a4,t1,12318 <_vfprintf_r+0xe24>
   129fa:	833a                	mv	t1,a4
   129fc:	ba31                	j	12318 <_vfprintf_r+0xe24>
   129fe:	6f65                	lui	t5,0x19
   12a00:	55ae                	lw	a1,232(sp)
   12a02:	4a8f0f13          	add	t5,t5,1192 # 194a8 <zeroes.0>
   12a06:	04875163          	bge	a4,s0,12a48 <_vfprintf_r+0x1554>
   12a0a:	f85a                	sd	s6,48(sp)
   12a0c:	a021                	j	12a14 <_vfprintf_r+0x1520>
   12a0e:	3441                	addw	s0,s0,-16
   12a10:	02875b63          	bge	a4,s0,12a46 <_vfprintf_r+0x1552>
   12a14:	2585                	addw	a1,a1,1
   12a16:	0641                	add	a2,a2,16
   12a18:	0167b023          	sd	s6,0(a5)
   12a1c:	e798                	sd	a4,8(a5)
   12a1e:	f9b2                	sd	a2,240(sp)
   12a20:	d5ae                	sw	a1,232(sp)
   12a22:	07c1                	add	a5,a5,16
   12a24:	feb6d5e3          	bge	a3,a1,12a0e <_vfprintf_r+0x151a>
   12a28:	1190                	add	a2,sp,224
   12a2a:	85ca                	mv	a1,s2
   12a2c:	854e                	mv	a0,s3
   12a2e:	76a000ef          	jal	13198 <__sprint_r>
   12a32:	f2051663          	bnez	a0,1215e <_vfprintf_r+0xc6a>
   12a36:	4741                	li	a4,16
   12a38:	3441                	addw	s0,s0,-16
   12a3a:	764e                	ld	a2,240(sp)
   12a3c:	55ae                	lw	a1,232(sp)
   12a3e:	87d2                	mv	a5,s4
   12a40:	469d                	li	a3,7
   12a42:	fc8749e3          	blt	a4,s0,12a14 <_vfprintf_r+0x1520>
   12a46:	7f42                	ld	t5,48(sp)
   12a48:	0015851b          	addw	a0,a1,1
   12a4c:	9622                	add	a2,a2,s0
   12a4e:	01e7b023          	sd	t5,0(a5)
   12a52:	e780                	sd	s0,8(a5)
   12a54:	f9b2                	sd	a2,240(sp)
   12a56:	d5aa                	sw	a0,232(sp)
   12a58:	26a6c763          	blt	a3,a0,12cc6 <_vfprintf_r+0x17d2>
   12a5c:	000c4583          	lbu	a1,0(s8)
   12a60:	07c1                	add	a5,a5,16
   12a62:	9d2e                	add	s10,s10,a1
   12a64:	bf8d                	j	129d6 <_vfprintf_r+0x14e2>
   12a66:	1c7d                	add	s8,s8,-1
   12a68:	3cfd                	addw	s9,s9,-1
   12a6a:	b701                	j	1296a <_vfprintf_r+0x1476>
   12a6c:	1190                	add	a2,sp,224
   12a6e:	85ca                	mv	a1,s2
   12a70:	854e                	mv	a0,s3
   12a72:	726000ef          	jal	13198 <__sprint_r>
   12a76:	ee051463          	bnez	a0,1215e <_vfprintf_r+0xc6a>
   12a7a:	764e                	ld	a2,240(sp)
   12a7c:	87d2                	mv	a5,s4
   12a7e:	4741                	li	a4,16
   12a80:	469d                	li	a3,7
   12a82:	b709                	j	12984 <_vfprintf_r+0x1490>
   12a84:	1190                	add	a2,sp,224
   12a86:	85ca                	mv	a1,s2
   12a88:	854e                	mv	a0,s3
   12a8a:	70e000ef          	jal	13198 <__sprint_r>
   12a8e:	ec051863          	bnez	a0,1215e <_vfprintf_r+0xc6a>
   12a92:	000c4583          	lbu	a1,0(s8)
   12a96:	764e                	ld	a2,240(sp)
   12a98:	87d2                	mv	a5,s4
   12a9a:	0005881b          	sext.w	a6,a1
   12a9e:	4741                	li	a4,16
   12aa0:	469d                	li	a3,7
   12aa2:	b705                	j	129c2 <_vfprintf_r+0x14ce>
   12aa4:	6522                	ld	a0,8(sp)
   12aa6:	1190                	add	a2,sp,224
   12aa8:	85ca                	mv	a1,s2
   12aaa:	6ee000ef          	jal	13198 <__sprint_r>
   12aae:	ea051863          	bnez	a0,1215e <_vfprintf_r+0xc6a>
   12ab2:	576a                	lw	a4,184(sp)
   12ab4:	74ce                	ld	s1,240(sp)
   12ab6:	8452                	mv	s0,s4
   12ab8:	b1a9                	j	12702 <_vfprintf_r+0x120e>
   12aba:	67e5                	lui	a5,0x19
   12abc:	20878d13          	add	s10,a5,520 # 19208 <__clzdi2+0x66>
   12ac0:	b9d5                	j	127b4 <_vfprintf_r+0x12c0>
   12ac2:	6522                	ld	a0,8(sp)
   12ac4:	1190                	add	a2,sp,224
   12ac6:	85ca                	mv	a1,s2
   12ac8:	6d0000ef          	jal	13198 <__sprint_r>
   12acc:	e8051963          	bnez	a0,1215e <_vfprintf_r+0xc6a>
   12ad0:	74ce                	ld	s1,240(sp)
   12ad2:	8452                	mv	s0,s4
   12ad4:	823ff06f          	j	122f6 <_vfprintf_r+0xe02>
   12ad8:	4699                	li	a3,6
   12ada:	bcdd                	j	125d0 <_vfprintf_r+0x10dc>
   12adc:	1482                	sll	s1,s1,0x20
   12ade:	9081                	srl	s1,s1,0x20
   12ae0:	bcbd                	j	1255e <_vfprintf_r+0x106a>
   12ae2:	1482                	sll	s1,s1,0x20
   12ae4:	9081                	srl	s1,s1,0x20
   12ae6:	f03a                	sd	a4,32(sp)
   12ae8:	4785                	li	a5,1
   12aea:	d83fe06f          	j	1186c <_vfprintf_r+0x378>
   12aee:	87a6                	mv	a5,s1
   12af0:	d15fe06f          	j	11804 <_vfprintf_r+0x310>
   12af4:	1482                	sll	s1,s1,0x20
   12af6:	9081                	srl	s1,s1,0x20
   12af8:	d6bfe06f          	j	11862 <_vfprintf_r+0x36e>
   12afc:	67c2                	ld	a5,16(sp)
   12afe:	00f71023          	sh	a5,0(a4)
   12b02:	bf0ff06f          	j	11ef2 <_vfprintf_r+0x9fe>
   12b06:	6522                	ld	a0,8(sp)
   12b08:	1190                	add	a2,sp,224
   12b0a:	85ca                	mv	a1,s2
   12b0c:	68c000ef          	jal	13198 <__sprint_r>
   12b10:	c59fe06f          	j	11768 <_vfprintf_r+0x274>
   12b14:	02d00793          	li	a5,45
   12b18:	0af107a3          	sb	a5,175(sp)
   12b1c:	02d00713          	li	a4,45
   12b20:	bb79                	j	128be <_vfprintf_r+0x13ca>
   12b22:	6522                	ld	a0,8(sp)
   12b24:	1190                	add	a2,sp,224
   12b26:	85ca                	mv	a1,s2
   12b28:	670000ef          	jal	13198 <__sprint_r>
   12b2c:	e2051963          	bnez	a0,1215e <_vfprintf_r+0xc6a>
   12b30:	576a                	lw	a4,184(sp)
   12b32:	764e                	ld	a2,240(sp)
   12b34:	56ae                	lw	a3,232(sp)
   12b36:	8452                	mv	s0,s4
   12b38:	b9cd                	j	1282a <_vfprintf_r+0x1336>
   12b3a:	6522                	ld	a0,8(sp)
   12b3c:	001b059b          	addw	a1,s6,1
   12b40:	f83a                	sd	a4,48(sp)
   12b42:	ec1a                	sd	t1,24(sp)
   12b44:	baafe0ef          	jal	10eee <_malloc_r>
   12b48:	6362                	ld	t1,24(sp)
   12b4a:	7742                	ld	a4,48(sp)
   12b4c:	8d2a                	mv	s10,a0
   12b4e:	4c050363          	beqz	a0,13014 <_vfprintf_r+0x1b20>
   12b52:	ec2a                	sd	a0,24(sp)
   12b54:	8dba                	mv	s11,a4
   12b56:	dd9fe06f          	j	1192e <_vfprintf_r+0x43a>
   12b5a:	75c2                	ld	a1,48(sp)
   12b5c:	6522                	ld	a0,8(sp)
   12b5e:	875a                	mv	a4,s6
   12b60:	0c810893          	add	a7,sp,200
   12b64:	0bc10813          	add	a6,sp,188
   12b68:	193c                	add	a5,sp,184
   12b6a:	4689                	li	a3,2
   12b6c:	8666                	mv	a2,s9
   12b6e:	4c2020ef          	jal	15030 <_ldtoa_r>
   12b72:	7362                	ld	t1,56(sp)
   12b74:	04700713          	li	a4,71
   12b78:	8d2a                	mv	s10,a0
   12b7a:	4ae31563          	bne	t1,a4,13024 <_vfprintf_r+0x1b30>
   12b7e:	001df713          	and	a4,s11,1
   12b82:	1a071e63          	bnez	a4,12d3e <_vfprintf_r+0x184a>
   12b86:	57ea                	lw	a5,184(sp)
   12b88:	f83e                	sd	a5,48(sp)
   12b8a:	67ae                	ld	a5,200(sp)
   12b8c:	41a787bb          	subw	a5,a5,s10
   12b90:	fc3e                	sd	a5,56(sp)
   12b92:	77c2                	ld	a5,48(sp)
   12b94:	5775                	li	a4,-3
   12b96:	00e7c463          	blt	a5,a4,12b9e <_vfprintf_r+0x16aa>
   12b9a:	0cfb5763          	bge	s6,a5,12c68 <_vfprintf_r+0x1774>
   12b9e:	77c2                	ld	a5,48(sp)
   12ba0:	3379                	addw	t1,t1,-2
   12ba2:	fff7871b          	addw	a4,a5,-1
   12ba6:	dd3a                	sw	a4,184(sp)
   12ba8:	0ff37693          	zext.b	a3,t1
   12bac:	4601                	li	a2,0
   12bae:	f49fe06f          	j	11af6 <_vfprintf_r+0x602>
   12bb2:	77c2                	ld	a5,48(sp)
   12bb4:	00a7c583          	lbu	a1,10(a5)
   12bb8:	feb68fa3          	sb	a1,-1(a3)
   12bbc:	f0bfe06f          	j	11ac6 <_vfprintf_r+0x5d2>
   12bc0:	0af14703          	lbu	a4,175(sp)
   12bc4:	4b01                	li	s6,0
   12bc6:	c319                	beqz	a4,12bcc <_vfprintf_r+0x16d8>
   12bc8:	c7ffe06f          	j	11846 <_vfprintf_r+0x352>
   12bcc:	ac5fe06f          	j	11690 <_vfprintf_r+0x19c>
   12bd0:	875a                	mv	a4,s6
   12bd2:	468d                	li	a3,3
   12bd4:	75c2                	ld	a1,48(sp)
   12bd6:	6522                	ld	a0,8(sp)
   12bd8:	0c810893          	add	a7,sp,200
   12bdc:	0bc10813          	add	a6,sp,188
   12be0:	193c                	add	a5,sp,184
   12be2:	8666                	mv	a2,s9
   12be4:	e09a                	sd	t1,64(sp)
   12be6:	fc3a                	sd	a4,56(sp)
   12be8:	448020ef          	jal	15030 <_ldtoa_r>
   12bec:	7762                	ld	a4,56(sp)
   12bee:	6306                	ld	t1,64(sp)
   12bf0:	8d2a                	mv	s10,a0
   12bf2:	fdf37c13          	and	s8,t1,-33
   12bf6:	04600693          	li	a3,70
   12bfa:	00ed0833          	add	a6,s10,a4
   12bfe:	00dc1a63          	bne	s8,a3,12c12 <_vfprintf_r+0x171e>
   12c02:	000d4603          	lbu	a2,0(s10)
   12c06:	03000693          	li	a3,48
   12c0a:	30d60563          	beq	a2,a3,12f14 <_vfprintf_r+0x1a20>
   12c0e:	56ea                	lw	a3,184(sp)
   12c10:	9836                	add	a6,a6,a3
   12c12:	7542                	ld	a0,48(sp)
   12c14:	4601                	li	a2,0
   12c16:	4681                	li	a3,0
   12c18:	85e6                	mv	a1,s9
   12c1a:	e0c2                	sd	a6,64(sp)
   12c1c:	fc1a                	sd	t1,56(sp)
   12c1e:	3b6050ef          	jal	17fd4 <__eqtf2>
   12c22:	7362                	ld	t1,56(sp)
   12c24:	6806                	ld	a6,64(sp)
   12c26:	12050163          	beqz	a0,12d48 <_vfprintf_r+0x1854>
   12c2a:	67ae                	ld	a5,200(sp)
   12c2c:	0107fc63          	bgeu	a5,a6,12c44 <_vfprintf_r+0x1750>
   12c30:	03000693          	li	a3,48
   12c34:	00178713          	add	a4,a5,1
   12c38:	e5ba                	sd	a4,200(sp)
   12c3a:	00d78023          	sb	a3,0(a5)
   12c3e:	67ae                	ld	a5,200(sp)
   12c40:	ff07eae3          	bltu	a5,a6,12c34 <_vfprintf_r+0x1740>
   12c44:	576a                	lw	a4,184(sp)
   12c46:	f83a                	sd	a4,48(sp)
   12c48:	41a787bb          	subw	a5,a5,s10
   12c4c:	04700713          	li	a4,71
   12c50:	fc3e                	sd	a5,56(sp)
   12c52:	f4ec00e3          	beq	s8,a4,12b92 <_vfprintf_r+0x169e>
   12c56:	04600713          	li	a4,70
   12c5a:	18ec0b63          	beq	s8,a4,12df0 <_vfprintf_r+0x18fc>
   12c5e:	77c2                	ld	a5,48(sp)
   12c60:	fff7871b          	addw	a4,a5,-1
   12c64:	dd3a                	sw	a4,184(sp)
   12c66:	b789                	j	12ba8 <_vfprintf_r+0x16b4>
   12c68:	77e2                	ld	a5,56(sp)
   12c6a:	7742                	ld	a4,48(sp)
   12c6c:	14f74b63          	blt	a4,a5,12dc2 <_vfprintf_r+0x18ce>
   12c70:	77c2                	ld	a5,48(sp)
   12c72:	001df713          	and	a4,s11,1
   12c76:	86be                	mv	a3,a5
   12c78:	c701                	beqz	a4,12c80 <_vfprintf_r+0x178c>
   12c7a:	6746                	ld	a4,80(sp)
   12c7c:	00f706bb          	addw	a3,a4,a5
   12c80:	400dfe13          	and	t3,s11,1024
   12c84:	000e0563          	beqz	t3,12c8e <_vfprintf_r+0x179a>
   12c88:	77c2                	ld	a5,48(sp)
   12c8a:	22f04063          	bgtz	a5,12eaa <_vfprintf_r+0x19b6>
   12c8e:	fff6c813          	not	a6,a3
   12c92:	43f85813          	sra	a6,a6,0x3f
   12c96:	0106f833          	and	a6,a3,a6
   12c9a:	00080c1b          	sext.w	s8,a6
   12c9e:	8da6                	mv	s11,s1
   12ca0:	06700313          	li	t1,103
   12ca4:	e482                	sd	zero,72(sp)
   12ca6:	e082                	sd	zero,64(sp)
   12ca8:	f07fe06f          	j	11bae <_vfprintf_r+0x6ba>
   12cac:	8dba                	mv	s11,a4
   12cae:	ec02                	sd	zero,24(sp)
   12cb0:	0f810d13          	add	s10,sp,248
   12cb4:	577d                	li	a4,-1
   12cb6:	177e                	sll	a4,a4,0x3f
   12cb8:	02d00793          	li	a5,45
   12cbc:	00ecccb3          	xor	s9,s9,a4
   12cc0:	f4be                	sd	a5,104(sp)
   12cc2:	c85fe06f          	j	11946 <_vfprintf_r+0x452>
   12cc6:	1190                	add	a2,sp,224
   12cc8:	85ca                	mv	a1,s2
   12cca:	854e                	mv	a0,s3
   12ccc:	4cc000ef          	jal	13198 <__sprint_r>
   12cd0:	c8051763          	bnez	a0,1215e <_vfprintf_r+0xc6a>
   12cd4:	000c4583          	lbu	a1,0(s8)
   12cd8:	764e                	ld	a2,240(sp)
   12cda:	87d2                	mv	a5,s4
   12cdc:	4741                	li	a4,16
   12cde:	469d                	li	a3,7
   12ce0:	9d2e                	add	s10,s10,a1
   12ce2:	b9d5                	j	129d6 <_vfprintf_r+0x14e2>
   12ce4:	02d00793          	li	a5,45
   12ce8:	0af107a3          	sb	a5,175(sp)
   12cec:	02d00713          	li	a4,45
   12cf0:	bc5d                	j	127a6 <_vfprintf_r+0x12b2>
   12cf2:	88da                	mv	a7,s6
   12cf4:	8b4a                	mv	s6,s2
   12cf6:	894e                	mv	s2,s3
   12cf8:	79c2                	ld	s3,48(sp)
   12cfa:	bc8d                	j	1276c <_vfprintf_r+0x1278>
   12cfc:	0af14703          	lbu	a4,175(sp)
   12d00:	f026                	sd	s1,32(sp)
   12d02:	e482                	sd	zero,72(sp)
   12d04:	e082                	sd	zero,64(sp)
   12d06:	f802                	sd	zero,48(sp)
   12d08:	8c5a                	mv	s8,s6
   12d0a:	86da                	mv	a3,s6
   12d0c:	4b01                	li	s6,0
   12d0e:	c319                	beqz	a4,12d14 <_vfprintf_r+0x1820>
   12d10:	b37fe06f          	j	11846 <_vfprintf_r+0x352>
   12d14:	97dfe06f          	j	11690 <_vfprintf_r+0x19c>
   12d18:	75c2                	ld	a1,48(sp)
   12d1a:	6522                	ld	a0,8(sp)
   12d1c:	875a                	mv	a4,s6
   12d1e:	0c810893          	add	a7,sp,200
   12d22:	0bc10813          	add	a6,sp,188
   12d26:	193c                	add	a5,sp,184
   12d28:	4689                	li	a3,2
   12d2a:	8666                	mv	a2,s9
   12d2c:	fc1a                	sd	t1,56(sp)
   12d2e:	302020ef          	jal	15030 <_ldtoa_r>
   12d32:	001df713          	and	a4,s11,1
   12d36:	7362                	ld	t1,56(sp)
   12d38:	8d2a                	mv	s10,a0
   12d3a:	e40706e3          	beqz	a4,12b86 <_vfprintf_r+0x1692>
   12d3e:	016d0833          	add	a6,s10,s6
   12d42:	04700c13          	li	s8,71
   12d46:	b5f1                	j	12c12 <_vfprintf_r+0x171e>
   12d48:	57ea                	lw	a5,184(sp)
   12d4a:	f83e                	sd	a5,48(sp)
   12d4c:	87c2                	mv	a5,a6
   12d4e:	bded                	j	12c48 <_vfprintf_r+0x1754>
   12d50:	6522                	ld	a0,8(sp)
   12d52:	1190                	add	a2,sp,224
   12d54:	85ca                	mv	a1,s2
   12d56:	442000ef          	jal	13198 <__sprint_r>
   12d5a:	c0051263          	bnez	a0,1215e <_vfprintf_r+0xc6a>
   12d5e:	56ea                	lw	a3,184(sp)
   12d60:	77e2                	ld	a5,56(sp)
   12d62:	74ce                	ld	s1,240(sp)
   12d64:	8452                	mv	s0,s4
   12d66:	40d786bb          	subw	a3,a5,a3
   12d6a:	df6ff06f          	j	12360 <_vfprintf_r+0xe6c>
   12d6e:	67e5                	lui	a5,0x19
   12d70:	22078d13          	add	s10,a5,544 # 19220 <__clzdi2+0x7e>
   12d74:	b481                	j	127b4 <_vfprintf_r+0x12c0>
   12d76:	68e5                	lui	a7,0x19
   12d78:	55c1                	li	a1,-16
   12d7a:	40e00b3b          	negw	s6,a4
   12d7e:	4a888893          	add	a7,a7,1192 # 194a8 <zeroes.0>
   12d82:	0ab75163          	bge	a4,a1,12e24 <_vfprintf_r+0x1930>
   12d86:	f84e                	sd	s3,48(sp)
   12d88:	4cc1                	li	s9,16
   12d8a:	449d                	li	s1,7
   12d8c:	89c6                	mv	s3,a7
   12d8e:	a021                	j	12d96 <_vfprintf_r+0x18a2>
   12d90:	3b41                	addw	s6,s6,-16
   12d92:	096cd763          	bge	s9,s6,12e20 <_vfprintf_r+0x192c>
   12d96:	2685                	addw	a3,a3,1
   12d98:	0641                	add	a2,a2,16
   12d9a:	01343023          	sd	s3,0(s0)
   12d9e:	01943423          	sd	s9,8(s0)
   12da2:	f9b2                	sd	a2,240(sp)
   12da4:	d5b6                	sw	a3,232(sp)
   12da6:	0441                	add	s0,s0,16
   12da8:	fed4d4e3          	bge	s1,a3,12d90 <_vfprintf_r+0x189c>
   12dac:	6522                	ld	a0,8(sp)
   12dae:	1190                	add	a2,sp,224
   12db0:	85ca                	mv	a1,s2
   12db2:	3e6000ef          	jal	13198 <__sprint_r>
   12db6:	ba051463          	bnez	a0,1215e <_vfprintf_r+0xc6a>
   12dba:	764e                	ld	a2,240(sp)
   12dbc:	56ae                	lw	a3,232(sp)
   12dbe:	8452                	mv	s0,s4
   12dc0:	bfc1                	j	12d90 <_vfprintf_r+0x189c>
   12dc2:	67c6                	ld	a5,80(sp)
   12dc4:	7762                	ld	a4,56(sp)
   12dc6:	06700313          	li	t1,103
   12dca:	00e786bb          	addw	a3,a5,a4
   12dce:	77c2                	ld	a5,48(sp)
   12dd0:	16f05d63          	blez	a5,12f4a <_vfprintf_r+0x1a56>
   12dd4:	400dfe13          	and	t3,s11,1024
   12dd8:	0c0e1b63          	bnez	t3,12eae <_vfprintf_r+0x19ba>
   12ddc:	fff6c813          	not	a6,a3
   12de0:	43f85813          	sra	a6,a6,0x3f
   12de4:	0106f833          	and	a6,a3,a6
   12de8:	00080c1b          	sext.w	s8,a6
   12dec:	8da6                	mv	s11,s1
   12dee:	bd5d                	j	12ca4 <_vfprintf_r+0x17b0>
   12df0:	77c2                	ld	a5,48(sp)
   12df2:	001df713          	and	a4,s11,1
   12df6:	00eb6733          	or	a4,s6,a4
   12dfa:	1cf05363          	blez	a5,12fc0 <_vfprintf_r+0x1acc>
   12dfe:	12071f63          	bnez	a4,12f3c <_vfprintf_r+0x1a48>
   12e02:	76c2                	ld	a3,48(sp)
   12e04:	06600313          	li	t1,102
   12e08:	b7f1                	j	12dd4 <_vfprintf_r+0x18e0>
   12e0a:	57fd                	li	a5,-1
   12e0c:	e83e                	sd	a5,16(sp)
   12e0e:	989fe06f          	j	11796 <_vfprintf_r+0x2a2>
   12e12:	8cee                	mv	s9,s11
   12e14:	b68ff06f          	j	1217c <_vfprintf_r+0xc88>
   12e18:	001b071b          	addw	a4,s6,1
   12e1c:	4689                	li	a3,2
   12e1e:	bb5d                	j	12bd4 <_vfprintf_r+0x16e0>
   12e20:	88ce                	mv	a7,s3
   12e22:	79c2                	ld	s3,48(sp)
   12e24:	2685                	addw	a3,a3,1
   12e26:	965a                	add	a2,a2,s6
   12e28:	01143023          	sd	a7,0(s0)
   12e2c:	01643423          	sd	s6,8(s0)
   12e30:	f9b2                	sd	a2,240(sp)
   12e32:	d5b6                	sw	a3,232(sp)
   12e34:	471d                	li	a4,7
   12e36:	8ed75de3          	bge	a4,a3,12730 <_vfprintf_r+0x123c>
   12e3a:	6522                	ld	a0,8(sp)
   12e3c:	1190                	add	a2,sp,224
   12e3e:	85ca                	mv	a1,s2
   12e40:	358000ef          	jal	13198 <__sprint_r>
   12e44:	b0051d63          	bnez	a0,1215e <_vfprintf_r+0xc6a>
   12e48:	764e                	ld	a2,240(sp)
   12e4a:	56ae                	lw	a3,232(sp)
   12e4c:	8452                	mv	s0,s4
   12e4e:	b2c5                	j	1282e <_vfprintf_r+0x133a>
   12e50:	0c210693          	add	a3,sp,194
   12e54:	e619                	bnez	a2,12e62 <_vfprintf_r+0x196e>
   12e56:	03000693          	li	a3,48
   12e5a:	0cd10123          	sb	a3,194(sp)
   12e5e:	0c310693          	add	a3,sp,195
   12e62:	139c                	add	a5,sp,480
   12e64:	40f68633          	sub	a2,a3,a5
   12e68:	0307071b          	addw	a4,a4,48
   12e6c:	1216079b          	addw	a5,a2,289
   12e70:	00e68023          	sb	a4,0(a3)
   12e74:	f8be                	sd	a5,112(sp)
   12e76:	cfffe06f          	j	11b74 <_vfprintf_r+0x680>
   12e7a:	ec02                	sd	zero,24(sp)
   12e7c:	4b19                	li	s6,6
   12e7e:	ab1fe06f          	j	1192e <_vfprintf_r+0x43a>
   12e82:	000b0463          	beqz	s6,12e8a <_vfprintf_r+0x1996>
   12e86:	aa9fe06f          	j	1192e <_vfprintf_r+0x43a>
   12e8a:	4b05                	li	s6,1
   12e8c:	aa3fe06f          	j	1192e <_vfprintf_r+0x43a>
   12e90:	001df613          	and	a2,s11,1
   12e94:	e219                	bnez	a2,12e9a <_vfprintf_r+0x19a6>
   12e96:	cf9fe06f          	j	11b8e <_vfprintf_r+0x69a>
   12e9a:	ceffe06f          	j	11b88 <_vfprintf_r+0x694>
   12e9e:	f03a                	sd	a4,32(sp)
   12ea0:	adcff06f          	j	1217c <_vfprintf_r+0xc88>
   12ea4:	c31c                	sw	a5,0(a4)
   12ea6:	84cff06f          	j	11ef2 <_vfprintf_r+0x9fe>
   12eaa:	06700313          	li	t1,103
   12eae:	678a                	ld	a5,128(sp)
   12eb0:	0ff00613          	li	a2,255
   12eb4:	0007c703          	lbu	a4,0(a5)
   12eb8:	16c70863          	beq	a4,a2,13028 <_vfprintf_r+0x1b34>
   12ebc:	863e                	mv	a2,a5
   12ebe:	77c2                	ld	a5,48(sp)
   12ec0:	4881                	li	a7,0
   12ec2:	4801                	li	a6,0
   12ec4:	0ff00593          	li	a1,255
   12ec8:	0007051b          	sext.w	a0,a4
   12ecc:	00f75a63          	bge	a4,a5,12ee0 <_vfprintf_r+0x19ec>
   12ed0:	00164703          	lbu	a4,1(a2)
   12ed4:	9f89                	subw	a5,a5,a0
   12ed6:	cb1d                	beqz	a4,12f0c <_vfprintf_r+0x1a18>
   12ed8:	2805                	addw	a6,a6,1
   12eda:	0605                	add	a2,a2,1
   12edc:	feb716e3          	bne	a4,a1,12ec8 <_vfprintf_r+0x19d4>
   12ee0:	e132                	sd	a2,128(sp)
   12ee2:	e0c2                	sd	a6,64(sp)
   12ee4:	e4c6                	sd	a7,72(sp)
   12ee6:	f83e                	sd	a5,48(sp)
   12ee8:	67a6                	ld	a5,72(sp)
   12eea:	6706                	ld	a4,64(sp)
   12eec:	8da6                	mv	s11,s1
   12eee:	9f3d                	addw	a4,a4,a5
   12ef0:	67aa                	ld	a5,136(sp)
   12ef2:	02f7073b          	mulw	a4,a4,a5
   12ef6:	9f35                	addw	a4,a4,a3
   12ef8:	0007069b          	sext.w	a3,a4
   12efc:	fff6c613          	not	a2,a3
   12f00:	967d                	sra	a2,a2,0x3f
   12f02:	8f71                	and	a4,a4,a2
   12f04:	00070c1b          	sext.w	s8,a4
   12f08:	ca7fe06f          	j	11bae <_vfprintf_r+0x6ba>
   12f0c:	00064703          	lbu	a4,0(a2)
   12f10:	2885                	addw	a7,a7,1
   12f12:	b7e9                	j	12edc <_vfprintf_r+0x19e8>
   12f14:	7542                	ld	a0,48(sp)
   12f16:	4601                	li	a2,0
   12f18:	4681                	li	a3,0
   12f1a:	85e6                	mv	a1,s9
   12f1c:	e4c2                	sd	a6,72(sp)
   12f1e:	e09a                	sd	t1,64(sp)
   12f20:	fc3a                	sd	a4,56(sp)
   12f22:	0b2050ef          	jal	17fd4 <__eqtf2>
   12f26:	7762                	ld	a4,56(sp)
   12f28:	6306                	ld	t1,64(sp)
   12f2a:	6826                	ld	a6,72(sp)
   12f2c:	e551                	bnez	a0,12fb8 <_vfprintf_r+0x1ac4>
   12f2e:	57ea                	lw	a5,184(sp)
   12f30:	983e                	add	a6,a6,a5
   12f32:	f83e                	sd	a5,48(sp)
   12f34:	41a807bb          	subw	a5,a6,s10
   12f38:	fc3e                	sd	a5,56(sp)
   12f3a:	bb31                	j	12c56 <_vfprintf_r+0x1762>
   12f3c:	6746                	ld	a4,80(sp)
   12f3e:	06600313          	li	t1,102
   12f42:	016706bb          	addw	a3,a4,s6
   12f46:	9ebd                	addw	a3,a3,a5
   12f48:	b571                	j	12dd4 <_vfprintf_r+0x18e0>
   12f4a:	40f6873b          	subw	a4,a3,a5
   12f4e:	2705                	addw	a4,a4,1
   12f50:	0007069b          	sext.w	a3,a4
   12f54:	fff6c613          	not	a2,a3
   12f58:	967d                	sra	a2,a2,0x3f
   12f5a:	8f71                	and	a4,a4,a2
   12f5c:	00070c1b          	sext.w	s8,a4
   12f60:	8da6                	mv	s11,s1
   12f62:	b389                	j	12ca4 <_vfprintf_r+0x17b0>
   12f64:	684a                	ld	a6,144(sp)
   12f66:	8962                	mv	s2,s8
   12f68:	8c4e                	mv	s8,s3
   12f6a:	010d06bb          	addw	a3,s10,a6
   12f6e:	418686bb          	subw	a3,a3,s8
   12f72:	02069613          	sll	a2,a3,0x20
   12f76:	6306                	ld	t1,64(sp)
   12f78:	6ba6                	ld	s7,72(sp)
   12f7a:	7446                	ld	s0,112(sp)
   12f7c:	79e2                	ld	s3,56(sp)
   12f7e:	00065463          	bgez	a2,12f86 <_vfprintf_r+0x1a92>
   12f82:	b45fe06f          	j	11ac6 <_vfprintf_r+0x5d2>
   12f86:	2685                	addw	a3,a3,1
   12f88:	96e2                	add	a3,a3,s8
   12f8a:	03000613          	li	a2,48
   12f8e:	0c05                	add	s8,s8,1
   12f90:	fecc0fa3          	sb	a2,-1(s8)
   12f94:	fedc1de3          	bne	s8,a3,12f8e <_vfprintf_r+0x1a9a>
   12f98:	b31fe06f          	j	11ac8 <_vfprintf_r+0x5d4>
   12f9c:	65e2                	ld	a1,24(sp)
   12f9e:	894e                	mv	s2,s3
   12fa0:	9c0ff06f          	j	12160 <_vfprintf_r+0xc6c>
   12fa4:	6765                	lui	a4,0x19
   12fa6:	22870793          	add	a5,a4,552 # 19228 <__clzdi2+0x86>
   12faa:	f83e                	sd	a5,48(sp)
   12fac:	a1bfe06f          	j	119c6 <_vfprintf_r+0x4d2>
   12fb0:	07000693          	li	a3,112
   12fb4:	b41fe06f          	j	11af4 <_vfprintf_r+0x600>
   12fb8:	4685                	li	a3,1
   12fba:	9e99                	subw	a3,a3,a4
   12fbc:	dd36                	sw	a3,184(sp)
   12fbe:	b989                	j	12c10 <_vfprintf_r+0x171c>
   12fc0:	e719                	bnez	a4,12fce <_vfprintf_r+0x1ada>
   12fc2:	8da6                	mv	s11,s1
   12fc4:	4c05                	li	s8,1
   12fc6:	06600313          	li	t1,102
   12fca:	4685                	li	a3,1
   12fcc:	b9e1                	j	12ca4 <_vfprintf_r+0x17b0>
   12fce:	67c6                	ld	a5,80(sp)
   12fd0:	8da6                	mv	s11,s1
   12fd2:	06600313          	li	t1,102
   12fd6:	0017871b          	addw	a4,a5,1
   12fda:	0167073b          	addw	a4,a4,s6
   12fde:	0007069b          	sext.w	a3,a4
   12fe2:	fff6c613          	not	a2,a3
   12fe6:	967d                	sra	a2,a2,0x3f
   12fe8:	8f71                	and	a4,a4,a2
   12fea:	00070c1b          	sext.w	s8,a4
   12fee:	b95d                	j	12ca4 <_vfprintf_r+0x17b0>
   12ff0:	4789                	li	a5,2
   12ff2:	f8be                	sd	a5,112(sp)
   12ff4:	b81fe06f          	j	11b74 <_vfprintf_r+0x680>
   12ff8:	7682                	ld	a3,32(sp)
   12ffa:	429c                	lw	a5,0(a3)
   12ffc:	06a1                	add	a3,a3,8
   12ffe:	00078b1b          	sext.w	s6,a5
   13002:	0007d363          	bgez	a5,13008 <_vfprintf_r+0x1b14>
   13006:	5b7d                	li	s6,-1
   13008:	0019c303          	lbu	t1,1(s3)
   1300c:	f036                	sd	a3,32(sp)
   1300e:	89ba                	mv	s3,a4
   13010:	e0cfe06f          	j	1161c <_vfprintf_r+0x128>
   13014:	01095783          	lhu	a5,16(s2)
   13018:	0407e793          	or	a5,a5,64
   1301c:	00f91823          	sh	a5,16(s2)
   13020:	f48fe06f          	j	11768 <_vfprintf_r+0x274>
   13024:	875a                	mv	a4,s6
   13026:	b6f1                	j	12bf2 <_vfprintf_r+0x16fe>
   13028:	e482                	sd	zero,72(sp)
   1302a:	e082                	sd	zero,64(sp)
   1302c:	bd75                	j	12ee8 <_vfprintf_r+0x19f4>

000000000001302e <vfprintf>:
   1302e:	87aa                	mv	a5,a0
   13030:	2201b503          	ld	a0,544(gp) # 1b560 <_impure_ptr>
   13034:	86b2                	mv	a3,a2
   13036:	862e                	mv	a2,a1
   13038:	85be                	mv	a1,a5
   1303a:	cbafe06f          	j	114f4 <_vfprintf_r>

000000000001303e <__sbprintf>:
   1303e:	b3010113          	add	sp,sp,-1232
   13042:	0125d703          	lhu	a4,18(a1)
   13046:	0105d783          	lhu	a5,16(a1)
   1304a:	4c813023          	sd	s0,1216(sp)
   1304e:	842e                	mv	s0,a1
   13050:	65c1                	lui	a1,0x10
   13052:	35f5                	addw	a1,a1,-3 # fffd <exit-0xeb>
   13054:	0ac42e03          	lw	t3,172(s0)
   13058:	03043303          	ld	t1,48(s0)
   1305c:	04043883          	ld	a7,64(s0)
   13060:	0107171b          	sllw	a4,a4,0x10
   13064:	8fed                	and	a5,a5,a1
   13066:	8fd9                	or	a5,a5,a4
   13068:	40000813          	li	a6,1024
   1306c:	c83e                	sw	a5,16(sp)
   1306e:	858a                	mv	a1,sp
   13070:	191c                	add	a5,sp,176
   13072:	4a913c23          	sd	s1,1208(sp)
   13076:	4b213823          	sd	s2,1200(sp)
   1307a:	4c113423          	sd	ra,1224(sp)
   1307e:	892a                	mv	s2,a0
   13080:	d772                	sw	t3,172(sp)
   13082:	f81a                	sd	t1,48(sp)
   13084:	e0c6                	sd	a7,64(sp)
   13086:	e03e                	sd	a5,0(sp)
   13088:	ec3e                	sd	a5,24(sp)
   1308a:	c642                	sw	a6,12(sp)
   1308c:	d042                	sw	a6,32(sp)
   1308e:	d402                	sw	zero,40(sp)
   13090:	c64fe0ef          	jal	114f4 <_vfprintf_r>
   13094:	84aa                	mv	s1,a0
   13096:	02055963          	bgez	a0,130c8 <__sbprintf+0x8a>
   1309a:	01015783          	lhu	a5,16(sp)
   1309e:	0407f793          	and	a5,a5,64
   130a2:	c799                	beqz	a5,130b0 <__sbprintf+0x72>
   130a4:	01045783          	lhu	a5,16(s0)
   130a8:	0407e793          	or	a5,a5,64
   130ac:	00f41823          	sh	a5,16(s0)
   130b0:	4c813083          	ld	ra,1224(sp)
   130b4:	4c013403          	ld	s0,1216(sp)
   130b8:	4b013903          	ld	s2,1200(sp)
   130bc:	8526                	mv	a0,s1
   130be:	4b813483          	ld	s1,1208(sp)
   130c2:	4d010113          	add	sp,sp,1232
   130c6:	8082                	ret
   130c8:	858a                	mv	a1,sp
   130ca:	854a                	mv	a0,s2
   130cc:	08e010ef          	jal	1415a <_fflush_r>
   130d0:	d569                	beqz	a0,1309a <__sbprintf+0x5c>
   130d2:	54fd                	li	s1,-1
   130d4:	b7d9                	j	1309a <__sbprintf+0x5c>

00000000000130d6 <__sprint_r.part.0>:
   130d6:	0ac5a783          	lw	a5,172(a1)
   130da:	715d                	add	sp,sp,-80
   130dc:	ec56                	sd	s5,24(sp)
   130de:	e486                	sd	ra,72(sp)
   130e0:	03279713          	sll	a4,a5,0x32
   130e4:	8ab2                	mv	s5,a2
   130e6:	08075f63          	bgez	a4,13184 <__sprint_r.part.0+0xae>
   130ea:	6a1c                	ld	a5,16(a2)
   130ec:	f84a                	sd	s2,48(sp)
   130ee:	f44e                	sd	s3,40(sp)
   130f0:	f052                	sd	s4,32(sp)
   130f2:	e85a                	sd	s6,16(sp)
   130f4:	892e                	mv	s2,a1
   130f6:	00063b03          	ld	s6,0(a2)
   130fa:	89aa                	mv	s3,a0
   130fc:	5a7d                	li	s4,-1
   130fe:	cfad                	beqz	a5,13178 <__sprint_r.part.0+0xa2>
   13100:	e0a2                	sd	s0,64(sp)
   13102:	fc26                	sd	s1,56(sp)
   13104:	e45e                	sd	s7,8(sp)
   13106:	008b3483          	ld	s1,8(s6)
   1310a:	000b3403          	ld	s0,0(s6)
   1310e:	8089                	srl	s1,s1,0x2
   13110:	00048b9b          	sext.w	s7,s1
   13114:	05705863          	blez	s7,13164 <__sprint_r.part.0+0x8e>
   13118:	34fd                	addw	s1,s1,-1
   1311a:	02049793          	sll	a5,s1,0x20
   1311e:	01e7d493          	srl	s1,a5,0x1e
   13122:	00440793          	add	a5,s0,4
   13126:	94be                	add	s1,s1,a5
   13128:	a019                	j	1312e <__sprint_r.part.0+0x58>
   1312a:	02848b63          	beq	s1,s0,13160 <__sprint_r.part.0+0x8a>
   1312e:	400c                	lw	a1,0(s0)
   13130:	864a                	mv	a2,s2
   13132:	854e                	mv	a0,s3
   13134:	760010ef          	jal	14894 <_fputwc_r>
   13138:	2501                	sext.w	a0,a0
   1313a:	0411                	add	s0,s0,4
   1313c:	ff4517e3          	bne	a0,s4,1312a <__sprint_r.part.0+0x54>
   13140:	6406                	ld	s0,64(sp)
   13142:	74e2                	ld	s1,56(sp)
   13144:	7942                	ld	s2,48(sp)
   13146:	79a2                	ld	s3,40(sp)
   13148:	7a02                	ld	s4,32(sp)
   1314a:	6b42                	ld	s6,16(sp)
   1314c:	6ba2                	ld	s7,8(sp)
   1314e:	557d                	li	a0,-1
   13150:	60a6                	ld	ra,72(sp)
   13152:	000ab823          	sd	zero,16(s5)
   13156:	000aa423          	sw	zero,8(s5)
   1315a:	6ae2                	ld	s5,24(sp)
   1315c:	6161                	add	sp,sp,80
   1315e:	8082                	ret
   13160:	010ab783          	ld	a5,16(s5)
   13164:	0b8a                	sll	s7,s7,0x2
   13166:	417787b3          	sub	a5,a5,s7
   1316a:	00fab823          	sd	a5,16(s5)
   1316e:	0b41                	add	s6,s6,16
   13170:	fbd9                	bnez	a5,13106 <__sprint_r.part.0+0x30>
   13172:	6406                	ld	s0,64(sp)
   13174:	74e2                	ld	s1,56(sp)
   13176:	6ba2                	ld	s7,8(sp)
   13178:	7942                	ld	s2,48(sp)
   1317a:	79a2                	ld	s3,40(sp)
   1317c:	7a02                	ld	s4,32(sp)
   1317e:	6b42                	ld	s6,16(sp)
   13180:	4501                	li	a0,0
   13182:	b7f9                	j	13150 <__sprint_r.part.0+0x7a>
   13184:	05c010ef          	jal	141e0 <__sfvwrite_r>
   13188:	60a6                	ld	ra,72(sp)
   1318a:	000ab823          	sd	zero,16(s5)
   1318e:	000aa423          	sw	zero,8(s5)
   13192:	6ae2                	ld	s5,24(sp)
   13194:	6161                	add	sp,sp,80
   13196:	8082                	ret

0000000000013198 <__sprint_r>:
   13198:	6a18                	ld	a4,16(a2)
   1319a:	c311                	beqz	a4,1319e <__sprint_r+0x6>
   1319c:	bf2d                	j	130d6 <__sprint_r.part.0>
   1319e:	00062423          	sw	zero,8(a2)
   131a2:	4501                	li	a0,0
   131a4:	8082                	ret

00000000000131a6 <_vfiprintf_r>:
   131a6:	7105                	add	sp,sp,-480
   131a8:	fb52                	sd	s4,432(sp)
   131aa:	f756                	sd	s5,424(sp)
   131ac:	ef5e                	sd	s7,408(sp)
   131ae:	e36a                	sd	s10,384(sp)
   131b0:	ef86                	sd	ra,472(sp)
   131b2:	eb62                	sd	s8,400(sp)
   131b4:	8aaa                	mv	s5,a0
   131b6:	8a2e                	mv	s4,a1
   131b8:	8d32                	mv	s10,a2
   131ba:	8bb6                	mv	s7,a3
   131bc:	c501                	beqz	a0,131c4 <_vfiprintf_r+0x1e>
   131be:	653c                	ld	a5,72(a0)
   131c0:	38078ae3          	beqz	a5,13d54 <_vfiprintf_r+0xbae>
   131c4:	010a1783          	lh	a5,16(s4)
   131c8:	03279693          	sll	a3,a5,0x32
   131cc:	0206c163          	bltz	a3,131ee <_vfiprintf_r+0x48>
   131d0:	0aca2683          	lw	a3,172(s4)
   131d4:	6589                	lui	a1,0x2
   131d6:	7679                	lui	a2,0xffffe
   131d8:	8fcd                	or	a5,a5,a1
   131da:	167d                	add	a2,a2,-1 # ffffffffffffdfff <__BSS_END__+0xfffffffffffe24bf>
   131dc:	0107979b          	sllw	a5,a5,0x10
   131e0:	4107d79b          	sraw	a5,a5,0x10
   131e4:	8ef1                	and	a3,a3,a2
   131e6:	00fa1823          	sh	a5,16(s4)
   131ea:	0ada2623          	sw	a3,172(s4)
   131ee:	0087f693          	and	a3,a5,8
   131f2:	caf1                	beqz	a3,132c6 <_vfiprintf_r+0x120>
   131f4:	018a3683          	ld	a3,24(s4)
   131f8:	c6f9                	beqz	a3,132c6 <_vfiprintf_r+0x120>
   131fa:	8be9                	and	a5,a5,26
   131fc:	46a9                	li	a3,10
   131fe:	0ed78063          	beq	a5,a3,132de <_vfiprintf_r+0x138>
   13202:	67e5                	lui	a5,0x19
   13204:	ff4e                	sd	s3,440(sp)
   13206:	f35a                	sd	s6,416(sp)
   13208:	0f010993          	add	s3,sp,240
   1320c:	4c878793          	add	a5,a5,1224 # 194c8 <blanks.1+0x10>
   13210:	6b65                	lui	s6,0x19
   13212:	eba2                	sd	s0,464(sp)
   13214:	e3ca                	sd	s2,448(sp)
   13216:	e7a6                	sd	s1,456(sp)
   13218:	e766                	sd	s9,392(sp)
   1321a:	feee                	sd	s11,376(sp)
   1321c:	f8ce                	sd	s3,112(sp)
   1321e:	e102                	sd	zero,128(sp)
   13220:	dc82                	sw	zero,120(sp)
   13222:	844e                	mv	s0,s3
   13224:	e802                	sd	zero,16(sp)
   13226:	fc02                	sd	zero,56(sp)
   13228:	f802                	sd	zero,48(sp)
   1322a:	e082                	sd	zero,64(sp)
   1322c:	4c01                	li	s8,0
   1322e:	e43e                	sd	a5,8(sp)
   13230:	4941                	li	s2,16
   13232:	638b0b13          	add	s6,s6,1592 # 19638 <zeroes.0>
   13236:	000d4783          	lbu	a5,0(s10)
   1323a:	c3f9                	beqz	a5,13300 <_vfiprintf_r+0x15a>
   1323c:	84ea                	mv	s1,s10
   1323e:	02500713          	li	a4,37
   13242:	26e78f63          	beq	a5,a4,134c0 <_vfiprintf_r+0x31a>
   13246:	0014c783          	lbu	a5,1(s1)
   1324a:	0485                	add	s1,s1,1
   1324c:	fbfd                	bnez	a5,13242 <_vfiprintf_r+0x9c>
   1324e:	41a48dbb          	subw	s11,s1,s10
   13252:	0a0d8763          	beqz	s11,13300 <_vfiprintf_r+0x15a>
   13256:	57e6                	lw	a5,120(sp)
   13258:	670a                	ld	a4,128(sp)
   1325a:	01a43023          	sd	s10,0(s0)
   1325e:	0017869b          	addw	a3,a5,1
   13262:	976e                	add	a4,a4,s11
   13264:	01b43423          	sd	s11,8(s0)
   13268:	e13a                	sd	a4,128(sp)
   1326a:	dcb6                	sw	a3,120(sp)
   1326c:	479d                	li	a5,7
   1326e:	0441                	add	s0,s0,16
   13270:	00d7db63          	bge	a5,a3,13286 <_vfiprintf_r+0xe0>
   13274:	0e0702e3          	beqz	a4,13b58 <_vfiprintf_r+0x9b2>
   13278:	1890                	add	a2,sp,112
   1327a:	85d2                	mv	a1,s4
   1327c:	8556                	mv	a0,s5
   1327e:	e59ff0ef          	jal	130d6 <__sprint_r.part.0>
   13282:	e151                	bnez	a0,13306 <_vfiprintf_r+0x160>
   13284:	844e                	mv	s0,s3
   13286:	0004c783          	lbu	a5,0(s1)
   1328a:	018d8c3b          	addw	s8,s11,s8
   1328e:	cbad                	beqz	a5,13300 <_vfiprintf_r+0x15a>
   13290:	0014c783          	lbu	a5,1(s1)
   13294:	00148d13          	add	s10,s1,1
   13298:	060103a3          	sb	zero,103(sp)
   1329c:	54fd                	li	s1,-1
   1329e:	4881                	li	a7,0
   132a0:	4c81                	li	s9,0
   132a2:	05a00d93          	li	s11,90
   132a6:	0d05                	add	s10,s10,1
   132a8:	2781                	sext.w	a5,a5
   132aa:	fe07871b          	addw	a4,a5,-32
   132ae:	0007069b          	sext.w	a3,a4
   132b2:	0addeb63          	bltu	s11,a3,13368 <_vfiprintf_r+0x1c2>
   132b6:	02071693          	sll	a3,a4,0x20
   132ba:	01e6d713          	srl	a4,a3,0x1e
   132be:	66a2                	ld	a3,8(sp)
   132c0:	9736                	add	a4,a4,a3
   132c2:	4318                	lw	a4,0(a4)
   132c4:	8702                	jr	a4
   132c6:	85d2                	mv	a1,s4
   132c8:	8556                	mv	a0,s5
   132ca:	44a010ef          	jal	14714 <__swsetup_r>
   132ce:	360519e3          	bnez	a0,13e40 <_vfiprintf_r+0xc9a>
   132d2:	010a1783          	lh	a5,16(s4)
   132d6:	46a9                	li	a3,10
   132d8:	8be9                	and	a5,a5,26
   132da:	f2d794e3          	bne	a5,a3,13202 <_vfiprintf_r+0x5c>
   132de:	012a1783          	lh	a5,18(s4)
   132e2:	f207c0e3          	bltz	a5,13202 <_vfiprintf_r+0x5c>
   132e6:	60fe                	ld	ra,472(sp)
   132e8:	6c5a                	ld	s8,400(sp)
   132ea:	86de                	mv	a3,s7
   132ec:	866a                	mv	a2,s10
   132ee:	6bfa                	ld	s7,408(sp)
   132f0:	6d1a                	ld	s10,384(sp)
   132f2:	85d2                	mv	a1,s4
   132f4:	8556                	mv	a0,s5
   132f6:	7a5a                	ld	s4,432(sp)
   132f8:	7aba                	ld	s5,424(sp)
   132fa:	613d                	add	sp,sp,480
   132fc:	37f0006f          	j	13e7a <__sbprintf>
   13300:	678a                	ld	a5,128(sp)
   13302:	300794e3          	bnez	a5,13e0a <_vfiprintf_r+0xc64>
   13306:	010a5783          	lhu	a5,16(s4)
   1330a:	645e                	ld	s0,464(sp)
   1330c:	64be                	ld	s1,456(sp)
   1330e:	0407f793          	and	a5,a5,64
   13312:	691e                	ld	s2,448(sp)
   13314:	79fa                	ld	s3,440(sp)
   13316:	7b1a                	ld	s6,416(sp)
   13318:	6cba                	ld	s9,392(sp)
   1331a:	7df6                	ld	s11,376(sp)
   1331c:	320792e3          	bnez	a5,13e40 <_vfiprintf_r+0xc9a>
   13320:	60fe                	ld	ra,472(sp)
   13322:	7a5a                	ld	s4,432(sp)
   13324:	7aba                	ld	s5,424(sp)
   13326:	6bfa                	ld	s7,408(sp)
   13328:	6d1a                	ld	s10,384(sp)
   1332a:	8562                	mv	a0,s8
   1332c:	6c5a                	ld	s8,400(sp)
   1332e:	613d                	add	sp,sp,480
   13330:	8082                	ret
   13332:	4881                	li	a7,0
   13334:	4625                	li	a2,9
   13336:	000d4683          	lbu	a3,0(s10)
   1333a:	0028971b          	sllw	a4,a7,0x2
   1333e:	011708bb          	addw	a7,a4,a7
   13342:	fd07879b          	addw	a5,a5,-48
   13346:	0018989b          	sllw	a7,a7,0x1
   1334a:	fd06871b          	addw	a4,a3,-48
   1334e:	011788bb          	addw	a7,a5,a7
   13352:	0d05                	add	s10,s10,1
   13354:	0006879b          	sext.w	a5,a3
   13358:	fce67fe3          	bgeu	a2,a4,13336 <_vfiprintf_r+0x190>
   1335c:	fe07871b          	addw	a4,a5,-32
   13360:	0007069b          	sext.w	a3,a4
   13364:	f4ddf9e3          	bgeu	s11,a3,132b6 <_vfiprintf_r+0x110>
   13368:	dfc1                	beqz	a5,13300 <_vfiprintf_r+0x15a>
   1336a:	08f10423          	sb	a5,136(sp)
   1336e:	060103a3          	sb	zero,103(sp)
   13372:	4305                	li	t1,1
   13374:	4e05                	li	t3,1
   13376:	08810d93          	add	s11,sp,136
   1337a:	4481                	li	s1,0
   1337c:	4f81                	li	t6,0
   1337e:	56e6                	lw	a3,120(sp)
   13380:	084cf293          	and	t0,s9,132
   13384:	678a                	ld	a5,128(sp)
   13386:	0016859b          	addw	a1,a3,1
   1338a:	862e                	mv	a2,a1
   1338c:	00029663          	bnez	t0,13398 <_vfiprintf_r+0x1f2>
   13390:	4068873b          	subw	a4,a7,t1
   13394:	62e04b63          	bgtz	a4,139ca <_vfiprintf_r+0x824>
   13398:	06714703          	lbu	a4,103(sp)
   1339c:	cf19                	beqz	a4,133ba <_vfiprintf_r+0x214>
   1339e:	06710713          	add	a4,sp,103
   133a2:	0785                	add	a5,a5,1
   133a4:	e018                	sd	a4,0(s0)
   133a6:	4705                	li	a4,1
   133a8:	e418                	sd	a4,8(s0)
   133aa:	e13e                	sd	a5,128(sp)
   133ac:	dcae                	sw	a1,120(sp)
   133ae:	471d                	li	a4,7
   133b0:	58b74e63          	blt	a4,a1,1394c <_vfiprintf_r+0x7a6>
   133b4:	86ae                	mv	a3,a1
   133b6:	0441                	add	s0,s0,16
   133b8:	2585                	addw	a1,a1,1 # 2001 <exit-0xe0e7>
   133ba:	040f8163          	beqz	t6,133fc <_vfiprintf_r+0x256>
   133be:	10b8                	add	a4,sp,104
   133c0:	0789                	add	a5,a5,2
   133c2:	e018                	sd	a4,0(s0)
   133c4:	4709                	li	a4,2
   133c6:	e418                	sd	a4,8(s0)
   133c8:	e13e                	sd	a5,128(sp)
   133ca:	dcae                	sw	a1,120(sp)
   133cc:	471d                	li	a4,7
   133ce:	5ab75f63          	bge	a4,a1,1398c <_vfiprintf_r+0x7e6>
   133d2:	78078763          	beqz	a5,13b60 <_vfiprintf_r+0x9ba>
   133d6:	1890                	add	a2,sp,112
   133d8:	85d2                	mv	a1,s4
   133da:	8556                	mv	a0,s5
   133dc:	e49a                	sd	t1,72(sp)
   133de:	f446                	sd	a7,40(sp)
   133e0:	f072                	sd	t3,32(sp)
   133e2:	ec16                	sd	t0,24(sp)
   133e4:	cf3ff0ef          	jal	130d6 <__sprint_r.part.0>
   133e8:	fd19                	bnez	a0,13306 <_vfiprintf_r+0x160>
   133ea:	56e6                	lw	a3,120(sp)
   133ec:	678a                	ld	a5,128(sp)
   133ee:	6326                	ld	t1,72(sp)
   133f0:	78a2                	ld	a7,40(sp)
   133f2:	7e02                	ld	t3,32(sp)
   133f4:	62e2                	ld	t0,24(sp)
   133f6:	844e                	mv	s0,s3
   133f8:	0016859b          	addw	a1,a3,1
   133fc:	08000713          	li	a4,128
   13400:	3ee28463          	beq	t0,a4,137e8 <_vfiprintf_r+0x642>
   13404:	41c484bb          	subw	s1,s1,t3
   13408:	4a904063          	bgtz	s1,138a8 <_vfiprintf_r+0x702>
   1340c:	97f2                	add	a5,a5,t3
   1340e:	01b43023          	sd	s11,0(s0)
   13412:	01c43423          	sd	t3,8(s0)
   13416:	e13e                	sd	a5,128(sp)
   13418:	dcae                	sw	a1,120(sp)
   1341a:	471d                	li	a4,7
   1341c:	3cb75463          	bge	a4,a1,137e4 <_vfiprintf_r+0x63e>
   13420:	64078763          	beqz	a5,13a6e <_vfiprintf_r+0x8c8>
   13424:	1890                	add	a2,sp,112
   13426:	85d2                	mv	a1,s4
   13428:	8556                	mv	a0,s5
   1342a:	f01a                	sd	t1,32(sp)
   1342c:	ec46                	sd	a7,24(sp)
   1342e:	ca9ff0ef          	jal	130d6 <__sprint_r.part.0>
   13432:	ec051ae3          	bnez	a0,13306 <_vfiprintf_r+0x160>
   13436:	678a                	ld	a5,128(sp)
   13438:	7302                	ld	t1,32(sp)
   1343a:	68e2                	ld	a7,24(sp)
   1343c:	844e                	mv	s0,s3
   1343e:	004cf813          	and	a6,s9,4
   13442:	00080663          	beqz	a6,1344e <_vfiprintf_r+0x2a8>
   13446:	406884bb          	subw	s1,a7,t1
   1344a:	62904c63          	bgtz	s1,13a82 <_vfiprintf_r+0x8dc>
   1344e:	8746                	mv	a4,a7
   13450:	0068d363          	bge	a7,t1,13456 <_vfiprintf_r+0x2b0>
   13454:	871a                	mv	a4,t1
   13456:	01870c3b          	addw	s8,a4,s8
   1345a:	4c079d63          	bnez	a5,13934 <_vfiprintf_r+0x78e>
   1345e:	dc82                	sw	zero,120(sp)
   13460:	844e                	mv	s0,s3
   13462:	bbd1                	j	13236 <_vfiprintf_r+0x90>
   13464:	010cec93          	or	s9,s9,16
   13468:	000d4783          	lbu	a5,0(s10)
   1346c:	2c81                	sext.w	s9,s9
   1346e:	bd25                	j	132a6 <_vfiprintf_r+0x100>
   13470:	010ce813          	or	a6,s9,16
   13474:	00080c9b          	sext.w	s9,a6
   13478:	020cf793          	and	a5,s9,32
   1347c:	008b8e93          	add	t4,s7,8
   13480:	c7b9                	beqz	a5,134ce <_vfiprintf_r+0x328>
   13482:	000bb783          	ld	a5,0(s7)
   13486:	8bbe                	mv	s7,a5
   13488:	0607c363          	bltz	a5,134ee <_vfiprintf_r+0x348>
   1348c:	0604cd63          	bltz	s1,13506 <_vfiprintf_r+0x360>
   13490:	f7fcf813          	and	a6,s9,-129
   13494:	00080c9b          	sext.w	s9,a6
   13498:	060b9763          	bnez	s7,13506 <_vfiprintf_r+0x360>
   1349c:	180492e3          	bnez	s1,13e20 <_vfiprintf_r+0xc7a>
   134a0:	06714783          	lbu	a5,103(sp)
   134a4:	4301                	li	t1,0
   134a6:	4e01                	li	t3,0
   134a8:	8bf6                	mv	s7,t4
   134aa:	0ec10d93          	add	s11,sp,236
   134ae:	c391                	beqz	a5,134b2 <_vfiprintf_r+0x30c>
   134b0:	2305                	addw	t1,t1,1
   134b2:	002cff93          	and	t6,s9,2
   134b6:	ec0f84e3          	beqz	t6,1337e <_vfiprintf_r+0x1d8>
   134ba:	2309                	addw	t1,t1,2
   134bc:	4f89                	li	t6,2
   134be:	b5c1                	j	1337e <_vfiprintf_r+0x1d8>
   134c0:	41a48dbb          	subw	s11,s1,s10
   134c4:	d80d99e3          	bnez	s11,13256 <_vfiprintf_r+0xb0>
   134c8:	0004c783          	lbu	a5,0(s1)
   134cc:	b3c9                	j	1328e <_vfiprintf_r+0xe8>
   134ce:	010cf793          	and	a5,s9,16
   134d2:	fbc5                	bnez	a5,13482 <_vfiprintf_r+0x2dc>
   134d4:	040cf793          	and	a5,s9,64
   134d8:	000bab83          	lw	s7,0(s7)
   134dc:	0c0787e3          	beqz	a5,13daa <_vfiprintf_r+0xc04>
   134e0:	010b9b9b          	sllw	s7,s7,0x10
   134e4:	410bdb9b          	sraw	s7,s7,0x10
   134e8:	87de                	mv	a5,s7
   134ea:	fa07d1e3          	bgez	a5,1348c <_vfiprintf_r+0x2e6>
   134ee:	02d00793          	li	a5,45
   134f2:	06f103a3          	sb	a5,103(sp)
   134f6:	41700bb3          	neg	s7,s7
   134fa:	0004c663          	bltz	s1,13506 <_vfiprintf_r+0x360>
   134fe:	f7fcf813          	and	a6,s9,-129
   13502:	00080c9b          	sext.w	s9,a6
   13506:	47a5                	li	a5,9
   13508:	6977ef63          	bltu	a5,s7,13ba6 <_vfiprintf_r+0xa00>
   1350c:	030b879b          	addw	a5,s7,48
   13510:	0ff7f793          	zext.b	a5,a5
   13514:	8bf6                	mv	s7,t4
   13516:	0ef105a3          	sb	a5,235(sp)
   1351a:	0004831b          	sext.w	t1,s1
   1351e:	00904363          	bgtz	s1,13524 <_vfiprintf_r+0x37e>
   13522:	4305                	li	t1,1
   13524:	4e05                	li	t3,1
   13526:	0eb10d93          	add	s11,sp,235
   1352a:	06714783          	lbu	a5,103(sp)
   1352e:	f3c9                	bnez	a5,134b0 <_vfiprintf_r+0x30a>
   13530:	b749                	j	134b2 <_vfiprintf_r+0x30c>
   13532:	000bbd83          	ld	s11,0(s7)
   13536:	060103a3          	sb	zero,103(sp)
   1353a:	0ba1                	add	s7,s7,8
   1353c:	040d80e3          	beqz	s11,13d7c <_vfiprintf_r+0xbd6>
   13540:	ec46                	sd	a7,24(sp)
   13542:	7a04c163          	bltz	s1,13ce4 <_vfiprintf_r+0xb3e>
   13546:	8626                	mv	a2,s1
   13548:	4581                	li	a1,0
   1354a:	856e                	mv	a0,s11
   1354c:	3b8010ef          	jal	14904 <memchr>
   13550:	68e2                	ld	a7,24(sp)
   13552:	8e26                	mv	t3,s1
   13554:	c119                	beqz	a0,1355a <_vfiprintf_r+0x3b4>
   13556:	41b50e3b          	subw	t3,a0,s11
   1355a:	fffe4313          	not	t1,t3
   1355e:	06714783          	lbu	a5,103(sp)
   13562:	43f35313          	sra	t1,t1,0x3f
   13566:	006e7333          	and	t1,t3,t1
   1356a:	2301                	sext.w	t1,t1
   1356c:	4481                	li	s1,0
   1356e:	4f81                	li	t6,0
   13570:	f3a1                	bnez	a5,134b0 <_vfiprintf_r+0x30a>
   13572:	b531                	j	1337e <_vfiprintf_r+0x1d8>
   13574:	000ba783          	lw	a5,0(s7)
   13578:	060103a3          	sb	zero,103(sp)
   1357c:	0ba1                	add	s7,s7,8
   1357e:	08f10423          	sb	a5,136(sp)
   13582:	4305                	li	t1,1
   13584:	4e05                	li	t3,1
   13586:	08810d93          	add	s11,sp,136
   1358a:	bbc5                	j	1337a <_vfiprintf_r+0x1d4>
   1358c:	000ba883          	lw	a7,0(s7)
   13590:	0ba1                	add	s7,s7,8
   13592:	0808df63          	bgez	a7,13630 <_vfiprintf_r+0x48a>
   13596:	411008bb          	negw	a7,a7
   1359a:	004cec93          	or	s9,s9,4
   1359e:	000d4783          	lbu	a5,0(s10)
   135a2:	2c81                	sext.w	s9,s9
   135a4:	b309                	j	132a6 <_vfiprintf_r+0x100>
   135a6:	02b00713          	li	a4,43
   135aa:	000d4783          	lbu	a5,0(s10)
   135ae:	06e103a3          	sb	a4,103(sp)
   135b2:	b9d5                	j	132a6 <_vfiprintf_r+0x100>
   135b4:	080cec93          	or	s9,s9,128
   135b8:	000d4783          	lbu	a5,0(s10)
   135bc:	2c81                	sext.w	s9,s9
   135be:	b1e5                	j	132a6 <_vfiprintf_r+0x100>
   135c0:	000d4783          	lbu	a5,0(s10)
   135c4:	02a00613          	li	a2,42
   135c8:	001d0693          	add	a3,s10,1
   135cc:	08c782e3          	beq	a5,a2,13e50 <_vfiprintf_r+0xcaa>
   135d0:	fd07871b          	addw	a4,a5,-48
   135d4:	4525                	li	a0,9
   135d6:	4601                	li	a2,0
   135d8:	45a5                	li	a1,9
   135da:	8d36                	mv	s10,a3
   135dc:	4481                	li	s1,0
   135de:	cce566e3          	bltu	a0,a4,132aa <_vfiprintf_r+0x104>
   135e2:	0006c783          	lbu	a5,0(a3)
   135e6:	0026149b          	sllw	s1,a2,0x2
   135ea:	9cb1                	addw	s1,s1,a2
   135ec:	0014949b          	sllw	s1,s1,0x1
   135f0:	00e4863b          	addw	a2,s1,a4
   135f4:	fd07871b          	addw	a4,a5,-48
   135f8:	84b2                	mv	s1,a2
   135fa:	0685                	add	a3,a3,1
   135fc:	fee5f3e3          	bgeu	a1,a4,135e2 <_vfiprintf_r+0x43c>
   13600:	66064663          	bltz	a2,13c6c <_vfiprintf_r+0xac6>
   13604:	8d36                	mv	s10,a3
   13606:	b155                	j	132aa <_vfiprintf_r+0x104>
   13608:	8556                	mv	a0,s5
   1360a:	ec46                	sd	a7,24(sp)
   1360c:	4e2010ef          	jal	14aee <_localeconv_r>
   13610:	651c                	ld	a5,8(a0)
   13612:	853e                	mv	a0,a5
   13614:	e0be                	sd	a5,64(sp)
   13616:	766010ef          	jal	14d7c <strlen>
   1361a:	87aa                	mv	a5,a0
   1361c:	8556                	mv	a0,s5
   1361e:	f83e                	sd	a5,48(sp)
   13620:	4ce010ef          	jal	14aee <_localeconv_r>
   13624:	6918                	ld	a4,16(a0)
   13626:	77c2                	ld	a5,48(sp)
   13628:	68e2                	ld	a7,24(sp)
   1362a:	fc3a                	sd	a4,56(sp)
   1362c:	60079a63          	bnez	a5,13c40 <_vfiprintf_r+0xa9a>
   13630:	000d4783          	lbu	a5,0(s10)
   13634:	b98d                	j	132a6 <_vfiprintf_r+0x100>
   13636:	001cec93          	or	s9,s9,1
   1363a:	000d4783          	lbu	a5,0(s10)
   1363e:	2c81                	sext.w	s9,s9
   13640:	b19d                	j	132a6 <_vfiprintf_r+0x100>
   13642:	06714703          	lbu	a4,103(sp)
   13646:	000d4783          	lbu	a5,0(s10)
   1364a:	c4071ee3          	bnez	a4,132a6 <_vfiprintf_r+0x100>
   1364e:	02000713          	li	a4,32
   13652:	06e103a3          	sb	a4,103(sp)
   13656:	b981                	j	132a6 <_vfiprintf_r+0x100>
   13658:	010ce793          	or	a5,s9,16
   1365c:	2781                	sext.w	a5,a5
   1365e:	0207f713          	and	a4,a5,32
   13662:	008b8693          	add	a3,s7,8
   13666:	e709                	bnez	a4,13670 <_vfiprintf_r+0x4ca>
   13668:	0107f713          	and	a4,a5,16
   1366c:	5c070163          	beqz	a4,13c2e <_vfiprintf_r+0xa88>
   13670:	000bb703          	ld	a4,0(s7)
   13674:	bff7f813          	and	a6,a5,-1025
   13678:	060103a3          	sb	zero,103(sp)
   1367c:	00080c9b          	sext.w	s9,a6
   13680:	8bb6                	mv	s7,a3
   13682:	0804c563          	bltz	s1,1370c <_vfiprintf_r+0x566>
   13686:	b7f7f793          	and	a5,a5,-1153
   1368a:	2781                	sext.w	a5,a5
   1368c:	6a071f63          	bnez	a4,13d4a <_vfiprintf_r+0xba4>
   13690:	8e66                	mv	t3,s9
   13692:	8cbe                	mv	s9,a5
   13694:	e4ad                	bnez	s1,136fe <_vfiprintf_r+0x558>
   13696:	50071363          	bnez	a4,13b9c <_vfiprintf_r+0x9f6>
   1369a:	001e7e13          	and	t3,t3,1
   1369e:	560e0463          	beqz	t3,13c06 <_vfiprintf_r+0xa60>
   136a2:	03000793          	li	a5,48
   136a6:	0ef105a3          	sb	a5,235(sp)
   136aa:	8372                	mv	t1,t3
   136ac:	0eb10d93          	add	s11,sp,235
   136b0:	bdad                	j	1352a <_vfiprintf_r+0x384>
   136b2:	000d4783          	lbu	a5,0(s10)
   136b6:	06c00713          	li	a4,108
   136ba:	6ae78963          	beq	a5,a4,13d6c <_vfiprintf_r+0xbc6>
   136be:	010cec93          	or	s9,s9,16
   136c2:	2c81                	sext.w	s9,s9
   136c4:	b6cd                	j	132a6 <_vfiprintf_r+0x100>
   136c6:	010cee13          	or	t3,s9,16
   136ca:	2e01                	sext.w	t3,t3
   136cc:	020e7793          	and	a5,t3,32
   136d0:	008b8e93          	add	t4,s7,8
   136d4:	e789                	bnez	a5,136de <_vfiprintf_r+0x538>
   136d6:	010e7793          	and	a5,t3,16
   136da:	54078063          	beqz	a5,13c1a <_vfiprintf_r+0xa74>
   136de:	000bbb83          	ld	s7,0(s7)
   136e2:	060103a3          	sb	zero,103(sp)
   136e6:	8cf2                	mv	s9,t3
   136e8:	e004cfe3          	bltz	s1,13506 <_vfiprintf_r+0x360>
   136ec:	f7fe7813          	and	a6,t3,-129
   136f0:	00080c9b          	sext.w	s9,a6
   136f4:	e00b99e3          	bnez	s7,13506 <_vfiprintf_r+0x360>
   136f8:	8bf6                	mv	s7,t4
   136fa:	4705                	li	a4,1
   136fc:	dcc9                	beqz	s1,13696 <_vfiprintf_r+0x4f0>
   136fe:	4785                	li	a5,1
   13700:	72f70163          	beq	a4,a5,13e22 <_vfiprintf_r+0xc7c>
   13704:	4789                	li	a5,2
   13706:	6cf70263          	beq	a4,a5,13dca <_vfiprintf_r+0xc24>
   1370a:	4701                	li	a4,0
   1370c:	0ec10e13          	add	t3,sp,236
   13710:	8df2                	mv	s11,t3
   13712:	00777793          	and	a5,a4,7
   13716:	03078793          	add	a5,a5,48
   1371a:	fefd8fa3          	sb	a5,-1(s11)
   1371e:	830d                	srl	a4,a4,0x3
   13720:	86ee                	mv	a3,s11
   13722:	1dfd                	add	s11,s11,-1
   13724:	f77d                	bnez	a4,13712 <_vfiprintf_r+0x56c>
   13726:	001cf713          	and	a4,s9,1
   1372a:	28070763          	beqz	a4,139b8 <_vfiprintf_r+0x812>
   1372e:	03000713          	li	a4,48
   13732:	28e78363          	beq	a5,a4,139b8 <_vfiprintf_r+0x812>
   13736:	16f9                	add	a3,a3,-2
   13738:	feed8fa3          	sb	a4,-1(s11)
   1373c:	40de0e3b          	subw	t3,t3,a3
   13740:	0004831b          	sext.w	t1,s1
   13744:	53c4c063          	blt	s1,t3,13c64 <_vfiprintf_r+0xabe>
   13748:	8db6                	mv	s11,a3
   1374a:	b3c5                	j	1352a <_vfiprintf_r+0x384>
   1374c:	000d4783          	lbu	a5,0(s10)
   13750:	06800713          	li	a4,104
   13754:	60e78463          	beq	a5,a4,13d5c <_vfiprintf_r+0xbb6>
   13758:	040cec93          	or	s9,s9,64
   1375c:	2c81                	sext.w	s9,s9
   1375e:	b6a1                	j	132a6 <_vfiprintf_r+0x100>
   13760:	020cec93          	or	s9,s9,32
   13764:	000d4783          	lbu	a5,0(s10)
   13768:	2c81                	sext.w	s9,s9
   1376a:	be35                	j	132a6 <_vfiprintf_r+0x100>
   1376c:	67a1                	lui	a5,0x8
   1376e:	83078793          	add	a5,a5,-2000 # 7830 <exit-0x88b8>
   13772:	06f11423          	sh	a5,104(sp)
   13776:	67e5                	lui	a5,0x19
   13778:	002ce813          	or	a6,s9,2
   1377c:	22878793          	add	a5,a5,552 # 19228 <__clzdi2+0x86>
   13780:	000bb703          	ld	a4,0(s7)
   13784:	00080c9b          	sext.w	s9,a6
   13788:	0ba1                	add	s7,s7,8
   1378a:	e83e                	sd	a5,16(sp)
   1378c:	060103a3          	sb	zero,103(sp)
   13790:	2004c663          	bltz	s1,1399c <_vfiprintf_r+0x7f6>
   13794:	f7fcf793          	and	a5,s9,-129
   13798:	2781                	sext.w	a5,a5
   1379a:	1e071d63          	bnez	a4,13994 <_vfiprintf_r+0x7ee>
   1379e:	8e66                	mv	t3,s9
   137a0:	4709                	li	a4,2
   137a2:	8cbe                	mv	s9,a5
   137a4:	bdc5                	j	13694 <_vfiprintf_r+0x4ee>
   137a6:	020cf793          	and	a5,s9,32
   137aa:	000bb703          	ld	a4,0(s7)
   137ae:	e385                	bnez	a5,137ce <_vfiprintf_r+0x628>
   137b0:	010cf793          	and	a5,s9,16
   137b4:	ef89                	bnez	a5,137ce <_vfiprintf_r+0x628>
   137b6:	040cf793          	and	a5,s9,64
   137ba:	62079663          	bnez	a5,13de6 <_vfiprintf_r+0xc40>
   137be:	200cf813          	and	a6,s9,512
   137c2:	68080263          	beqz	a6,13e46 <_vfiprintf_r+0xca0>
   137c6:	01870023          	sb	s8,0(a4)
   137ca:	0ba1                	add	s7,s7,8
   137cc:	b4ad                	j	13236 <_vfiprintf_r+0x90>
   137ce:	01873023          	sd	s8,0(a4)
   137d2:	0ba1                	add	s7,s7,8
   137d4:	b48d                	j	13236 <_vfiprintf_r+0x90>
   137d6:	4705                	li	a4,1
   137d8:	87f2                	mv	a5,t3
   137da:	f9ee                	sd	s11,240(sp)
   137dc:	fdf2                	sd	t3,248(sp)
   137de:	e172                	sd	t3,128(sp)
   137e0:	dcba                	sw	a4,120(sp)
   137e2:	844e                	mv	s0,s3
   137e4:	0441                	add	s0,s0,16
   137e6:	b9a1                	j	1343e <_vfiprintf_r+0x298>
   137e8:	4068873b          	subw	a4,a7,t1
   137ec:	c0e05ce3          	blez	a4,13404 <_vfiprintf_r+0x25e>
   137f0:	4641                	li	a2,16
   137f2:	64e65263          	bge	a2,a4,13e36 <_vfiprintf_r+0xc90>
   137f6:	6ee5                	lui	t4,0x19
   137f8:	638e8e93          	add	t4,t4,1592 # 19638 <zeroes.0>
   137fc:	f426                	sd	s1,40(sp)
   137fe:	85a2                	mv	a1,s0
   13800:	4f41                	li	t5,16
   13802:	4f9d                	li	t6,7
   13804:	ec72                	sd	t3,24(sp)
   13806:	f046                	sd	a7,32(sp)
   13808:	e49a                	sd	t1,72(sp)
   1380a:	843a                	mv	s0,a4
   1380c:	84f6                	mv	s1,t4
   1380e:	a801                	j	1381e <_vfiprintf_r+0x678>
   13810:	0026861b          	addw	a2,a3,2
   13814:	05c1                	add	a1,a1,16
   13816:	86aa                	mv	a3,a0
   13818:	3441                	addw	s0,s0,-16
   1381a:	028f5f63          	bge	t5,s0,13858 <_vfiprintf_r+0x6b2>
   1381e:	0016851b          	addw	a0,a3,1
   13822:	07c1                	add	a5,a5,16
   13824:	e184                	sd	s1,0(a1)
   13826:	01e5b423          	sd	t5,8(a1)
   1382a:	e13e                	sd	a5,128(sp)
   1382c:	dcaa                	sw	a0,120(sp)
   1382e:	feafd1e3          	bge	t6,a0,13810 <_vfiprintf_r+0x66a>
   13832:	10078963          	beqz	a5,13944 <_vfiprintf_r+0x79e>
   13836:	1890                	add	a2,sp,112
   13838:	85d2                	mv	a1,s4
   1383a:	8556                	mv	a0,s5
   1383c:	89bff0ef          	jal	130d6 <__sprint_r.part.0>
   13840:	ac0513e3          	bnez	a0,13306 <_vfiprintf_r+0x160>
   13844:	56e6                	lw	a3,120(sp)
   13846:	4f41                	li	t5,16
   13848:	3441                	addw	s0,s0,-16
   1384a:	678a                	ld	a5,128(sp)
   1384c:	85ce                	mv	a1,s3
   1384e:	0016861b          	addw	a2,a3,1
   13852:	4f9d                	li	t6,7
   13854:	fc8f45e3          	blt	t5,s0,1381e <_vfiprintf_r+0x678>
   13858:	8ea6                	mv	t4,s1
   1385a:	6e62                	ld	t3,24(sp)
   1385c:	7882                	ld	a7,32(sp)
   1385e:	6326                	ld	t1,72(sp)
   13860:	74a2                	ld	s1,40(sp)
   13862:	8722                	mv	a4,s0
   13864:	842e                	mv	s0,a1
   13866:	97ba                	add	a5,a5,a4
   13868:	e418                	sd	a4,8(s0)
   1386a:	01d43023          	sd	t4,0(s0)
   1386e:	e13e                	sd	a5,128(sp)
   13870:	dcb2                	sw	a2,120(sp)
   13872:	471d                	li	a4,7
   13874:	38c75d63          	bge	a4,a2,13c0e <_vfiprintf_r+0xa68>
   13878:	54078b63          	beqz	a5,13dce <_vfiprintf_r+0xc28>
   1387c:	1890                	add	a2,sp,112
   1387e:	85d2                	mv	a1,s4
   13880:	8556                	mv	a0,s5
   13882:	f41a                	sd	t1,40(sp)
   13884:	f046                	sd	a7,32(sp)
   13886:	ec72                	sd	t3,24(sp)
   13888:	84fff0ef          	jal	130d6 <__sprint_r.part.0>
   1388c:	a6051de3          	bnez	a0,13306 <_vfiprintf_r+0x160>
   13890:	6e62                	ld	t3,24(sp)
   13892:	56e6                	lw	a3,120(sp)
   13894:	678a                	ld	a5,128(sp)
   13896:	41c484bb          	subw	s1,s1,t3
   1389a:	7322                	ld	t1,40(sp)
   1389c:	7882                	ld	a7,32(sp)
   1389e:	844e                	mv	s0,s3
   138a0:	0016859b          	addw	a1,a3,1
   138a4:	b69054e3          	blez	s1,1340c <_vfiprintf_r+0x266>
   138a8:	6ee5                	lui	t4,0x19
   138aa:	638e8e93          	add	t4,t4,1592 # 19638 <zeroes.0>
   138ae:	06995363          	bge	s2,s1,13914 <_vfiprintf_r+0x76e>
   138b2:	8722                	mv	a4,s0
   138b4:	4f1d                	li	t5,7
   138b6:	8426                	mv	s0,s1
   138b8:	ec72                	sd	t3,24(sp)
   138ba:	f046                	sd	a7,32(sp)
   138bc:	f41a                	sd	t1,40(sp)
   138be:	84da                	mv	s1,s6
   138c0:	a801                	j	138d0 <_vfiprintf_r+0x72a>
   138c2:	0026859b          	addw	a1,a3,2
   138c6:	0741                	add	a4,a4,16
   138c8:	86aa                	mv	a3,a0
   138ca:	3441                	addw	s0,s0,-16
   138cc:	02895e63          	bge	s2,s0,13908 <_vfiprintf_r+0x762>
   138d0:	0016851b          	addw	a0,a3,1
   138d4:	07c1                	add	a5,a5,16
   138d6:	01673023          	sd	s6,0(a4)
   138da:	01273423          	sd	s2,8(a4)
   138de:	e13e                	sd	a5,128(sp)
   138e0:	dcaa                	sw	a0,120(sp)
   138e2:	feaf50e3          	bge	t5,a0,138c2 <_vfiprintf_r+0x71c>
   138e6:	c3b9                	beqz	a5,1392c <_vfiprintf_r+0x786>
   138e8:	1890                	add	a2,sp,112
   138ea:	85d2                	mv	a1,s4
   138ec:	8556                	mv	a0,s5
   138ee:	fe8ff0ef          	jal	130d6 <__sprint_r.part.0>
   138f2:	a0051ae3          	bnez	a0,13306 <_vfiprintf_r+0x160>
   138f6:	56e6                	lw	a3,120(sp)
   138f8:	3441                	addw	s0,s0,-16
   138fa:	678a                	ld	a5,128(sp)
   138fc:	874e                	mv	a4,s3
   138fe:	0016859b          	addw	a1,a3,1
   13902:	4f1d                	li	t5,7
   13904:	fc8946e3          	blt	s2,s0,138d0 <_vfiprintf_r+0x72a>
   13908:	6e62                	ld	t3,24(sp)
   1390a:	7882                	ld	a7,32(sp)
   1390c:	7322                	ld	t1,40(sp)
   1390e:	8ea6                	mv	t4,s1
   13910:	84a2                	mv	s1,s0
   13912:	843a                	mv	s0,a4
   13914:	97a6                	add	a5,a5,s1
   13916:	01d43023          	sd	t4,0(s0)
   1391a:	e404                	sd	s1,8(s0)
   1391c:	e13e                	sd	a5,128(sp)
   1391e:	dcae                	sw	a1,120(sp)
   13920:	471d                	li	a4,7
   13922:	20b74763          	blt	a4,a1,13b30 <_vfiprintf_r+0x98a>
   13926:	0441                	add	s0,s0,16
   13928:	2585                	addw	a1,a1,1
   1392a:	b4cd                	j	1340c <_vfiprintf_r+0x266>
   1392c:	4585                	li	a1,1
   1392e:	4681                	li	a3,0
   13930:	874e                	mv	a4,s3
   13932:	bf61                	j	138ca <_vfiprintf_r+0x724>
   13934:	1890                	add	a2,sp,112
   13936:	85d2                	mv	a1,s4
   13938:	8556                	mv	a0,s5
   1393a:	f9cff0ef          	jal	130d6 <__sprint_r.part.0>
   1393e:	b20500e3          	beqz	a0,1345e <_vfiprintf_r+0x2b8>
   13942:	b2d1                	j	13306 <_vfiprintf_r+0x160>
   13944:	4605                	li	a2,1
   13946:	4681                	li	a3,0
   13948:	85ce                	mv	a1,s3
   1394a:	b5f9                	j	13818 <_vfiprintf_r+0x672>
   1394c:	cb85                	beqz	a5,1397c <_vfiprintf_r+0x7d6>
   1394e:	1890                	add	a2,sp,112
   13950:	85d2                	mv	a1,s4
   13952:	8556                	mv	a0,s5
   13954:	e89a                	sd	t1,80(sp)
   13956:	e4c6                	sd	a7,72(sp)
   13958:	f472                	sd	t3,40(sp)
   1395a:	f016                	sd	t0,32(sp)
   1395c:	ec7e                	sd	t6,24(sp)
   1395e:	f78ff0ef          	jal	130d6 <__sprint_r.part.0>
   13962:	9a0512e3          	bnez	a0,13306 <_vfiprintf_r+0x160>
   13966:	56e6                	lw	a3,120(sp)
   13968:	678a                	ld	a5,128(sp)
   1396a:	6346                	ld	t1,80(sp)
   1396c:	68a6                	ld	a7,72(sp)
   1396e:	7e22                	ld	t3,40(sp)
   13970:	7282                	ld	t0,32(sp)
   13972:	6fe2                	ld	t6,24(sp)
   13974:	844e                	mv	s0,s3
   13976:	0016859b          	addw	a1,a3,1
   1397a:	b481                	j	133ba <_vfiprintf_r+0x214>
   1397c:	2c0f8f63          	beqz	t6,13c5a <_vfiprintf_r+0xab4>
   13980:	10bc                	add	a5,sp,104
   13982:	f9be                	sd	a5,240(sp)
   13984:	4789                	li	a5,2
   13986:	fdbe                	sd	a5,248(sp)
   13988:	4585                	li	a1,1
   1398a:	844e                	mv	s0,s3
   1398c:	86ae                	mv	a3,a1
   1398e:	0441                	add	s0,s0,16
   13990:	2585                	addw	a1,a1,1
   13992:	b4ad                	j	133fc <_vfiprintf_r+0x256>
   13994:	8cbe                	mv	s9,a5
   13996:	4789                	li	a5,2
   13998:	d6078ae3          	beqz	a5,1370c <_vfiprintf_r+0x566>
   1399c:	66c2                	ld	a3,16(sp)
   1399e:	0ec10e13          	add	t3,sp,236
   139a2:	8df2                	mv	s11,t3
   139a4:	00f77793          	and	a5,a4,15
   139a8:	97b6                	add	a5,a5,a3
   139aa:	0007c783          	lbu	a5,0(a5)
   139ae:	8311                	srl	a4,a4,0x4
   139b0:	1dfd                	add	s11,s11,-1
   139b2:	00fd8023          	sb	a5,0(s11)
   139b6:	f77d                	bnez	a4,139a4 <_vfiprintf_r+0x7fe>
   139b8:	41be0e3b          	subw	t3,t3,s11
   139bc:	0004831b          	sext.w	t1,s1
   139c0:	b7c4d5e3          	bge	s1,t3,1352a <_vfiprintf_r+0x384>
   139c4:	000e031b          	sext.w	t1,t3
   139c8:	b68d                	j	1352a <_vfiprintf_r+0x384>
   139ca:	4541                	li	a0,16
   139cc:	44e55663          	bge	a0,a4,13e18 <_vfiprintf_r+0xc72>
   139d0:	6ee5                	lui	t4,0x19
   139d2:	648e8e93          	add	t4,t4,1608 # 19648 <blanks.1>
   139d6:	e8a6                	sd	s1,80(sp)
   139d8:	85a2                	mv	a1,s0
   139da:	4f41                	li	t5,16
   139dc:	439d                	li	t2,7
   139de:	ec7e                	sd	t6,24(sp)
   139e0:	f016                	sd	t0,32(sp)
   139e2:	f472                	sd	t3,40(sp)
   139e4:	e4c6                	sd	a7,72(sp)
   139e6:	ec9a                	sd	t1,88(sp)
   139e8:	843a                	mv	s0,a4
   139ea:	84f6                	mv	s1,t4
   139ec:	a811                	j	13a00 <_vfiprintf_r+0x85a>
   139ee:	0026861b          	addw	a2,a3,2
   139f2:	05c1                	add	a1,a1,16
   139f4:	86aa                	mv	a3,a0
   139f6:	3441                	addw	s0,s0,-16
   139f8:	048f5063          	bge	t5,s0,13a38 <_vfiprintf_r+0x892>
   139fc:	0016861b          	addw	a2,a3,1
   13a00:	07c1                	add	a5,a5,16
   13a02:	e184                	sd	s1,0(a1)
   13a04:	01e5b423          	sd	t5,8(a1)
   13a08:	e13e                	sd	a5,128(sp)
   13a0a:	0006051b          	sext.w	a0,a2
   13a0e:	dcb2                	sw	a2,120(sp)
   13a10:	fca3dfe3          	bge	t2,a0,139ee <_vfiprintf_r+0x848>
   13a14:	cba9                	beqz	a5,13a66 <_vfiprintf_r+0x8c0>
   13a16:	1890                	add	a2,sp,112
   13a18:	85d2                	mv	a1,s4
   13a1a:	8556                	mv	a0,s5
   13a1c:	ebaff0ef          	jal	130d6 <__sprint_r.part.0>
   13a20:	8e0513e3          	bnez	a0,13306 <_vfiprintf_r+0x160>
   13a24:	56e6                	lw	a3,120(sp)
   13a26:	4f41                	li	t5,16
   13a28:	3441                	addw	s0,s0,-16
   13a2a:	678a                	ld	a5,128(sp)
   13a2c:	85ce                	mv	a1,s3
   13a2e:	0016861b          	addw	a2,a3,1
   13a32:	439d                	li	t2,7
   13a34:	fc8f44e3          	blt	t5,s0,139fc <_vfiprintf_r+0x856>
   13a38:	8ea6                	mv	t4,s1
   13a3a:	6fe2                	ld	t6,24(sp)
   13a3c:	7282                	ld	t0,32(sp)
   13a3e:	7e22                	ld	t3,40(sp)
   13a40:	68a6                	ld	a7,72(sp)
   13a42:	6366                	ld	t1,88(sp)
   13a44:	64c6                	ld	s1,80(sp)
   13a46:	8722                	mv	a4,s0
   13a48:	842e                	mv	s0,a1
   13a4a:	97ba                	add	a5,a5,a4
   13a4c:	e418                	sd	a4,8(s0)
   13a4e:	01d43023          	sd	t4,0(s0)
   13a52:	e13e                	sd	a5,128(sp)
   13a54:	dcb2                	sw	a2,120(sp)
   13a56:	471d                	li	a4,7
   13a58:	10c74863          	blt	a4,a2,13b68 <_vfiprintf_r+0x9c2>
   13a5c:	0441                	add	s0,s0,16
   13a5e:	0016059b          	addw	a1,a2,1
   13a62:	86b2                	mv	a3,a2
   13a64:	ba15                	j	13398 <_vfiprintf_r+0x1f2>
   13a66:	4681                	li	a3,0
   13a68:	4605                	li	a2,1
   13a6a:	85ce                	mv	a1,s3
   13a6c:	b769                	j	139f6 <_vfiprintf_r+0x850>
   13a6e:	dc82                	sw	zero,120(sp)
   13a70:	004cf813          	and	a6,s9,4
   13a74:	0a080763          	beqz	a6,13b22 <_vfiprintf_r+0x97c>
   13a78:	406884bb          	subw	s1,a7,t1
   13a7c:	0a905363          	blez	s1,13b22 <_vfiprintf_r+0x97c>
   13a80:	844e                	mv	s0,s3
   13a82:	4741                	li	a4,16
   13a84:	56e6                	lw	a3,120(sp)
   13a86:	3a975263          	bge	a4,s1,13e2a <_vfiprintf_r+0xc84>
   13a8a:	6ee5                	lui	t4,0x19
   13a8c:	648e8e93          	add	t4,t4,1608 # 19648 <blanks.1>
   13a90:	8622                	mv	a2,s0
   13a92:	4dc1                	li	s11,16
   13a94:	8426                	mv	s0,s1
   13a96:	4c9d                	li	s9,7
   13a98:	ec46                	sd	a7,24(sp)
   13a9a:	f01a                	sd	t1,32(sp)
   13a9c:	84f6                	mv	s1,t4
   13a9e:	a801                	j	13aae <_vfiprintf_r+0x908>
   13aa0:	0026871b          	addw	a4,a3,2
   13aa4:	0641                	add	a2,a2,16
   13aa6:	86ae                	mv	a3,a1
   13aa8:	3441                	addw	s0,s0,-16
   13aaa:	028ddc63          	bge	s11,s0,13ae2 <_vfiprintf_r+0x93c>
   13aae:	0016859b          	addw	a1,a3,1
   13ab2:	07c1                	add	a5,a5,16
   13ab4:	e204                	sd	s1,0(a2)
   13ab6:	01b63423          	sd	s11,8(a2)
   13aba:	e13e                	sd	a5,128(sp)
   13abc:	dcae                	sw	a1,120(sp)
   13abe:	febcd1e3          	bge	s9,a1,13aa0 <_vfiprintf_r+0x8fa>
   13ac2:	cfa1                	beqz	a5,13b1a <_vfiprintf_r+0x974>
   13ac4:	1890                	add	a2,sp,112
   13ac6:	85d2                	mv	a1,s4
   13ac8:	8556                	mv	a0,s5
   13aca:	e0cff0ef          	jal	130d6 <__sprint_r.part.0>
   13ace:	82051ce3          	bnez	a0,13306 <_vfiprintf_r+0x160>
   13ad2:	56e6                	lw	a3,120(sp)
   13ad4:	3441                	addw	s0,s0,-16
   13ad6:	678a                	ld	a5,128(sp)
   13ad8:	864e                	mv	a2,s3
   13ada:	0016871b          	addw	a4,a3,1
   13ade:	fc8dc8e3          	blt	s11,s0,13aae <_vfiprintf_r+0x908>
   13ae2:	68e2                	ld	a7,24(sp)
   13ae4:	7302                	ld	t1,32(sp)
   13ae6:	8ea6                	mv	t4,s1
   13ae8:	84a2                	mv	s1,s0
   13aea:	8432                	mv	s0,a2
   13aec:	97a6                	add	a5,a5,s1
   13aee:	01d43023          	sd	t4,0(s0)
   13af2:	e404                	sd	s1,8(s0)
   13af4:	e13e                	sd	a5,128(sp)
   13af6:	dcba                	sw	a4,120(sp)
   13af8:	469d                	li	a3,7
   13afa:	94e6dae3          	bge	a3,a4,1344e <_vfiprintf_r+0x2a8>
   13afe:	c395                	beqz	a5,13b22 <_vfiprintf_r+0x97c>
   13b00:	1890                	add	a2,sp,112
   13b02:	85d2                	mv	a1,s4
   13b04:	8556                	mv	a0,s5
   13b06:	f01a                	sd	t1,32(sp)
   13b08:	ec46                	sd	a7,24(sp)
   13b0a:	dccff0ef          	jal	130d6 <__sprint_r.part.0>
   13b0e:	fe051c63          	bnez	a0,13306 <_vfiprintf_r+0x160>
   13b12:	678a                	ld	a5,128(sp)
   13b14:	7302                	ld	t1,32(sp)
